
V73_GazSensor_T_H_A_M_B.elf:     file format elf32-littlearm

Sections:
Idx Name          Size      VMA       LMA       File off  Algn
  0 .isr_vector   00000188  08000000  08000000  00010000  2**0
                  CONTENTS, ALLOC, LOAD, READONLY, DATA
  1 .text         000050b8  08000190  08000190  00010190  2**4
                  CONTENTS, ALLOC, LOAD, READONLY, CODE
  2 .rodata       00000168  08005248  08005248  00015248  2**2
                  CONTENTS, ALLOC, LOAD, READONLY, DATA
  3 .ARM          00000008  080053b0  080053b0  000153b0  2**2
                  CONTENTS, ALLOC, LOAD, READONLY, DATA
  4 .init_array   00000004  080053b8  080053b8  000153b8  2**2
                  CONTENTS, ALLOC, LOAD, DATA
  5 .fini_array   00000004  080053bc  080053bc  000153bc  2**2
                  CONTENTS, ALLOC, LOAD, DATA
  6 .data         00000088  20000000  080053c0  00020000  2**2
                  CONTENTS, ALLOC, LOAD, DATA
  7 .bss          00000208  20000088  08005448  00020088  2**2
                  ALLOC
  8 ._user_heap_stack 00000600  20000290  08005448  00020290  2**0
                  ALLOC
  9 .ARM.attributes 00000030  00000000  00000000  00020088  2**0
                  CONTENTS, READONLY
 10 .debug_info   0001c837  00000000  00000000  000200b8  2**0
                  CONTENTS, READONLY, DEBUGGING
 11 .debug_abbrev 00003579  00000000  00000000  0003c8ef  2**0
                  CONTENTS, READONLY, DEBUGGING
 12 .debug_loc    0000e848  00000000  00000000  0003fe68  2**0
                  CONTENTS, READONLY, DEBUGGING
 13 .debug_aranges 000010d8  00000000  00000000  0004e6b0  2**3
                  CONTENTS, READONLY, DEBUGGING
 14 .debug_ranges 00001710  00000000  00000000  0004f788  2**3
                  CONTENTS, READONLY, DEBUGGING
 15 .debug_line   00009f18  00000000  00000000  00050e98  2**0
                  CONTENTS, READONLY, DEBUGGING
 16 .debug_str    00006b45  00000000  00000000  0005adb0  2**0
                  CONTENTS, READONLY, DEBUGGING
 17 .comment      0000007c  00000000  00000000  000618f5  2**0
                  CONTENTS, READONLY
 18 .debug_frame  00003aa0  00000000  00000000  00061974  2**2
                  CONTENTS, READONLY, DEBUGGING
 19 .stab         00000084  00000000  00000000  00065414  2**2
                  CONTENTS, READONLY, DEBUGGING
 20 .stabstr      00000117  00000000  00000000  00065498  2**0
                  CONTENTS, READONLY, DEBUGGING

Disassembly of section .text:

08000190 <__do_global_dtors_aux>:
 8000190:	b510      	push	{r4, lr}
 8000192:	4c05      	ldr	r4, [pc, #20]	; (80001a8 <__do_global_dtors_aux+0x18>)
 8000194:	7823      	ldrb	r3, [r4, #0]
 8000196:	b933      	cbnz	r3, 80001a6 <__do_global_dtors_aux+0x16>
 8000198:	4b04      	ldr	r3, [pc, #16]	; (80001ac <__do_global_dtors_aux+0x1c>)
 800019a:	b113      	cbz	r3, 80001a2 <__do_global_dtors_aux+0x12>
 800019c:	4804      	ldr	r0, [pc, #16]	; (80001b0 <__do_global_dtors_aux+0x20>)
 800019e:	f3af 8000 	nop.w
 80001a2:	2301      	movs	r3, #1
 80001a4:	7023      	strb	r3, [r4, #0]
 80001a6:	bd10      	pop	{r4, pc}
 80001a8:	20000088 	.word	0x20000088
 80001ac:	00000000 	.word	0x00000000
 80001b0:	08005230 	.word	0x08005230

080001b4 <frame_dummy>:
 80001b4:	b508      	push	{r3, lr}
 80001b6:	4b03      	ldr	r3, [pc, #12]	; (80001c4 <frame_dummy+0x10>)
 80001b8:	b11b      	cbz	r3, 80001c2 <frame_dummy+0xe>
 80001ba:	4903      	ldr	r1, [pc, #12]	; (80001c8 <frame_dummy+0x14>)
 80001bc:	4803      	ldr	r0, [pc, #12]	; (80001cc <frame_dummy+0x18>)
 80001be:	f3af 8000 	nop.w
 80001c2:	bd08      	pop	{r3, pc}
 80001c4:	00000000 	.word	0x00000000
 80001c8:	2000008c 	.word	0x2000008c
 80001cc:	08005230 	.word	0x08005230

080001d0 <memchr>:
 80001d0:	f001 01ff 	and.w	r1, r1, #255	; 0xff
 80001d4:	2a10      	cmp	r2, #16
 80001d6:	db2b      	blt.n	8000230 <memchr+0x60>
 80001d8:	f010 0f07 	tst.w	r0, #7
 80001dc:	d008      	beq.n	80001f0 <memchr+0x20>
 80001de:	f810 3b01 	ldrb.w	r3, [r0], #1
 80001e2:	3a01      	subs	r2, #1
 80001e4:	428b      	cmp	r3, r1
 80001e6:	d02d      	beq.n	8000244 <memchr+0x74>
 80001e8:	f010 0f07 	tst.w	r0, #7
 80001ec:	b342      	cbz	r2, 8000240 <memchr+0x70>
 80001ee:	d1f6      	bne.n	80001de <memchr+0xe>
 80001f0:	b4f0      	push	{r4, r5, r6, r7}
 80001f2:	ea41 2101 	orr.w	r1, r1, r1, lsl #8
 80001f6:	ea41 4101 	orr.w	r1, r1, r1, lsl #16
 80001fa:	f022 0407 	bic.w	r4, r2, #7
 80001fe:	f07f 0700 	mvns.w	r7, #0
 8000202:	2300      	movs	r3, #0
 8000204:	e8f0 5602 	ldrd	r5, r6, [r0], #8
 8000208:	3c08      	subs	r4, #8
 800020a:	ea85 0501 	eor.w	r5, r5, r1
 800020e:	ea86 0601 	eor.w	r6, r6, r1
 8000212:	fa85 f547 	uadd8	r5, r5, r7
 8000216:	faa3 f587 	sel	r5, r3, r7
 800021a:	fa86 f647 	uadd8	r6, r6, r7
 800021e:	faa5 f687 	sel	r6, r5, r7
 8000222:	b98e      	cbnz	r6, 8000248 <memchr+0x78>
 8000224:	d1ee      	bne.n	8000204 <memchr+0x34>
 8000226:	bcf0      	pop	{r4, r5, r6, r7}
 8000228:	f001 01ff 	and.w	r1, r1, #255	; 0xff
 800022c:	f002 0207 	and.w	r2, r2, #7
 8000230:	b132      	cbz	r2, 8000240 <memchr+0x70>
 8000232:	f810 3b01 	ldrb.w	r3, [r0], #1
 8000236:	3a01      	subs	r2, #1
 8000238:	ea83 0301 	eor.w	r3, r3, r1
 800023c:	b113      	cbz	r3, 8000244 <memchr+0x74>
 800023e:	d1f8      	bne.n	8000232 <memchr+0x62>
 8000240:	2000      	movs	r0, #0
 8000242:	4770      	bx	lr
 8000244:	3801      	subs	r0, #1
 8000246:	4770      	bx	lr
 8000248:	2d00      	cmp	r5, #0
 800024a:	bf06      	itte	eq
 800024c:	4635      	moveq	r5, r6
 800024e:	3803      	subeq	r0, #3
 8000250:	3807      	subne	r0, #7
 8000252:	f015 0f01 	tst.w	r5, #1
 8000256:	d107      	bne.n	8000268 <memchr+0x98>
 8000258:	3001      	adds	r0, #1
 800025a:	f415 7f80 	tst.w	r5, #256	; 0x100
 800025e:	bf02      	ittt	eq
 8000260:	3001      	addeq	r0, #1
 8000262:	f415 3fc0 	tsteq.w	r5, #98304	; 0x18000
 8000266:	3001      	addeq	r0, #1
 8000268:	bcf0      	pop	{r4, r5, r6, r7}
 800026a:	3801      	subs	r0, #1
 800026c:	4770      	bx	lr
 800026e:	bf00      	nop

08000270 <__aeabi_uldivmod>:
 8000270:	b953      	cbnz	r3, 8000288 <__aeabi_uldivmod+0x18>
 8000272:	b94a      	cbnz	r2, 8000288 <__aeabi_uldivmod+0x18>
 8000274:	2900      	cmp	r1, #0
 8000276:	bf08      	it	eq
 8000278:	2800      	cmpeq	r0, #0
 800027a:	bf1c      	itt	ne
 800027c:	f04f 31ff 	movne.w	r1, #4294967295
 8000280:	f04f 30ff 	movne.w	r0, #4294967295
 8000284:	f000 b97a 	b.w	800057c <__aeabi_idiv0>
 8000288:	f1ad 0c08 	sub.w	ip, sp, #8
 800028c:	e96d ce04 	strd	ip, lr, [sp, #-16]!
 8000290:	f000 f806 	bl	80002a0 <__udivmoddi4>
 8000294:	f8dd e004 	ldr.w	lr, [sp, #4]
 8000298:	e9dd 2302 	ldrd	r2, r3, [sp, #8]
 800029c:	b004      	add	sp, #16
 800029e:	4770      	bx	lr

080002a0 <__udivmoddi4>:
 80002a0:	e92d 47f0 	stmdb	sp!, {r4, r5, r6, r7, r8, r9, sl, lr}
 80002a4:	468c      	mov	ip, r1
 80002a6:	460d      	mov	r5, r1
 80002a8:	4604      	mov	r4, r0
 80002aa:	9e08      	ldr	r6, [sp, #32]
 80002ac:	2b00      	cmp	r3, #0
 80002ae:	d151      	bne.n	8000354 <__udivmoddi4+0xb4>
 80002b0:	428a      	cmp	r2, r1
 80002b2:	4617      	mov	r7, r2
 80002b4:	d96d      	bls.n	8000392 <__udivmoddi4+0xf2>
 80002b6:	fab2 fe82 	clz	lr, r2
 80002ba:	f1be 0f00 	cmp.w	lr, #0
 80002be:	d00b      	beq.n	80002d8 <__udivmoddi4+0x38>
 80002c0:	f1ce 0c20 	rsb	ip, lr, #32
 80002c4:	fa01 f50e 	lsl.w	r5, r1, lr
 80002c8:	fa20 fc0c 	lsr.w	ip, r0, ip
 80002cc:	fa02 f70e 	lsl.w	r7, r2, lr
 80002d0:	ea4c 0c05 	orr.w	ip, ip, r5
 80002d4:	fa00 f40e 	lsl.w	r4, r0, lr
 80002d8:	ea4f 4a17 	mov.w	sl, r7, lsr #16
 80002dc:	0c25      	lsrs	r5, r4, #16
 80002de:	fbbc f8fa 	udiv	r8, ip, sl
 80002e2:	fa1f f987 	uxth.w	r9, r7
 80002e6:	fb0a cc18 	mls	ip, sl, r8, ip
 80002ea:	ea45 450c 	orr.w	r5, r5, ip, lsl #16
 80002ee:	fb08 f309 	mul.w	r3, r8, r9
 80002f2:	42ab      	cmp	r3, r5
 80002f4:	d90a      	bls.n	800030c <__udivmoddi4+0x6c>
 80002f6:	19ed      	adds	r5, r5, r7
 80002f8:	f108 32ff 	add.w	r2, r8, #4294967295
 80002fc:	f080 8123 	bcs.w	8000546 <__udivmoddi4+0x2a6>
 8000300:	42ab      	cmp	r3, r5
 8000302:	f240 8120 	bls.w	8000546 <__udivmoddi4+0x2a6>
 8000306:	f1a8 0802 	sub.w	r8, r8, #2
 800030a:	443d      	add	r5, r7
 800030c:	1aed      	subs	r5, r5, r3
 800030e:	b2a4      	uxth	r4, r4
 8000310:	fbb5 f0fa 	udiv	r0, r5, sl
 8000314:	fb0a 5510 	mls	r5, sl, r0, r5
 8000318:	ea44 4405 	orr.w	r4, r4, r5, lsl #16
 800031c:	fb00 f909 	mul.w	r9, r0, r9
 8000320:	45a1      	cmp	r9, r4
 8000322:	d909      	bls.n	8000338 <__udivmoddi4+0x98>
 8000324:	19e4      	adds	r4, r4, r7
 8000326:	f100 33ff 	add.w	r3, r0, #4294967295
 800032a:	f080 810a 	bcs.w	8000542 <__udivmoddi4+0x2a2>
 800032e:	45a1      	cmp	r9, r4
 8000330:	f240 8107 	bls.w	8000542 <__udivmoddi4+0x2a2>
 8000334:	3802      	subs	r0, #2
 8000336:	443c      	add	r4, r7
 8000338:	eba4 0409 	sub.w	r4, r4, r9
 800033c:	ea40 4008 	orr.w	r0, r0, r8, lsl #16
 8000340:	2100      	movs	r1, #0
 8000342:	2e00      	cmp	r6, #0
 8000344:	d061      	beq.n	800040a <__udivmoddi4+0x16a>
 8000346:	fa24 f40e 	lsr.w	r4, r4, lr
 800034a:	2300      	movs	r3, #0
 800034c:	6034      	str	r4, [r6, #0]
 800034e:	6073      	str	r3, [r6, #4]
 8000350:	e8bd 87f0 	ldmia.w	sp!, {r4, r5, r6, r7, r8, r9, sl, pc}
 8000354:	428b      	cmp	r3, r1
 8000356:	d907      	bls.n	8000368 <__udivmoddi4+0xc8>
 8000358:	2e00      	cmp	r6, #0
 800035a:	d054      	beq.n	8000406 <__udivmoddi4+0x166>
 800035c:	2100      	movs	r1, #0
 800035e:	e886 0021 	stmia.w	r6, {r0, r5}
 8000362:	4608      	mov	r0, r1
 8000364:	e8bd 87f0 	ldmia.w	sp!, {r4, r5, r6, r7, r8, r9, sl, pc}
 8000368:	fab3 f183 	clz	r1, r3
 800036c:	2900      	cmp	r1, #0
 800036e:	f040 808e 	bne.w	800048e <__udivmoddi4+0x1ee>
 8000372:	42ab      	cmp	r3, r5
 8000374:	d302      	bcc.n	800037c <__udivmoddi4+0xdc>
 8000376:	4282      	cmp	r2, r0
 8000378:	f200 80fa 	bhi.w	8000570 <__udivmoddi4+0x2d0>
 800037c:	1a84      	subs	r4, r0, r2
 800037e:	eb65 0503 	sbc.w	r5, r5, r3
 8000382:	2001      	movs	r0, #1
 8000384:	46ac      	mov	ip, r5
 8000386:	2e00      	cmp	r6, #0
 8000388:	d03f      	beq.n	800040a <__udivmoddi4+0x16a>
 800038a:	e886 1010 	stmia.w	r6, {r4, ip}
 800038e:	e8bd 87f0 	ldmia.w	sp!, {r4, r5, r6, r7, r8, r9, sl, pc}
 8000392:	b912      	cbnz	r2, 800039a <__udivmoddi4+0xfa>
 8000394:	2701      	movs	r7, #1
 8000396:	fbb7 f7f2 	udiv	r7, r7, r2
 800039a:	fab7 fe87 	clz	lr, r7
 800039e:	f1be 0f00 	cmp.w	lr, #0
 80003a2:	d134      	bne.n	800040e <__udivmoddi4+0x16e>
 80003a4:	1beb      	subs	r3, r5, r7
 80003a6:	0c3a      	lsrs	r2, r7, #16
 80003a8:	fa1f fc87 	uxth.w	ip, r7
 80003ac:	2101      	movs	r1, #1
 80003ae:	fbb3 f8f2 	udiv	r8, r3, r2
 80003b2:	0c25      	lsrs	r5, r4, #16
 80003b4:	fb02 3318 	mls	r3, r2, r8, r3
 80003b8:	ea45 4503 	orr.w	r5, r5, r3, lsl #16
 80003bc:	fb0c f308 	mul.w	r3, ip, r8
 80003c0:	42ab      	cmp	r3, r5
 80003c2:	d907      	bls.n	80003d4 <__udivmoddi4+0x134>
 80003c4:	19ed      	adds	r5, r5, r7
 80003c6:	f108 30ff 	add.w	r0, r8, #4294967295
 80003ca:	d202      	bcs.n	80003d2 <__udivmoddi4+0x132>
 80003cc:	42ab      	cmp	r3, r5
 80003ce:	f200 80d1 	bhi.w	8000574 <__udivmoddi4+0x2d4>
 80003d2:	4680      	mov	r8, r0
 80003d4:	1aed      	subs	r5, r5, r3
 80003d6:	b2a3      	uxth	r3, r4
 80003d8:	fbb5 f0f2 	udiv	r0, r5, r2
 80003dc:	fb02 5510 	mls	r5, r2, r0, r5
 80003e0:	ea43 4405 	orr.w	r4, r3, r5, lsl #16
 80003e4:	fb0c fc00 	mul.w	ip, ip, r0
 80003e8:	45a4      	cmp	ip, r4
 80003ea:	d907      	bls.n	80003fc <__udivmoddi4+0x15c>
 80003ec:	19e4      	adds	r4, r4, r7
 80003ee:	f100 33ff 	add.w	r3, r0, #4294967295
 80003f2:	d202      	bcs.n	80003fa <__udivmoddi4+0x15a>
 80003f4:	45a4      	cmp	ip, r4
 80003f6:	f200 80b8 	bhi.w	800056a <__udivmoddi4+0x2ca>
 80003fa:	4618      	mov	r0, r3
 80003fc:	eba4 040c 	sub.w	r4, r4, ip
 8000400:	ea40 4008 	orr.w	r0, r0, r8, lsl #16
 8000404:	e79d      	b.n	8000342 <__udivmoddi4+0xa2>
 8000406:	4631      	mov	r1, r6
 8000408:	4630      	mov	r0, r6
 800040a:	e8bd 87f0 	ldmia.w	sp!, {r4, r5, r6, r7, r8, r9, sl, pc}
 800040e:	f1ce 0420 	rsb	r4, lr, #32
 8000412:	fa05 f30e 	lsl.w	r3, r5, lr
 8000416:	fa07 f70e 	lsl.w	r7, r7, lr
 800041a:	fa20 f804 	lsr.w	r8, r0, r4
 800041e:	0c3a      	lsrs	r2, r7, #16
 8000420:	fa25 f404 	lsr.w	r4, r5, r4
 8000424:	ea48 0803 	orr.w	r8, r8, r3
 8000428:	fbb4 f1f2 	udiv	r1, r4, r2
 800042c:	ea4f 4518 	mov.w	r5, r8, lsr #16
 8000430:	fb02 4411 	mls	r4, r2, r1, r4
 8000434:	fa1f fc87 	uxth.w	ip, r7
 8000438:	ea45 4504 	orr.w	r5, r5, r4, lsl #16
 800043c:	fb01 f30c 	mul.w	r3, r1, ip
 8000440:	42ab      	cmp	r3, r5
 8000442:	fa00 f40e 	lsl.w	r4, r0, lr
 8000446:	d909      	bls.n	800045c <__udivmoddi4+0x1bc>
 8000448:	19ed      	adds	r5, r5, r7
 800044a:	f101 30ff 	add.w	r0, r1, #4294967295
 800044e:	f080 808a 	bcs.w	8000566 <__udivmoddi4+0x2c6>
 8000452:	42ab      	cmp	r3, r5
 8000454:	f240 8087 	bls.w	8000566 <__udivmoddi4+0x2c6>
 8000458:	3902      	subs	r1, #2
 800045a:	443d      	add	r5, r7
 800045c:	1aeb      	subs	r3, r5, r3
 800045e:	fa1f f588 	uxth.w	r5, r8
 8000462:	fbb3 f0f2 	udiv	r0, r3, r2
 8000466:	fb02 3310 	mls	r3, r2, r0, r3
 800046a:	ea45 4503 	orr.w	r5, r5, r3, lsl #16
 800046e:	fb00 f30c 	mul.w	r3, r0, ip
 8000472:	42ab      	cmp	r3, r5
 8000474:	d907      	bls.n	8000486 <__udivmoddi4+0x1e6>
 8000476:	19ed      	adds	r5, r5, r7
 8000478:	f100 38ff 	add.w	r8, r0, #4294967295
 800047c:	d26f      	bcs.n	800055e <__udivmoddi4+0x2be>
 800047e:	42ab      	cmp	r3, r5
 8000480:	d96d      	bls.n	800055e <__udivmoddi4+0x2be>
 8000482:	3802      	subs	r0, #2
 8000484:	443d      	add	r5, r7
 8000486:	1aeb      	subs	r3, r5, r3
 8000488:	ea40 4101 	orr.w	r1, r0, r1, lsl #16
 800048c:	e78f      	b.n	80003ae <__udivmoddi4+0x10e>
 800048e:	f1c1 0720 	rsb	r7, r1, #32
 8000492:	fa22 f807 	lsr.w	r8, r2, r7
 8000496:	408b      	lsls	r3, r1
 8000498:	fa05 f401 	lsl.w	r4, r5, r1
 800049c:	ea48 0303 	orr.w	r3, r8, r3
 80004a0:	fa20 fe07 	lsr.w	lr, r0, r7
 80004a4:	ea4f 4c13 	mov.w	ip, r3, lsr #16
 80004a8:	40fd      	lsrs	r5, r7
 80004aa:	ea4e 0e04 	orr.w	lr, lr, r4
 80004ae:	fbb5 f9fc 	udiv	r9, r5, ip
 80004b2:	ea4f 441e 	mov.w	r4, lr, lsr #16
 80004b6:	fb0c 5519 	mls	r5, ip, r9, r5
 80004ba:	fa1f f883 	uxth.w	r8, r3
 80004be:	ea44 4505 	orr.w	r5, r4, r5, lsl #16
 80004c2:	fb09 f408 	mul.w	r4, r9, r8
 80004c6:	42ac      	cmp	r4, r5
 80004c8:	fa02 f201 	lsl.w	r2, r2, r1
 80004cc:	fa00 fa01 	lsl.w	sl, r0, r1
 80004d0:	d908      	bls.n	80004e4 <__udivmoddi4+0x244>
 80004d2:	18ed      	adds	r5, r5, r3
 80004d4:	f109 30ff 	add.w	r0, r9, #4294967295
 80004d8:	d243      	bcs.n	8000562 <__udivmoddi4+0x2c2>
 80004da:	42ac      	cmp	r4, r5
 80004dc:	d941      	bls.n	8000562 <__udivmoddi4+0x2c2>
 80004de:	f1a9 0902 	sub.w	r9, r9, #2
 80004e2:	441d      	add	r5, r3
 80004e4:	1b2d      	subs	r5, r5, r4
 80004e6:	fa1f fe8e 	uxth.w	lr, lr
 80004ea:	fbb5 f0fc 	udiv	r0, r5, ip
 80004ee:	fb0c 5510 	mls	r5, ip, r0, r5
 80004f2:	ea4e 4405 	orr.w	r4, lr, r5, lsl #16
 80004f6:	fb00 f808 	mul.w	r8, r0, r8
 80004fa:	45a0      	cmp	r8, r4
 80004fc:	d907      	bls.n	800050e <__udivmoddi4+0x26e>
 80004fe:	18e4      	adds	r4, r4, r3
 8000500:	f100 35ff 	add.w	r5, r0, #4294967295
 8000504:	d229      	bcs.n	800055a <__udivmoddi4+0x2ba>
 8000506:	45a0      	cmp	r8, r4
 8000508:	d927      	bls.n	800055a <__udivmoddi4+0x2ba>
 800050a:	3802      	subs	r0, #2
 800050c:	441c      	add	r4, r3
 800050e:	ea40 4009 	orr.w	r0, r0, r9, lsl #16
 8000512:	eba4 0408 	sub.w	r4, r4, r8
 8000516:	fba0 8902 	umull	r8, r9, r0, r2
 800051a:	454c      	cmp	r4, r9
 800051c:	46c6      	mov	lr, r8
 800051e:	464d      	mov	r5, r9
 8000520:	d315      	bcc.n	800054e <__udivmoddi4+0x2ae>
 8000522:	d012      	beq.n	800054a <__udivmoddi4+0x2aa>
 8000524:	b156      	cbz	r6, 800053c <__udivmoddi4+0x29c>
 8000526:	ebba 030e 	subs.w	r3, sl, lr
 800052a:	eb64 0405 	sbc.w	r4, r4, r5
 800052e:	fa04 f707 	lsl.w	r7, r4, r7
 8000532:	40cb      	lsrs	r3, r1
 8000534:	431f      	orrs	r7, r3
 8000536:	40cc      	lsrs	r4, r1
 8000538:	6037      	str	r7, [r6, #0]
 800053a:	6074      	str	r4, [r6, #4]
 800053c:	2100      	movs	r1, #0
 800053e:	e8bd 87f0 	ldmia.w	sp!, {r4, r5, r6, r7, r8, r9, sl, pc}
 8000542:	4618      	mov	r0, r3
 8000544:	e6f8      	b.n	8000338 <__udivmoddi4+0x98>
 8000546:	4690      	mov	r8, r2
 8000548:	e6e0      	b.n	800030c <__udivmoddi4+0x6c>
 800054a:	45c2      	cmp	sl, r8
 800054c:	d2ea      	bcs.n	8000524 <__udivmoddi4+0x284>
 800054e:	ebb8 0e02 	subs.w	lr, r8, r2
 8000552:	eb69 0503 	sbc.w	r5, r9, r3
 8000556:	3801      	subs	r0, #1
 8000558:	e7e4      	b.n	8000524 <__udivmoddi4+0x284>
 800055a:	4628      	mov	r0, r5
 800055c:	e7d7      	b.n	800050e <__udivmoddi4+0x26e>
 800055e:	4640      	mov	r0, r8
 8000560:	e791      	b.n	8000486 <__udivmoddi4+0x1e6>
 8000562:	4681      	mov	r9, r0
 8000564:	e7be      	b.n	80004e4 <__udivmoddi4+0x244>
 8000566:	4601      	mov	r1, r0
 8000568:	e778      	b.n	800045c <__udivmoddi4+0x1bc>
 800056a:	3802      	subs	r0, #2
 800056c:	443c      	add	r4, r7
 800056e:	e745      	b.n	80003fc <__udivmoddi4+0x15c>
 8000570:	4608      	mov	r0, r1
 8000572:	e708      	b.n	8000386 <__udivmoddi4+0xe6>
 8000574:	f1a8 0802 	sub.w	r8, r8, #2
 8000578:	443d      	add	r5, r7
 800057a:	e72b      	b.n	80003d4 <__udivmoddi4+0x134>

0800057c <__aeabi_idiv0>:
 800057c:	4770      	bx	lr
 800057e:	bf00      	nop

08000580 <HAL_InitTick>:
  *       implementation  in user file.
  * @param TickPriority  Tick interrupt priority.
  * @retval HAL status
  */
__weak HAL_StatusTypeDef HAL_InitTick(uint32_t TickPriority)
{
 8000580:	b538      	push	{r3, r4, r5, lr}
  HAL_StatusTypeDef  status = HAL_OK;

  /*Configure the SysTick to have interrupt in 1ms time basis*/
  if (HAL_SYSTICK_Config(SystemCoreClock/1000UL) != 0U)
 8000582:	4b0a      	ldr	r3, [pc, #40]	; (80005ac <HAL_InitTick+0x2c>)
{
 8000584:	4605      	mov	r5, r0
  if (HAL_SYSTICK_Config(SystemCoreClock/1000UL) != 0U)
 8000586:	6818      	ldr	r0, [r3, #0]
 8000588:	f44f 737a 	mov.w	r3, #1000	; 0x3e8
 800058c:	fbb0 f0f3 	udiv	r0, r0, r3
 8000590:	f000 fdee 	bl	8001170 <HAL_SYSTICK_Config>
 8000594:	4604      	mov	r4, r0
 8000596:	b938      	cbnz	r0, 80005a8 <HAL_InitTick+0x28>
    status = HAL_ERROR;
  }
  else
  {
    /*Configure the SysTick IRQ priority */
    HAL_NVIC_SetPriority(SysTick_IRQn, TickPriority, 0);
 8000598:	4602      	mov	r2, r0
 800059a:	4629      	mov	r1, r5
 800059c:	f04f 30ff 	mov.w	r0, #4294967295
 80005a0:	f000 fda6 	bl	80010f0 <HAL_NVIC_SetPriority>
 80005a4:	4620      	mov	r0, r4
 80005a6:	bd38      	pop	{r3, r4, r5, pc}
    status = HAL_ERROR;
 80005a8:	2001      	movs	r0, #1
  }

  /* Return function status */
  return status;
}
 80005aa:	bd38      	pop	{r3, r4, r5, pc}
 80005ac:	20000020 	.word	0x20000020

080005b0 <HAL_Init>:
  __HAL_FLASH_PREFETCH_BUFFER_ENABLE();
 80005b0:	4a09      	ldr	r2, [pc, #36]	; (80005d8 <HAL_Init+0x28>)
 80005b2:	6813      	ldr	r3, [r2, #0]
 80005b4:	f443 7380 	orr.w	r3, r3, #256	; 0x100
{
 80005b8:	b510      	push	{r4, lr}
  HAL_NVIC_SetPriorityGrouping(NVIC_PRIORITYGROUP_4);
 80005ba:	2003      	movs	r0, #3
  __HAL_FLASH_PREFETCH_BUFFER_ENABLE();
 80005bc:	6013      	str	r3, [r2, #0]
  HAL_NVIC_SetPriorityGrouping(NVIC_PRIORITYGROUP_4);
 80005be:	f000 fd85 	bl	80010cc <HAL_NVIC_SetPriorityGrouping>
  if (HAL_InitTick(TICK_INT_PRIORITY) != HAL_OK)
 80005c2:	2000      	movs	r0, #0
 80005c4:	f7ff ffdc 	bl	8000580 <HAL_InitTick>
 80005c8:	4604      	mov	r4, r0
 80005ca:	b918      	cbnz	r0, 80005d4 <HAL_Init+0x24>
    HAL_MspInit();
 80005cc:	f003 fd44 	bl	8004058 <HAL_MspInit>
}
 80005d0:	4620      	mov	r0, r4
 80005d2:	bd10      	pop	{r4, pc}
    status = HAL_ERROR;
 80005d4:	2401      	movs	r4, #1
 80005d6:	e7fb      	b.n	80005d0 <HAL_Init+0x20>
 80005d8:	40022000 	.word	0x40022000

080005dc <HAL_IncTick>:
  *      implementations in user file.
  * @retval None
  */
__weak void HAL_IncTick(void)
{
  uwTick++;
 80005dc:	4a02      	ldr	r2, [pc, #8]	; (80005e8 <HAL_IncTick+0xc>)
 80005de:	6813      	ldr	r3, [r2, #0]
 80005e0:	3301      	adds	r3, #1
 80005e2:	6013      	str	r3, [r2, #0]
 80005e4:	4770      	bx	lr
 80005e6:	bf00      	nop
 80005e8:	200000b4 	.word	0x200000b4

080005ec <HAL_GetTick>:
  *       implementations in user file.
  * @retval tick value
  */
__weak uint32_t HAL_GetTick(void)
{
  return uwTick;
 80005ec:	4b01      	ldr	r3, [pc, #4]	; (80005f4 <HAL_GetTick+0x8>)
 80005ee:	6818      	ldr	r0, [r3, #0]
}
 80005f0:	4770      	bx	lr
 80005f2:	bf00      	nop
 80005f4:	200000b4 	.word	0x200000b4

080005f8 <LL_ADC_SetChannelSamplingTime>:
  *             can be replaced by 3.5 ADC clock cycles.
  *             Refer to function @ref LL_ADC_SetSamplingTimeCommonConfig().
  * @retval None
  */
__STATIC_INLINE void LL_ADC_SetChannelSamplingTime(ADC_TypeDef *ADCx, uint32_t Channel, uint32_t SamplingTime)
{
 80005f8:	b530      	push	{r4, r5, lr}
  /* Set bits with content of parameter "SamplingTime" with bits position     */
  /* in register and register position depending on parameter "Channel".      */
  /* Parameter "Channel" is used with masks because containing                */
  /* other bits reserved for other purpose.                                   */
  register uint32_t *preg = __ADC_PTR_REG_OFFSET(ADCx->SMPR1, ((Channel & ADC_CHANNEL_SMPRX_REGOFFSET_MASK) >> ADC_SMPRX_REGOFFSET_POS));
 80005fa:	0dcc      	lsrs	r4, r1, #23
 80005fc:	f004 0404 	and.w	r4, r4, #4
 8000600:	3014      	adds	r0, #20
  
  MODIFY_REG(*preg,
 8000602:	f3c1 5104 	ubfx	r1, r1, #20, #5
 8000606:	2307      	movs	r3, #7
 8000608:	fa03 f501 	lsl.w	r5, r3, r1
 800060c:	5823      	ldr	r3, [r4, r0]
 800060e:	fa02 f101 	lsl.w	r1, r2, r1
 8000612:	ea23 0305 	bic.w	r3, r3, r5
 8000616:	4319      	orrs	r1, r3
 8000618:	5021      	str	r1, [r4, r0]
 800061a:	bd30      	pop	{r4, r5, pc}

0800061c <LL_ADC_IsEnabled>:
  * @param  ADCx ADC instance
  * @retval 0: ADC is disabled, 1: ADC is enabled.
  */
__STATIC_INLINE uint32_t LL_ADC_IsEnabled(ADC_TypeDef *ADCx)
{
  return ((READ_BIT(ADCx->CR, ADC_CR_ADEN) == (ADC_CR_ADEN)) ? 1UL : 0UL);
 800061c:	6880      	ldr	r0, [r0, #8]
}
 800061e:	f000 0001 	and.w	r0, r0, #1
 8000622:	4770      	bx	lr

08000624 <LL_ADC_REG_IsConversionOngoing>:
  * @param  ADCx ADC instance
  * @retval 0: no conversion is on going on ADC group regular.
  */
__STATIC_INLINE uint32_t LL_ADC_REG_IsConversionOngoing(ADC_TypeDef *ADCx)
{
  return ((READ_BIT(ADCx->CR, ADC_CR_ADSTART) == (ADC_CR_ADSTART)) ? 1UL : 0UL);
 8000624:	6880      	ldr	r0, [r0, #8]
}
 8000626:	f3c0 0080 	ubfx	r0, r0, #2, #1
 800062a:	4770      	bx	lr

0800062c <HAL_ADC_Init>:
  *         without  disabling the other ADCs.
  * @param hadc ADC handle
  * @retval HAL status
  */
HAL_StatusTypeDef HAL_ADC_Init(ADC_HandleTypeDef* hadc)
{
 800062c:	b537      	push	{r0, r1, r2, r4, r5, lr}
  HAL_StatusTypeDef tmp_hal_status = HAL_OK;
  uint32_t tmpCFGR;
  uint32_t tmp_adc_reg_is_conversion_on_going;
  __IO uint32_t wait_loop_index = 0;
 800062e:	2300      	movs	r3, #0
 8000630:	9301      	str	r3, [sp, #4]
  uint32_t tmp_adc_is_conversion_on_going_regular;
  uint32_t tmp_adc_is_conversion_on_going_injected;
  
  /* Check ADC handle */
  if(hadc == NULL)
 8000632:	4604      	mov	r4, r0
 8000634:	2800      	cmp	r0, #0
 8000636:	f000 8085 	beq.w	8000744 <HAL_ADC_Init+0x118>
  /* DISCEN and CONT bits cannot be set at the same time */
  assert_param(!((hadc->Init.DiscontinuousConvMode == ENABLE) && (hadc->Init.ContinuousConvMode == ENABLE)));
  
  /* Actions performed only if ADC is coming from state reset:                */
  /* - Initialization of ADC MSP                                              */
  if(hadc->State == HAL_ADC_STATE_RESET)
 800063a:	6d45      	ldr	r5, [r0, #84]	; 0x54
 800063c:	b925      	cbnz	r5, 8000648 <HAL_ADC_Init+0x1c>
    
    /* Init the low level hardware */
    hadc->MspInitCallback(hadc);
#else
    /* Init the low level hardware */
    HAL_ADC_MspInit(hadc);
 800063e:	f003 f875 	bl	800372c <HAL_ADC_MspInit>
#endif /* USE_HAL_ADC_REGISTER_CALLBACKS */
    
    /* Set ADC error code to none */
    ADC_CLEAR_ERRORCODE(hadc);
 8000642:	65a5      	str	r5, [r4, #88]	; 0x58
    
    /* Initialize Lock */
    hadc->Lock = HAL_UNLOCKED;
 8000644:	f884 5050 	strb.w	r5, [r4, #80]	; 0x50
  }
  
  /* - Exit from deep-power-down mode and ADC voltage regulator enable        */
  if(LL_ADC_IsDeepPowerDownEnabled(hadc->Instance) != 0UL)
 8000648:	6820      	ldr	r0, [r4, #0]
  return ((READ_BIT(ADCx->CR, ADC_CR_DEEPPWD) == (ADC_CR_DEEPPWD)) ? 1UL : 0UL);
 800064a:	6883      	ldr	r3, [r0, #8]
 800064c:	009b      	lsls	r3, r3, #2
 800064e:	d47b      	bmi.n	8000748 <HAL_ADC_Init+0x11c>
  return ((READ_BIT(ADCx->CR, ADC_CR_ADVREGEN) == (ADC_CR_ADVREGEN)) ? 1UL : 0UL);
 8000650:	6883      	ldr	r3, [r0, #8]
 8000652:	00dd      	lsls	r5, r3, #3
 8000654:	d57f      	bpl.n	8000756 <HAL_ADC_Init+0x12a>
 8000656:	6883      	ldr	r3, [r0, #8]
 8000658:	00d9      	lsls	r1, r3, #3
 800065a:	f140 808a 	bpl.w	8000772 <HAL_ADC_Init+0x146>
  HAL_StatusTypeDef tmp_hal_status = HAL_OK;
 800065e:	2100      	movs	r1, #0
  
  /* Configuration of ADC parameters if previous preliminary actions are      */ 
  /* correctly completed and if there is no conversion on going on regular    */
  /* group (ADC may already be enabled at this point if HAL_ADC_Init() is     */
  /* called to update a parameter on the fly).                                */
  tmp_adc_reg_is_conversion_on_going = LL_ADC_REG_IsConversionOngoing(hadc->Instance);
 8000660:	f7ff ffe0 	bl	8000624 <LL_ADC_REG_IsConversionOngoing>
  
  if(   ((hadc->State & HAL_ADC_STATE_ERROR_INTERNAL) == 0UL)
 8000664:	6d63      	ldr	r3, [r4, #84]	; 0x54
 8000666:	f013 0f10 	tst.w	r3, #16
     && (tmp_adc_reg_is_conversion_on_going == 0UL)
    )
  {
    /* Set ADC state */
    ADC_STATE_CLR_SET(hadc->State,
 800066a:	6d63      	ldr	r3, [r4, #84]	; 0x54
  if(   ((hadc->State & HAL_ADC_STATE_ERROR_INTERNAL) == 0UL)
 800066c:	d167      	bne.n	800073e <HAL_ADC_Init+0x112>
     && (tmp_adc_reg_is_conversion_on_going == 0UL)
 800066e:	2800      	cmp	r0, #0
 8000670:	d165      	bne.n	800073e <HAL_ADC_Init+0x112>
    ADC_STATE_CLR_SET(hadc->State,
 8000672:	f423 7381 	bic.w	r3, r3, #258	; 0x102
 8000676:	f043 0302 	orr.w	r3, r3, #2
 800067a:	6563      	str	r3, [r4, #84]	; 0x54
    /* Configuration of common ADC parameters                                 */
    
    /* Parameters update conditioned to ADC state:                            */
    /* Parameters that can be updated only when ADC is disabled:              */
    /*  - clock configuration                                                 */
    if (LL_ADC_IsEnabled(hadc->Instance) == 0UL)
 800067c:	6820      	ldr	r0, [r4, #0]
 800067e:	f7ff ffcd 	bl	800061c <LL_ADC_IsEnabled>
 8000682:	b998      	cbnz	r0, 80006ac <HAL_ADC_Init+0x80>
    {
      if (__LL_ADC_IS_ENABLED_ALL_COMMON_INSTANCE(__LL_ADC_COMMON_INSTANCE(hadc->Instance)) == 0UL)
 8000684:	4852      	ldr	r0, [pc, #328]	; (80007d0 <HAL_ADC_Init+0x1a4>)
 8000686:	f7ff ffc9 	bl	800061c <LL_ADC_IsEnabled>
 800068a:	4603      	mov	r3, r0
 800068c:	4851      	ldr	r0, [pc, #324]	; (80007d4 <HAL_ADC_Init+0x1a8>)
 800068e:	f7ff ffc5 	bl	800061c <LL_ADC_IsEnabled>
 8000692:	4303      	orrs	r3, r0
 8000694:	4850      	ldr	r0, [pc, #320]	; (80007d8 <HAL_ADC_Init+0x1ac>)
 8000696:	f7ff ffc1 	bl	800061c <LL_ADC_IsEnabled>
 800069a:	4303      	orrs	r3, r0
 800069c:	d106      	bne.n	80006ac <HAL_ADC_Init+0x80>
  MODIFY_REG(ADCxy_COMMON->CCR, ADC_CCR_CKMODE | ADC_CCR_PRESC, CommonClock);
 800069e:	4a4f      	ldr	r2, [pc, #316]	; (80007dc <HAL_ADC_Init+0x1b0>)
 80006a0:	6860      	ldr	r0, [r4, #4]
 80006a2:	6893      	ldr	r3, [r2, #8]
 80006a4:	f423 137c 	bic.w	r3, r3, #4128768	; 0x3f0000
 80006a8:	4303      	orrs	r3, r0
 80006aa:	6093      	str	r3, [r2, #8]
    /*  - overrun                                  Init.Overrun               */
    /*  - discontinuous mode                       Init.DiscontinuousConvMode */
    /*  - discontinuous mode channel count         Init.NbrOfDiscConversion   */
    tmpCFGR  = (ADC_CFGR_CONTINUOUS((uint32_t)hadc->Init.ContinuousConvMode)           |
                hadc->Init.Overrun                                                     |
                hadc->Init.DataAlign                                                   |
 80006ac:	68e0      	ldr	r0, [r4, #12]
 80006ae:	6b63      	ldr	r3, [r4, #52]	; 0x34
                hadc->Init.Resolution                                                  |
                ADC_CFGR_REG_DISCONTINUOUS((uint32_t)hadc->Init.DiscontinuousConvMode)  );
 80006b0:	f894 2020 	ldrb.w	r2, [r4, #32]
                hadc->Init.DataAlign                                                   |
 80006b4:	4303      	orrs	r3, r0
 80006b6:	68a0      	ldr	r0, [r4, #8]
 80006b8:	4303      	orrs	r3, r0
    tmpCFGR  = (ADC_CFGR_CONTINUOUS((uint32_t)hadc->Init.ContinuousConvMode)           |
 80006ba:	7e60      	ldrb	r0, [r4, #25]
    
    if (hadc->Init.DiscontinuousConvMode == ENABLE)
 80006bc:	2a01      	cmp	r2, #1
                hadc->Init.DataAlign                                                   |
 80006be:	ea43 3340 	orr.w	r3, r3, r0, lsl #13
    tmpCFGR  = (ADC_CFGR_CONTINUOUS((uint32_t)hadc->Init.ContinuousConvMode)           |
 80006c2:	ea43 4302 	orr.w	r3, r3, r2, lsl #16
    {
      tmpCFGR |= ADC_CFGR_DISCONTINUOUS_NUM(hadc->Init.NbrOfDiscConversion);
 80006c6:	bf02      	ittt	eq
 80006c8:	6a62      	ldreq	r2, [r4, #36]	; 0x24
 80006ca:	f102 32ff 	addeq.w	r2, r2, #4294967295
 80006ce:	ea43 4342 	orreq.w	r3, r3, r2, lsl #17
    /* Enable external trigger if trigger selection is different of software  */
    /* start.                                                                 */
    /* Note: This configuration keeps the hardware feature of parameter       */
    /*       ExternalTrigConvEdge "trigger edge none" equivalent to           */
    /*       software start.                                                  */
    if (hadc->Init.ExternalTrigConv != ADC_SOFTWARE_START)
 80006d2:	6aa2      	ldr	r2, [r4, #40]	; 0x28
 80006d4:	b122      	cbz	r2, 80006e0 <HAL_ADC_Init+0xb4>
    {
      tmpCFGR |= (  (hadc->Init.ExternalTrigConv & ADC_CFGR_EXTSEL)
                  | hadc->Init.ExternalTrigConvEdge
 80006d6:	6ae0      	ldr	r0, [r4, #44]	; 0x2c
      tmpCFGR |= (  (hadc->Init.ExternalTrigConv & ADC_CFGR_EXTSEL)
 80006d8:	f402 7270 	and.w	r2, r2, #960	; 0x3c0
                  | hadc->Init.ExternalTrigConvEdge
 80006dc:	4302      	orrs	r2, r0
      tmpCFGR |= (  (hadc->Init.ExternalTrigConv & ADC_CFGR_EXTSEL)
 80006de:	4313      	orrs	r3, r2
                 );
    }
    
    /* Update Configuration Register CFGR */
    MODIFY_REG(hadc->Instance->CFGR, ADC_CFGR_FIELDS_1, tmpCFGR); 
 80006e0:	6820      	ldr	r0, [r4, #0]
 80006e2:	4a3f      	ldr	r2, [pc, #252]	; (80007e0 <HAL_ADC_Init+0x1b4>)
 80006e4:	68c5      	ldr	r5, [r0, #12]
 80006e6:	402a      	ands	r2, r5
 80006e8:	4313      	orrs	r3, r2
 80006ea:	60c3      	str	r3, [r0, #12]
    /* Parameters that can be updated when ADC is disabled or enabled without */
    /* conversion on going on regular and injected groups:                    */
    /*  - DMA continuous request          Init.DMAContinuousRequests          */
    /*  - LowPowerAutoWait feature        Init.LowPowerAutoWait               */
    /*  - Oversampling parameters         Init.Oversampling                   */
    tmp_adc_is_conversion_on_going_regular = LL_ADC_REG_IsConversionOngoing(hadc->Instance);
 80006ec:	f7ff ff9a 	bl	8000624 <LL_ADC_REG_IsConversionOngoing>
    tmp_adc_is_conversion_on_going_injected = LL_ADC_INJ_IsConversionOngoing(hadc->Instance);
 80006f0:	6823      	ldr	r3, [r4, #0]
  * @param  ADCx ADC instance
  * @retval 0: no conversion is on going on ADC group injected.
  */
__STATIC_INLINE uint32_t LL_ADC_INJ_IsConversionOngoing(ADC_TypeDef *ADCx)
{
  return ((READ_BIT(ADCx->CR, ADC_CR_JADSTART) == (ADC_CR_JADSTART)) ? 1UL : 0UL);
 80006f2:	689a      	ldr	r2, [r3, #8]
 80006f4:	0712      	lsls	r2, r2, #28
 80006f6:	d546      	bpl.n	8000786 <HAL_ADC_Init+0x15a>
    /*   Note: Scan mode is not present by hardware on this device, but       */
    /*   emulated by software for alignment over all STM32 devices.           */
    /* - if scan mode is enabled, regular channels sequence length is set to  */
    /*   parameter "NbrOfConversion".                                         */

    if (hadc->Init.ScanConvMode == ADC_SCAN_ENABLE)
 80006f8:	6922      	ldr	r2, [r4, #16]
 80006fa:	2a01      	cmp	r2, #1
    {
      /* Set number of ranks in regular group sequencer */
      MODIFY_REG(hadc->Instance->SQR1, ADC_SQR1_L, (hadc->Init.NbrOfConversion - (uint8_t)1));
 80006fc:	bf05      	ittet	eq
 80006fe:	6b18      	ldreq	r0, [r3, #48]	; 0x30
 8000700:	69e2      	ldreq	r2, [r4, #28]
    }
    else
    {
      CLEAR_BIT(hadc->Instance->SQR1, ADC_SQR1_L);
 8000702:	6b1a      	ldrne	r2, [r3, #48]	; 0x30
      MODIFY_REG(hadc->Instance->SQR1, ADC_SQR1_L, (hadc->Init.NbrOfConversion - (uint8_t)1));
 8000704:	f102 32ff 	addeq.w	r2, r2, #4294967295
 8000708:	bf06      	itte	eq
 800070a:	f020 000f 	biceq.w	r0, r0, #15
 800070e:	4302      	orreq	r2, r0
      CLEAR_BIT(hadc->Instance->SQR1, ADC_SQR1_L);
 8000710:	f022 020f 	bicne.w	r2, r2, #15
 8000714:	631a      	str	r2, [r3, #48]	; 0x30
    }
    
    /* Initialize the ADC state */
    /* Clear HAL_ADC_STATE_BUSY_INTERNAL bit, set HAL_ADC_STATE_READY bit */
    ADC_STATE_CLR_SET(hadc->State, HAL_ADC_STATE_BUSY_INTERNAL, HAL_ADC_STATE_READY);
 8000716:	6d63      	ldr	r3, [r4, #84]	; 0x54
 8000718:	f023 0303 	bic.w	r3, r3, #3
 800071c:	f043 0301 	orr.w	r3, r3, #1
 8000720:	6563      	str	r3, [r4, #84]	; 0x54
    tmp_hal_status = HAL_ERROR;
  }
  
  /* Return function status */
  return tmp_hal_status;
}
 8000722:	4608      	mov	r0, r1
 8000724:	b003      	add	sp, #12
 8000726:	bd30      	pop	{r4, r5, pc}
      wait_loop_index--;
 8000728:	9b01      	ldr	r3, [sp, #4]
 800072a:	3b01      	subs	r3, #1
 800072c:	9301      	str	r3, [sp, #4]
    while(wait_loop_index != 0UL)
 800072e:	9b01      	ldr	r3, [sp, #4]
 8000730:	2b00      	cmp	r3, #0
 8000732:	d1f9      	bne.n	8000728 <HAL_ADC_Init+0xfc>
 8000734:	e78f      	b.n	8000656 <HAL_ADC_Init+0x2a>
        CLEAR_BIT(hadc->Instance->CFGR2, ADC_CFGR2_ROVSE);
 8000736:	691a      	ldr	r2, [r3, #16]
 8000738:	f022 0201 	bic.w	r2, r2, #1
 800073c:	e045      	b.n	80007ca <HAL_ADC_Init+0x19e>
    SET_BIT(hadc->State, HAL_ADC_STATE_ERROR_INTERNAL);
 800073e:	f043 0310 	orr.w	r3, r3, #16
 8000742:	6563      	str	r3, [r4, #84]	; 0x54
    return HAL_ERROR;
 8000744:	2101      	movs	r1, #1
 8000746:	e7ec      	b.n	8000722 <HAL_ADC_Init+0xf6>
  CLEAR_BIT(ADCx->CR, (ADC_CR_DEEPPWD | ADC_CR_BITS_PROPERTY_RS));
 8000748:	6883      	ldr	r3, [r0, #8]
 800074a:	f023 4320 	bic.w	r3, r3, #2684354560	; 0xa0000000
 800074e:	f023 033f 	bic.w	r3, r3, #63	; 0x3f
 8000752:	6083      	str	r3, [r0, #8]
 8000754:	e77c      	b.n	8000650 <HAL_ADC_Init+0x24>
  MODIFY_REG(ADCx->CR,
 8000756:	6883      	ldr	r3, [r0, #8]
    wait_loop_index = ((LL_ADC_DELAY_INTERNAL_REGUL_STAB_US / 10UL) * (SystemCoreClock / (100000UL * 2UL)));
 8000758:	4a22      	ldr	r2, [pc, #136]	; (80007e4 <HAL_ADC_Init+0x1b8>)
 800075a:	f023 4310 	bic.w	r3, r3, #2415919104	; 0x90000000
 800075e:	f023 033f 	bic.w	r3, r3, #63	; 0x3f
 8000762:	f043 5380 	orr.w	r3, r3, #268435456	; 0x10000000
 8000766:	6083      	str	r3, [r0, #8]
 8000768:	4b1f      	ldr	r3, [pc, #124]	; (80007e8 <HAL_ADC_Init+0x1bc>)
 800076a:	681b      	ldr	r3, [r3, #0]
 800076c:	fbb3 f3f2 	udiv	r3, r3, r2
 8000770:	e7dc      	b.n	800072c <HAL_ADC_Init+0x100>
    SET_BIT(hadc->State, HAL_ADC_STATE_ERROR_INTERNAL);
 8000772:	6d63      	ldr	r3, [r4, #84]	; 0x54
 8000774:	f043 0310 	orr.w	r3, r3, #16
 8000778:	6563      	str	r3, [r4, #84]	; 0x54
    SET_BIT(hadc->ErrorCode, HAL_ADC_ERROR_INTERNAL);
 800077a:	6da3      	ldr	r3, [r4, #88]	; 0x58
 800077c:	f043 0301 	orr.w	r3, r3, #1
 8000780:	65a3      	str	r3, [r4, #88]	; 0x58
    tmp_hal_status = HAL_ERROR;
 8000782:	2101      	movs	r1, #1
 8000784:	e76c      	b.n	8000660 <HAL_ADC_Init+0x34>
    if (   (tmp_adc_is_conversion_on_going_regular == 0UL)
 8000786:	2800      	cmp	r0, #0
 8000788:	d1b6      	bne.n	80006f8 <HAL_ADC_Init+0xcc>
      MODIFY_REG(hadc->Instance->CFGR, ADC_CFGR_FIELDS_2, tmpCFGR);
 800078a:	68d8      	ldr	r0, [r3, #12]
                  ADC_CFGR_DMACONTREQ((uint32_t)hadc->Init.DMAContinuousRequests)  );
 800078c:	f894 2030 	ldrb.w	r2, [r4, #48]	; 0x30
                  ADC_CFGR_AUTOWAIT((uint32_t)hadc->Init.LowPowerAutoWait)        |
 8000790:	7e25      	ldrb	r5, [r4, #24]
                  ADC_CFGR_DMACONTREQ((uint32_t)hadc->Init.DMAContinuousRequests)  );
 8000792:	0052      	lsls	r2, r2, #1
      MODIFY_REG(hadc->Instance->CFGR, ADC_CFGR_FIELDS_2, tmpCFGR);
 8000794:	f420 4080 	bic.w	r0, r0, #16384	; 0x4000
      tmpCFGR = ( ADC_CFGR_DFSDM(hadc)                                            |
 8000798:	ea42 3285 	orr.w	r2, r2, r5, lsl #14
      MODIFY_REG(hadc->Instance->CFGR, ADC_CFGR_FIELDS_2, tmpCFGR);
 800079c:	f020 0002 	bic.w	r0, r0, #2
 80007a0:	4302      	orrs	r2, r0
 80007a2:	60da      	str	r2, [r3, #12]
      if (hadc->Init.OversamplingMode == ENABLE)
 80007a4:	f894 2038 	ldrb.w	r2, [r4, #56]	; 0x38
 80007a8:	2a01      	cmp	r2, #1
 80007aa:	d1c4      	bne.n	8000736 <HAL_ADC_Init+0x10a>
        MODIFY_REG(hadc->Instance->CFGR2,
 80007ac:	6c25      	ldr	r5, [r4, #64]	; 0x40
 80007ae:	6be2      	ldr	r2, [r4, #60]	; 0x3c
 80007b0:	6918      	ldr	r0, [r3, #16]
 80007b2:	432a      	orrs	r2, r5
 80007b4:	6c65      	ldr	r5, [r4, #68]	; 0x44
 80007b6:	f042 0201 	orr.w	r2, r2, #1
 80007ba:	432a      	orrs	r2, r5
 80007bc:	6ca5      	ldr	r5, [r4, #72]	; 0x48
 80007be:	f420 60ff 	bic.w	r0, r0, #2040	; 0x7f8
 80007c2:	432a      	orrs	r2, r5
 80007c4:	f020 0004 	bic.w	r0, r0, #4
 80007c8:	4302      	orrs	r2, r0
        CLEAR_BIT(hadc->Instance->CFGR2, ADC_CFGR2_ROVSE);
 80007ca:	611a      	str	r2, [r3, #16]
 80007cc:	e794      	b.n	80006f8 <HAL_ADC_Init+0xcc>
 80007ce:	bf00      	nop
 80007d0:	50040000 	.word	0x50040000
 80007d4:	50040100 	.word	0x50040100
 80007d8:	50040200 	.word	0x50040200
 80007dc:	50040300 	.word	0x50040300
 80007e0:	fff0c007 	.word	0xfff0c007
 80007e4:	00030d40 	.word	0x00030d40
 80007e8:	20000020 	.word	0x20000020

080007ec <HAL_ADC_GetValue>:

  /* Note: EOC flag is not cleared here by software because automatically     */
  /*       cleared by hardware when reading register DR.                      */
  
  /* Return ADC converted value */ 
  return hadc->Instance->DR;
 80007ec:	6803      	ldr	r3, [r0, #0]
 80007ee:	6c18      	ldr	r0, [r3, #64]	; 0x40
}
 80007f0:	4770      	bx	lr

080007f2 <HAL_ADC_LevelOutOfWindowCallback>:
 80007f2:	4770      	bx	lr

080007f4 <HAL_ADC_ErrorCallback>:
  *           (this function is also clearing overrun flag)
  * @param hadc ADC handle
  * @retval None
  */
__weak void HAL_ADC_ErrorCallback(ADC_HandleTypeDef *hadc)
{
 80007f4:	4770      	bx	lr
	...

080007f8 <HAL_ADC_IRQHandler>:
  uint32_t tmp_isr = hadc->Instance->ISR;
 80007f8:	6803      	ldr	r3, [r0, #0]
{
 80007fa:	e92d 41f0 	stmdb	sp!, {r4, r5, r6, r7, r8, lr}
  uint32_t tmp_isr = hadc->Instance->ISR;
 80007fe:	681d      	ldr	r5, [r3, #0]
  uint32_t tmp_ier = hadc->Instance->IER;
 8000800:	685e      	ldr	r6, [r3, #4]
  return (uint32_t)(READ_BIT(ADCxy_COMMON->CCR, ADC_CCR_DUAL));
 8000802:	4b8b      	ldr	r3, [pc, #556]	; (8000a30 <HAL_ADC_IRQHandler+0x238>)
 8000804:	689f      	ldr	r7, [r3, #8]
  if(((tmp_isr & ADC_FLAG_EOSMP) == ADC_FLAG_EOSMP) && ((tmp_ier & ADC_IT_EOSMP) == ADC_IT_EOSMP))
 8000806:	f015 0f02 	tst.w	r5, #2
{
 800080a:	4604      	mov	r4, r0
 800080c:	f007 071f 	and.w	r7, r7, #31
 8000810:	4698      	mov	r8, r3
  if(((tmp_isr & ADC_FLAG_EOSMP) == ADC_FLAG_EOSMP) && ((tmp_ier & ADC_IT_EOSMP) == ADC_IT_EOSMP))
 8000812:	d00e      	beq.n	8000832 <HAL_ADC_IRQHandler+0x3a>
 8000814:	07b0      	lsls	r0, r6, #30
 8000816:	d50c      	bpl.n	8000832 <HAL_ADC_IRQHandler+0x3a>
    if ((hadc->State & HAL_ADC_STATE_ERROR_INTERNAL) == 0UL)
 8000818:	6d63      	ldr	r3, [r4, #84]	; 0x54
 800081a:	06d9      	lsls	r1, r3, #27
      SET_BIT(hadc->State, HAL_ADC_STATE_REG_EOSMP);
 800081c:	bf5e      	ittt	pl
 800081e:	6d63      	ldrpl	r3, [r4, #84]	; 0x54
 8000820:	f443 6300 	orrpl.w	r3, r3, #2048	; 0x800
 8000824:	6563      	strpl	r3, [r4, #84]	; 0x54
    HAL_ADCEx_EndOfSamplingCallback(hadc);
 8000826:	4620      	mov	r0, r4
 8000828:	f000 fbd6 	bl	8000fd8 <HAL_ADCEx_EndOfSamplingCallback>
    __HAL_ADC_CLEAR_FLAG(hadc, ADC_FLAG_EOSMP );
 800082c:	6823      	ldr	r3, [r4, #0]
 800082e:	2202      	movs	r2, #2
 8000830:	601a      	str	r2, [r3, #0]
  if((((tmp_isr & ADC_FLAG_EOC) == ADC_FLAG_EOC) && ((tmp_ier & ADC_IT_EOC) == ADC_IT_EOC)) ||
 8000832:	076a      	lsls	r2, r5, #29
 8000834:	d501      	bpl.n	800083a <HAL_ADC_IRQHandler+0x42>
 8000836:	0773      	lsls	r3, r6, #29
 8000838:	d403      	bmi.n	8000842 <HAL_ADC_IRQHandler+0x4a>
 800083a:	0728      	lsls	r0, r5, #28
 800083c:	d539      	bpl.n	80008b2 <HAL_ADC_IRQHandler+0xba>
     (((tmp_isr & ADC_FLAG_EOS) == ADC_FLAG_EOS) && ((tmp_ier & ADC_IT_EOS) == ADC_IT_EOS))  )
 800083e:	0731      	lsls	r1, r6, #28
 8000840:	d537      	bpl.n	80008b2 <HAL_ADC_IRQHandler+0xba>
    if ((hadc->State & HAL_ADC_STATE_ERROR_INTERNAL) == 0UL)
 8000842:	6d63      	ldr	r3, [r4, #84]	; 0x54
    if(LL_ADC_REG_IsTriggerSourceSWStart(hadc->Instance) != 0UL)
 8000844:	6820      	ldr	r0, [r4, #0]
    if ((hadc->State & HAL_ADC_STATE_ERROR_INTERNAL) == 0UL)
 8000846:	06da      	lsls	r2, r3, #27
      SET_BIT(hadc->State, HAL_ADC_STATE_REG_EOC);
 8000848:	bf5e      	ittt	pl
 800084a:	6d63      	ldrpl	r3, [r4, #84]	; 0x54
 800084c:	f443 7300 	orrpl.w	r3, r3, #512	; 0x200
 8000850:	6563      	strpl	r3, [r4, #84]	; 0x54
  return ((READ_BIT(ADCx->CFGR, ADC_CFGR_EXTEN) == (LL_ADC_REG_TRIG_SOFTWARE & ADC_CFGR_EXTEN)) ? 1UL : 0UL);
 8000852:	68c3      	ldr	r3, [r0, #12]
 8000854:	f413 6f40 	tst.w	r3, #3072	; 0xc00
 8000858:	d125      	bne.n	80008a6 <HAL_ADC_IRQHandler+0xae>
      if (    (__LL_ADC_MULTI_INSTANCE_MASTER(hadc->Instance) == hadc->Instance)
 800085a:	4b76      	ldr	r3, [pc, #472]	; (8000a34 <HAL_ADC_IRQHandler+0x23c>)
 800085c:	4298      	cmp	r0, r3
 800085e:	d108      	bne.n	8000872 <HAL_ADC_IRQHandler+0x7a>
           || (tmp_multimode_config == LL_ADC_MULTI_INDEPENDENT)
 8000860:	2f09      	cmp	r7, #9
 8000862:	bf9d      	ittte	ls
 8000864:	f240 2321 	movwls	r3, #545	; 0x221
 8000868:	40fb      	lsrls	r3, r7
 800086a:	43db      	mvnls	r3, r3
 800086c:	2301      	movhi	r3, #1
 800086e:	07da      	lsls	r2, r3, #31
 8000870:	d455      	bmi.n	800091e <HAL_ADC_IRQHandler+0x126>
        tmp_cfgr = READ_REG(hadc->Instance->CFGR);
 8000872:	68c3      	ldr	r3, [r0, #12]
      if (READ_BIT (tmp_cfgr, ADC_CFGR_CONT) != ADC_CFGR_CONT)
 8000874:	049b      	lsls	r3, r3, #18
 8000876:	d416      	bmi.n	80008a6 <HAL_ADC_IRQHandler+0xae>
        if( __HAL_ADC_GET_FLAG(hadc, ADC_FLAG_EOS) )
 8000878:	6803      	ldr	r3, [r0, #0]
 800087a:	0719      	lsls	r1, r3, #28
 800087c:	d513      	bpl.n	80008a6 <HAL_ADC_IRQHandler+0xae>
          if (LL_ADC_REG_IsConversionOngoing(hadc->Instance) == 0UL)
 800087e:	f7ff fed1 	bl	8000624 <LL_ADC_REG_IsConversionOngoing>
 8000882:	2800      	cmp	r0, #0
 8000884:	d14e      	bne.n	8000924 <HAL_ADC_IRQHandler+0x12c>
            __HAL_ADC_DISABLE_IT(hadc, ADC_IT_EOC | ADC_IT_EOS);
 8000886:	6822      	ldr	r2, [r4, #0]
 8000888:	6853      	ldr	r3, [r2, #4]
 800088a:	f023 030c 	bic.w	r3, r3, #12
 800088e:	6053      	str	r3, [r2, #4]
            CLEAR_BIT(hadc->State, HAL_ADC_STATE_REG_BUSY);
 8000890:	6d63      	ldr	r3, [r4, #84]	; 0x54
 8000892:	f423 7380 	bic.w	r3, r3, #256	; 0x100
 8000896:	6563      	str	r3, [r4, #84]	; 0x54
            if ((hadc->State & HAL_ADC_STATE_INJ_BUSY) == 0UL)
 8000898:	6d63      	ldr	r3, [r4, #84]	; 0x54
 800089a:	04da      	lsls	r2, r3, #19
 800089c:	d403      	bmi.n	80008a6 <HAL_ADC_IRQHandler+0xae>
              SET_BIT(hadc->State, HAL_ADC_STATE_READY);
 800089e:	6d63      	ldr	r3, [r4, #84]	; 0x54
 80008a0:	f043 0301 	orr.w	r3, r3, #1
 80008a4:	6563      	str	r3, [r4, #84]	; 0x54
    HAL_ADC_ConvCpltCallback(hadc);
 80008a6:	4620      	mov	r0, r4
 80008a8:	f003 fbaa 	bl	8004000 <HAL_ADC_ConvCpltCallback>
    __HAL_ADC_CLEAR_FLAG(hadc, (ADC_FLAG_EOC | ADC_FLAG_EOS) );
 80008ac:	6823      	ldr	r3, [r4, #0]
 80008ae:	220c      	movs	r2, #12
 80008b0:	601a      	str	r2, [r3, #0]
  if( (((tmp_isr & ADC_FLAG_JEOC) == ADC_FLAG_JEOC) && ((tmp_ier & ADC_IT_JEOC) == ADC_IT_JEOC)) ||
 80008b2:	06ab      	lsls	r3, r5, #26
 80008b4:	d501      	bpl.n	80008ba <HAL_ADC_IRQHandler+0xc2>
 80008b6:	06b0      	lsls	r0, r6, #26
 80008b8:	d403      	bmi.n	80008c2 <HAL_ADC_IRQHandler+0xca>
 80008ba:	0669      	lsls	r1, r5, #25
 80008bc:	d558      	bpl.n	8000970 <HAL_ADC_IRQHandler+0x178>
      (((tmp_isr & ADC_FLAG_JEOS) == ADC_FLAG_JEOS) && ((tmp_ier & ADC_IT_JEOS) == ADC_IT_JEOS))  )      
 80008be:	0672      	lsls	r2, r6, #25
 80008c0:	d556      	bpl.n	8000970 <HAL_ADC_IRQHandler+0x178>
    if ((hadc->State & HAL_ADC_STATE_ERROR_INTERNAL) == 0UL)
 80008c2:	6d63      	ldr	r3, [r4, #84]	; 0x54
    if (    (__LL_ADC_MULTI_INSTANCE_MASTER(hadc->Instance) == hadc->Instance)
 80008c4:	4a5b      	ldr	r2, [pc, #364]	; (8000a34 <HAL_ADC_IRQHandler+0x23c>)
    if ((hadc->State & HAL_ADC_STATE_ERROR_INTERNAL) == 0UL)
 80008c6:	06db      	lsls	r3, r3, #27
      SET_BIT(hadc->State, HAL_ADC_STATE_INJ_EOC);
 80008c8:	bf5e      	ittt	pl
 80008ca:	6d63      	ldrpl	r3, [r4, #84]	; 0x54
 80008cc:	f443 5300 	orrpl.w	r3, r3, #8192	; 0x2000
 80008d0:	6563      	strpl	r3, [r4, #84]	; 0x54
    tmp_adc_inj_is_trigger_source_sw_start = LL_ADC_INJ_IsTriggerSourceSWStart(hadc->Instance);
 80008d2:	6823      	ldr	r3, [r4, #0]
  return ((READ_BIT(ADCx->JSQR, ADC_JSQR_JEXTEN) == (LL_ADC_INJ_TRIG_SOFTWARE & ADC_JSQR_JEXTEN)) ? 1UL : 0UL);
 80008d4:	6cd8      	ldr	r0, [r3, #76]	; 0x4c
  return ((READ_BIT(ADCx->CFGR, ADC_CFGR_EXTEN) == (LL_ADC_REG_TRIG_SOFTWARE & ADC_CFGR_EXTEN)) ? 1UL : 0UL);
 80008d6:	68d9      	ldr	r1, [r3, #12]
    if (    (__LL_ADC_MULTI_INSTANCE_MASTER(hadc->Instance) == hadc->Instance)
 80008d8:	4293      	cmp	r3, r2
  return ((READ_BIT(ADCx->JSQR, ADC_JSQR_JEXTEN) == (LL_ADC_INJ_TRIG_SOFTWARE & ADC_JSQR_JEXTEN)) ? 1UL : 0UL);
 80008da:	f000 00c0 	and.w	r0, r0, #192	; 0xc0
  return ((READ_BIT(ADCx->CFGR, ADC_CFGR_EXTEN) == (LL_ADC_REG_TRIG_SOFTWARE & ADC_CFGR_EXTEN)) ? 1UL : 0UL);
 80008de:	f401 6140 	and.w	r1, r1, #3072	; 0xc00
 80008e2:	d103      	bne.n	80008ec <HAL_ADC_IRQHandler+0xf4>
         || (tmp_multimode_config == LL_ADC_MULTI_INDEPENDENT)
 80008e4:	b117      	cbz	r7, 80008ec <HAL_ADC_IRQHandler+0xf4>
         || (tmp_multimode_config == LL_ADC_MULTI_DUAL_REG_SIMULT)
 80008e6:	1fba      	subs	r2, r7, #6
 80008e8:	2a01      	cmp	r2, #1
 80008ea:	d824      	bhi.n	8000936 <HAL_ADC_IRQHandler+0x13e>
      tmp_cfgr = READ_REG(hadc->Instance->CFGR);
 80008ec:	68da      	ldr	r2, [r3, #12]
    if((tmp_adc_inj_is_trigger_source_sw_start != 0UL)            ||
 80008ee:	b128      	cbz	r0, 80008fc <HAL_ADC_IRQHandler+0x104>
 80008f0:	0190      	lsls	r0, r2, #6
 80008f2:	d437      	bmi.n	8000964 <HAL_ADC_IRQHandler+0x16c>
       ((READ_BIT (tmp_cfgr, ADC_CFGR_JAUTO) == 0UL)      &&
 80008f4:	2900      	cmp	r1, #0
 80008f6:	d135      	bne.n	8000964 <HAL_ADC_IRQHandler+0x16c>
        ((tmp_adc_reg_is_trigger_source_sw_start != 0UL)  &&
 80008f8:	0491      	lsls	r1, r2, #18
 80008fa:	d433      	bmi.n	8000964 <HAL_ADC_IRQHandler+0x16c>
      if(__HAL_ADC_GET_FLAG(hadc, ADC_FLAG_JEOS))
 80008fc:	6819      	ldr	r1, [r3, #0]
 80008fe:	0648      	lsls	r0, r1, #25
 8000900:	d530      	bpl.n	8000964 <HAL_ADC_IRQHandler+0x16c>
        if(READ_BIT(tmp_cfgr, ADC_CFGR_JQM) == 0UL)
 8000902:	0291      	lsls	r1, r2, #10
 8000904:	d42e      	bmi.n	8000964 <HAL_ADC_IRQHandler+0x16c>
  return ((READ_BIT(ADCx->CR, ADC_CR_JADSTART) == (ADC_CR_JADSTART)) ? 1UL : 0UL);
 8000906:	689a      	ldr	r2, [r3, #8]
 8000908:	0712      	lsls	r2, r2, #28
 800090a:	d51c      	bpl.n	8000946 <HAL_ADC_IRQHandler+0x14e>
            SET_BIT(hadc->State, HAL_ADC_STATE_ERROR_INTERNAL);
 800090c:	6d63      	ldr	r3, [r4, #84]	; 0x54
 800090e:	f043 0310 	orr.w	r3, r3, #16
 8000912:	6563      	str	r3, [r4, #84]	; 0x54
            SET_BIT(hadc->ErrorCode, HAL_ADC_ERROR_INTERNAL);
 8000914:	6da3      	ldr	r3, [r4, #88]	; 0x58
 8000916:	f043 0301 	orr.w	r3, r3, #1
 800091a:	65a3      	str	r3, [r4, #88]	; 0x58
 800091c:	e022      	b.n	8000964 <HAL_ADC_IRQHandler+0x16c>
        tmp_cfgr = READ_REG(tmpADC_Master->CFGR);
 800091e:	4b46      	ldr	r3, [pc, #280]	; (8000a38 <HAL_ADC_IRQHandler+0x240>)
 8000920:	68db      	ldr	r3, [r3, #12]
 8000922:	e7a7      	b.n	8000874 <HAL_ADC_IRQHandler+0x7c>
            SET_BIT(hadc->State, HAL_ADC_STATE_ERROR_INTERNAL);
 8000924:	6d63      	ldr	r3, [r4, #84]	; 0x54
 8000926:	f043 0310 	orr.w	r3, r3, #16
 800092a:	6563      	str	r3, [r4, #84]	; 0x54
            SET_BIT(hadc->ErrorCode, HAL_ADC_ERROR_INTERNAL);
 800092c:	6da3      	ldr	r3, [r4, #88]	; 0x58
 800092e:	f043 0301 	orr.w	r3, r3, #1
 8000932:	65a3      	str	r3, [r4, #88]	; 0x58
 8000934:	e7b7      	b.n	80008a6 <HAL_ADC_IRQHandler+0xae>
      tmp_cfgr = READ_REG(tmpADC_Master->CFGR);
 8000936:	4a40      	ldr	r2, [pc, #256]	; (8000a38 <HAL_ADC_IRQHandler+0x240>)
 8000938:	68d2      	ldr	r2, [r2, #12]
 800093a:	e7d8      	b.n	80008ee <HAL_ADC_IRQHandler+0xf6>
        if ((hadc->Instance->CFGR & ADC_CFGR_DMAEN) != 0UL)
 800093c:	6823      	ldr	r3, [r4, #0]
 800093e:	68db      	ldr	r3, [r3, #12]
 8000940:	f013 0f01 	tst.w	r3, #1
 8000944:	e04c      	b.n	80009e0 <HAL_ADC_IRQHandler+0x1e8>
            __HAL_ADC_DISABLE_IT(hadc, ADC_IT_JEOC | ADC_IT_JEOS);
 8000946:	685a      	ldr	r2, [r3, #4]
 8000948:	f022 0260 	bic.w	r2, r2, #96	; 0x60
 800094c:	605a      	str	r2, [r3, #4]
            CLEAR_BIT(hadc->State, HAL_ADC_STATE_INJ_BUSY);
 800094e:	6d63      	ldr	r3, [r4, #84]	; 0x54
 8000950:	f423 5380 	bic.w	r3, r3, #4096	; 0x1000
 8000954:	6563      	str	r3, [r4, #84]	; 0x54
            if ((hadc->State & HAL_ADC_STATE_REG_BUSY) == 0UL)
 8000956:	6d63      	ldr	r3, [r4, #84]	; 0x54
 8000958:	05db      	lsls	r3, r3, #23
 800095a:	d403      	bmi.n	8000964 <HAL_ADC_IRQHandler+0x16c>
              SET_BIT(hadc->State, HAL_ADC_STATE_READY);
 800095c:	6d63      	ldr	r3, [r4, #84]	; 0x54
 800095e:	f043 0301 	orr.w	r3, r3, #1
 8000962:	6563      	str	r3, [r4, #84]	; 0x54
    HAL_ADCEx_InjectedConvCpltCallback(hadc);
 8000964:	4620      	mov	r0, r4
 8000966:	f000 fb33 	bl	8000fd0 <HAL_ADCEx_InjectedConvCpltCallback>
    __HAL_ADC_CLEAR_FLAG(hadc, ADC_FLAG_JEOC | ADC_FLAG_JEOS);
 800096a:	6823      	ldr	r3, [r4, #0]
 800096c:	2260      	movs	r2, #96	; 0x60
 800096e:	601a      	str	r2, [r3, #0]
  if (((tmp_isr & ADC_FLAG_AWD1) == ADC_FLAG_AWD1) && ((tmp_ier & ADC_IT_AWD1) == ADC_IT_AWD1))      
 8000970:	0628      	lsls	r0, r5, #24
 8000972:	d50b      	bpl.n	800098c <HAL_ADC_IRQHandler+0x194>
 8000974:	0631      	lsls	r1, r6, #24
 8000976:	d509      	bpl.n	800098c <HAL_ADC_IRQHandler+0x194>
    SET_BIT(hadc->State, HAL_ADC_STATE_AWD1);
 8000978:	6d63      	ldr	r3, [r4, #84]	; 0x54
 800097a:	f443 3380 	orr.w	r3, r3, #65536	; 0x10000
 800097e:	6563      	str	r3, [r4, #84]	; 0x54
    HAL_ADC_LevelOutOfWindowCallback(hadc);
 8000980:	4620      	mov	r0, r4
 8000982:	f7ff ff36 	bl	80007f2 <HAL_ADC_LevelOutOfWindowCallback>
    __HAL_ADC_CLEAR_FLAG(hadc, ADC_FLAG_AWD1);
 8000986:	6823      	ldr	r3, [r4, #0]
 8000988:	2280      	movs	r2, #128	; 0x80
 800098a:	601a      	str	r2, [r3, #0]
  if (((tmp_isr & ADC_FLAG_AWD2) == ADC_FLAG_AWD2) && ((tmp_ier & ADC_IT_AWD2) == ADC_IT_AWD2))      
 800098c:	05ea      	lsls	r2, r5, #23
 800098e:	d50c      	bpl.n	80009aa <HAL_ADC_IRQHandler+0x1b2>
 8000990:	05f3      	lsls	r3, r6, #23
 8000992:	d50a      	bpl.n	80009aa <HAL_ADC_IRQHandler+0x1b2>
    SET_BIT(hadc->State, HAL_ADC_STATE_AWD2);
 8000994:	6d63      	ldr	r3, [r4, #84]	; 0x54
 8000996:	f443 3300 	orr.w	r3, r3, #131072	; 0x20000
 800099a:	6563      	str	r3, [r4, #84]	; 0x54
    HAL_ADCEx_LevelOutOfWindow2Callback(hadc);
 800099c:	4620      	mov	r0, r4
 800099e:	f000 fb19 	bl	8000fd4 <HAL_ADCEx_LevelOutOfWindow2Callback>
    __HAL_ADC_CLEAR_FLAG(hadc, ADC_FLAG_AWD2);
 80009a2:	6823      	ldr	r3, [r4, #0]
 80009a4:	f44f 7280 	mov.w	r2, #256	; 0x100
 80009a8:	601a      	str	r2, [r3, #0]
  if (((tmp_isr & ADC_FLAG_AWD3) == ADC_FLAG_AWD3) && ((tmp_ier & ADC_IT_AWD3) == ADC_IT_AWD3))      
 80009aa:	05a8      	lsls	r0, r5, #22
 80009ac:	d50c      	bpl.n	80009c8 <HAL_ADC_IRQHandler+0x1d0>
 80009ae:	05b1      	lsls	r1, r6, #22
 80009b0:	d50a      	bpl.n	80009c8 <HAL_ADC_IRQHandler+0x1d0>
    SET_BIT(hadc->State, HAL_ADC_STATE_AWD3);
 80009b2:	6d63      	ldr	r3, [r4, #84]	; 0x54
 80009b4:	f443 2380 	orr.w	r3, r3, #262144	; 0x40000
 80009b8:	6563      	str	r3, [r4, #84]	; 0x54
    HAL_ADCEx_LevelOutOfWindow3Callback(hadc);
 80009ba:	4620      	mov	r0, r4
 80009bc:	f000 fb0b 	bl	8000fd6 <HAL_ADCEx_LevelOutOfWindow3Callback>
    __HAL_ADC_CLEAR_FLAG(hadc, ADC_FLAG_AWD3);
 80009c0:	6823      	ldr	r3, [r4, #0]
 80009c2:	f44f 7200 	mov.w	r2, #512	; 0x200
 80009c6:	601a      	str	r2, [r3, #0]
  if (((tmp_isr & ADC_FLAG_OVR) == ADC_FLAG_OVR) && ((tmp_ier & ADC_IT_OVR) == ADC_IT_OVR)) 
 80009c8:	06ea      	lsls	r2, r5, #27
 80009ca:	d50d      	bpl.n	80009e8 <HAL_ADC_IRQHandler+0x1f0>
 80009cc:	06f3      	lsls	r3, r6, #27
 80009ce:	d50b      	bpl.n	80009e8 <HAL_ADC_IRQHandler+0x1f0>
    if (hadc->Init.Overrun == ADC_OVR_DATA_PRESERVED)
 80009d0:	6b63      	ldr	r3, [r4, #52]	; 0x34
 80009d2:	b1f3      	cbz	r3, 8000a12 <HAL_ADC_IRQHandler+0x21a>
      if (tmp_multimode_config != LL_ADC_MULTI_INDEPENDENT)
 80009d4:	2f00      	cmp	r7, #0
 80009d6:	d0b1      	beq.n	800093c <HAL_ADC_IRQHandler+0x144>
  return (uint32_t)(READ_BIT(ADCxy_COMMON->CCR, ADC_CCR_MDMA | ADC_CCR_DMACFG));
 80009d8:	f8d8 3008 	ldr.w	r3, [r8, #8]
        if (LL_ADC_GetMultiDMATransfer(__LL_ADC_COMMON_INSTANCE(hadc->Instance)) != LL_ADC_MULTI_REG_DMA_EACH_ADC)
 80009dc:	f413 4f60 	tst.w	r3, #57344	; 0xe000
        if ((hadc->Instance->CFGR & ADC_CFGR_DMAEN) != 0UL)
 80009e0:	d117      	bne.n	8000a12 <HAL_ADC_IRQHandler+0x21a>
    __HAL_ADC_CLEAR_FLAG(hadc, ADC_FLAG_OVR);
 80009e2:	6823      	ldr	r3, [r4, #0]
 80009e4:	2210      	movs	r2, #16
 80009e6:	601a      	str	r2, [r3, #0]
  if (((tmp_isr & ADC_FLAG_JQOVF) == ADC_FLAG_JQOVF) && ((tmp_ier & ADC_IT_JQOVF) == ADC_IT_JQOVF)) 
 80009e8:	0568      	lsls	r0, r5, #21
 80009ea:	d51e      	bpl.n	8000a2a <HAL_ADC_IRQHandler+0x232>
 80009ec:	0571      	lsls	r1, r6, #21
 80009ee:	d51c      	bpl.n	8000a2a <HAL_ADC_IRQHandler+0x232>
    SET_BIT(hadc->State, HAL_ADC_STATE_INJ_JQOVF);
 80009f0:	6d63      	ldr	r3, [r4, #84]	; 0x54
 80009f2:	f443 4380 	orr.w	r3, r3, #16384	; 0x4000
 80009f6:	6563      	str	r3, [r4, #84]	; 0x54
    SET_BIT(hadc->ErrorCode, HAL_ADC_ERROR_JQOVF);
 80009f8:	6da3      	ldr	r3, [r4, #88]	; 0x58
 80009fa:	f043 0308 	orr.w	r3, r3, #8
 80009fe:	65a3      	str	r3, [r4, #88]	; 0x58
    __HAL_ADC_CLEAR_FLAG(hadc, ADC_FLAG_JQOVF);
 8000a00:	6823      	ldr	r3, [r4, #0]
 8000a02:	f44f 6280 	mov.w	r2, #1024	; 0x400
    HAL_ADCEx_InjectedQueueOverflowCallback(hadc);
 8000a06:	4620      	mov	r0, r4
    __HAL_ADC_CLEAR_FLAG(hadc, ADC_FLAG_JQOVF);
 8000a08:	601a      	str	r2, [r3, #0]
}
 8000a0a:	e8bd 41f0 	ldmia.w	sp!, {r4, r5, r6, r7, r8, lr}
    HAL_ADCEx_InjectedQueueOverflowCallback(hadc);
 8000a0e:	f000 bae0 	b.w	8000fd2 <HAL_ADCEx_InjectedQueueOverflowCallback>
      SET_BIT(hadc->State, HAL_ADC_STATE_REG_OVR);
 8000a12:	6d63      	ldr	r3, [r4, #84]	; 0x54
 8000a14:	f443 6380 	orr.w	r3, r3, #1024	; 0x400
 8000a18:	6563      	str	r3, [r4, #84]	; 0x54
      SET_BIT(hadc->ErrorCode, HAL_ADC_ERROR_OVR);
 8000a1a:	6da3      	ldr	r3, [r4, #88]	; 0x58
 8000a1c:	f043 0302 	orr.w	r3, r3, #2
 8000a20:	65a3      	str	r3, [r4, #88]	; 0x58
      HAL_ADC_ErrorCallback(hadc);
 8000a22:	4620      	mov	r0, r4
 8000a24:	f7ff fee6 	bl	80007f4 <HAL_ADC_ErrorCallback>
 8000a28:	e7db      	b.n	80009e2 <HAL_ADC_IRQHandler+0x1ea>
 8000a2a:	e8bd 81f0 	ldmia.w	sp!, {r4, r5, r6, r7, r8, pc}
 8000a2e:	bf00      	nop
 8000a30:	50040300 	.word	0x50040300
 8000a34:	50040100 	.word	0x50040100
 8000a38:	50040000 	.word	0x50040000

08000a3c <HAL_ADC_ConfigChannel>:
  * @param hadc ADC handle
  * @param sConfig Structure of ADC channel assigned to ADC group regular.
  * @retval HAL status
  */
HAL_StatusTypeDef HAL_ADC_ConfigChannel(ADC_HandleTypeDef* hadc, ADC_ChannelConfTypeDef* sConfig)
{
 8000a3c:	b5f7      	push	{r0, r1, r2, r4, r5, r6, r7, lr}
  HAL_StatusTypeDef tmp_hal_status = HAL_OK;
  uint32_t tmpOffsetShifted;
  uint32_t tmp_config_internal_channel;
  __IO uint32_t wait_loop_index = 0;
 8000a3e:	2300      	movs	r3, #0
 8000a40:	9301      	str	r3, [sp, #4]
  {
    assert_param(IS_ADC_DIFF_CHANNEL(hadc, sConfig->Channel));
  }
  
  /* Process locked */
  __HAL_LOCK(hadc);
 8000a42:	f890 3050 	ldrb.w	r3, [r0, #80]	; 0x50
 8000a46:	2b01      	cmp	r3, #1
{
 8000a48:	4605      	mov	r5, r0
 8000a4a:	460c      	mov	r4, r1
  __HAL_LOCK(hadc);
 8000a4c:	f000 8187 	beq.w	8000d5e <HAL_ADC_ConfigChannel+0x322>
 8000a50:	2301      	movs	r3, #1
 8000a52:	f880 3050 	strb.w	r3, [r0, #80]	; 0x50
  /* Parameters update conditioned to ADC state:                              */
  /* Parameters that can be updated when ADC is disabled or enabled without   */
  /* conversion on going on regular group:                                    */
  /*  - Channel number                                                        */
  /*  - Channel rank                                                          */
  if (LL_ADC_REG_IsConversionOngoing(hadc->Instance) == 0UL)
 8000a56:	6800      	ldr	r0, [r0, #0]
 8000a58:	f7ff fde4 	bl	8000624 <LL_ADC_REG_IsConversionOngoing>
 8000a5c:	2800      	cmp	r0, #0
 8000a5e:	f040 8178 	bne.w	8000d52 <HAL_ADC_ConfigChannel+0x316>
    /* Correspondence for compatibility with legacy definition of             */
    /* sequencer ranks in direct number format. This correspondence can       */
    /* be done only on ranks 1 to 5 due to literal values.                    */
    /* Note: Sequencer ranks in direct number format are no more used         */
    /*       and are detected by activating USE_FULL_ASSERT feature.          */
    if (sConfig->Rank <= 5U)
 8000a62:	684b      	ldr	r3, [r1, #4]
 8000a64:	2b05      	cmp	r3, #5
 8000a66:	d808      	bhi.n	8000a7a <HAL_ADC_ConfigChannel+0x3e>
    {
      switch (sConfig->Rank)
 8000a68:	3b02      	subs	r3, #2
 8000a6a:	2b03      	cmp	r3, #3
 8000a6c:	d865      	bhi.n	8000b3a <HAL_ADC_ConfigChannel+0xfe>
 8000a6e:	e8df f003 	tbb	[pc, r3]
 8000a72:	5d02      	.short	0x5d02
 8000a74:	615f      	.short	0x615f
      {
        case 2U: sConfig->Rank = ADC_REGULAR_RANK_2; break;
 8000a76:	230c      	movs	r3, #12
        case 3U: sConfig->Rank = ADC_REGULAR_RANK_3; break;
        case 4U: sConfig->Rank = ADC_REGULAR_RANK_4; break;
        case 5U: sConfig->Rank = ADC_REGULAR_RANK_5; break;
        /* case 1U */
        default: sConfig->Rank = ADC_REGULAR_RANK_1; break;
 8000a78:	6063      	str	r3, [r4, #4]
      }
    }
    #endif
    
    /* Set ADC group regular sequence: channel on the selected scan sequence rank */
    LL_ADC_REG_SetSequencerRanks(hadc->Instance, sConfig->Rank, sConfig->Channel);
 8000a7a:	6861      	ldr	r1, [r4, #4]
 8000a7c:	6828      	ldr	r0, [r5, #0]
  register uint32_t *preg = __ADC_PTR_REG_OFFSET(ADCx->SQR1, ((Rank & ADC_REG_SQRX_REGOFFSET_MASK) >> ADC_SQRX_REGOFFSET_POS));
 8000a7e:	098e      	lsrs	r6, r1, #6
 8000a80:	f100 0730 	add.w	r7, r0, #48	; 0x30
 8000a84:	f006 060c 	and.w	r6, r6, #12
  MODIFY_REG(*preg,
 8000a88:	f001 011f 	and.w	r1, r1, #31
 8000a8c:	231f      	movs	r3, #31
 8000a8e:	fa03 f201 	lsl.w	r2, r3, r1
 8000a92:	59f3      	ldr	r3, [r6, r7]
 8000a94:	ea23 0302 	bic.w	r3, r3, r2
 8000a98:	6822      	ldr	r2, [r4, #0]
 8000a9a:	f3c2 6284 	ubfx	r2, r2, #26, #5
 8000a9e:	408a      	lsls	r2, r1
 8000aa0:	4313      	orrs	r3, r2
 8000aa2:	51f3      	str	r3, [r6, r7]
    /* Parameters update conditioned to ADC state:                              */
    /* Parameters that can be updated when ADC is disabled or enabled without   */
    /* conversion on going on regular group:                                    */
    /*  - Channel sampling time                                                 */
    /*  - Channel offset                                                        */
    tmp_adc_is_conversion_on_going_regular = LL_ADC_REG_IsConversionOngoing(hadc->Instance);
 8000aa4:	f7ff fdbe 	bl	8000624 <LL_ADC_REG_IsConversionOngoing>
    tmp_adc_is_conversion_on_going_injected = LL_ADC_INJ_IsConversionOngoing(hadc->Instance);
 8000aa8:	682b      	ldr	r3, [r5, #0]
  return ((READ_BIT(ADCx->CR, ADC_CR_JADSTART) == (ADC_CR_JADSTART)) ? 1UL : 0UL);
 8000aaa:	689a      	ldr	r2, [r3, #8]
 8000aac:	0711      	lsls	r1, r2, #28
 8000aae:	f140 8158 	bpl.w	8000d62 <HAL_ADC_ConfigChannel+0x326>
    }
    
    /* Parameters update conditioned to ADC state:                              */
    /* Parameters that can be updated only when ADC is disabled:                */
    /*  - Single or differential mode                                           */
    if (LL_ADC_IsEnabled(hadc->Instance) == 0UL)
 8000ab2:	6828      	ldr	r0, [r5, #0]
 8000ab4:	f7ff fdb2 	bl	800061c <LL_ADC_IsEnabled>
 8000ab8:	2800      	cmp	r0, #0
 8000aba:	f040 80d7 	bne.w	8000c6c <HAL_ADC_ConfigChannel+0x230>
    {
      /* Set mode single-ended or differential input of the selected ADC channel */
      LL_ADC_SetChannelSingleDiff(hadc->Instance, sConfig->Channel, sConfig->SingleDiff);
 8000abe:	68e6      	ldr	r6, [r4, #12]
 8000ac0:	6828      	ldr	r0, [r5, #0]
 8000ac2:	6823      	ldr	r3, [r4, #0]
  MODIFY_REG(ADCx->DIFSEL,
 8000ac4:	4ac3      	ldr	r2, [pc, #780]	; (8000dd4 <HAL_ADC_ConfigChannel+0x398>)
 8000ac6:	f8d0 10b0 	ldr.w	r1, [r0, #176]	; 0xb0
 8000aca:	f006 0e18 	and.w	lr, r6, #24
 8000ace:	f3c3 0712 	ubfx	r7, r3, #0, #19
 8000ad2:	fa22 f20e 	lsr.w	r2, r2, lr
 8000ad6:	401a      	ands	r2, r3
 8000ad8:	ea21 0107 	bic.w	r1, r1, r7
 8000adc:	430a      	orrs	r2, r1
 8000ade:	f8c0 20b0 	str.w	r2, [r0, #176]	; 0xb0
      
      /* Configuration of differential mode */
      if (sConfig->SingleDiff == ADC_DIFFERENTIAL_ENDED)
 8000ae2:	4abd      	ldr	r2, [pc, #756]	; (8000dd8 <HAL_ADC_ConfigChannel+0x39c>)
 8000ae4:	4296      	cmp	r6, r2
 8000ae6:	f040 80c1 	bne.w	8000c6c <HAL_ADC_ConfigChannel+0x230>
      {
        /* Set sampling time of the selected ADC channel */
        /* Note: ADC channel number masked with value "0x1F" to ensure shift value within 32 bits range */
        LL_ADC_SetChannelSamplingTime(hadc->Instance, __LL_ADC_DECIMAL_NB_TO_CHANNEL((__LL_ADC_CHANNEL_TO_DECIMAL_NB(sConfig->Channel) + 1UL) & 0x1FUL), sConfig->SamplingTime);
 8000aea:	2f00      	cmp	r7, #0
 8000aec:	f040 8093 	bne.w	8000c16 <HAL_ADC_ConfigChannel+0x1da>
 8000af0:	0e9e      	lsrs	r6, r3, #26
 8000af2:	3601      	adds	r6, #1
 8000af4:	f006 021f 	and.w	r2, r6, #31
 8000af8:	2a09      	cmp	r2, #9
 8000afa:	f04f 0101 	mov.w	r1, #1
 8000afe:	ea4f 6686 	mov.w	r6, r6, lsl #26
 8000b02:	f240 80a2 	bls.w	8000c4a <HAL_ADC_ConfigChannel+0x20e>
 8000b06:	f006 46f8 	and.w	r6, r6, #2080374784	; 0x7c000000
 8000b0a:	4091      	lsls	r1, r2
 8000b0c:	ea41 0206 	orr.w	r2, r1, r6
 8000b10:	2f00      	cmp	r7, #0
 8000b12:	f040 80cb 	bne.w	8000cac <HAL_ADC_ConfigChannel+0x270>
 8000b16:	0e9b      	lsrs	r3, r3, #26
 8000b18:	3301      	adds	r3, #1
 8000b1a:	f003 031f 	and.w	r3, r3, #31
 8000b1e:	eb03 0143 	add.w	r1, r3, r3, lsl #1
 8000b22:	391e      	subs	r1, #30
 8000b24:	0509      	lsls	r1, r1, #20
 8000b26:	f041 7100 	orr.w	r1, r1, #33554432	; 0x2000000
 8000b2a:	e09b      	b.n	8000c64 <HAL_ADC_ConfigChannel+0x228>
        case 3U: sConfig->Rank = ADC_REGULAR_RANK_3; break;
 8000b2c:	2312      	movs	r3, #18
 8000b2e:	e7a3      	b.n	8000a78 <HAL_ADC_ConfigChannel+0x3c>
        case 4U: sConfig->Rank = ADC_REGULAR_RANK_4; break;
 8000b30:	2318      	movs	r3, #24
 8000b32:	e7a1      	b.n	8000a78 <HAL_ADC_ConfigChannel+0x3c>
        case 5U: sConfig->Rank = ADC_REGULAR_RANK_5; break;
 8000b34:	f44f 7380 	mov.w	r3, #256	; 0x100
 8000b38:	e79e      	b.n	8000a78 <HAL_ADC_ConfigChannel+0x3c>
        default: sConfig->Rank = ADC_REGULAR_RANK_1; break;
 8000b3a:	2306      	movs	r3, #6
 8000b3c:	e79c      	b.n	8000a78 <HAL_ADC_ConfigChannel+0x3c>
  return (uint32_t) READ_BIT(*preg, ADC_OFR1_OFFSET1_CH);
 8000b3e:	f8de 1060 	ldr.w	r1, [lr, #96]	; 0x60
        if(__LL_ADC_CHANNEL_TO_DECIMAL_NB(LL_ADC_GetOffsetChannel(hadc->Instance, LL_ADC_OFFSET_1)) == __LL_ADC_CHANNEL_TO_DECIMAL_NB(sConfig->Channel))
 8000b42:	f3c3 0012 	ubfx	r0, r3, #0, #19
 8000b46:	f3c1 6784 	ubfx	r7, r1, #26, #5
 8000b4a:	f10e 0664 	add.w	r6, lr, #100	; 0x64
 8000b4e:	2800      	cmp	r0, #0
 8000b50:	d13a      	bne.n	8000bc8 <HAL_ADC_ConfigChannel+0x18c>
 8000b52:	f3c3 6084 	ubfx	r0, r3, #26, #5
 8000b56:	4287      	cmp	r7, r0
 8000b58:	f040 8128 	bne.w	8000dac <HAL_ADC_ConfigChannel+0x370>
  MODIFY_REG(*preg,
 8000b5c:	f021 4100 	bic.w	r1, r1, #2147483648	; 0x80000000
 8000b60:	f8ce 1060 	str.w	r1, [lr, #96]	; 0x60
        if(__LL_ADC_CHANNEL_TO_DECIMAL_NB(LL_ADC_GetOffsetChannel(hadc->Instance, LL_ADC_OFFSET_2)) == __LL_ADC_CHANNEL_TO_DECIMAL_NB(sConfig->Channel))
 8000b64:	6823      	ldr	r3, [r4, #0]
  return (uint32_t) READ_BIT(*preg, ADC_OFR1_OFFSET1_CH);
 8000b66:	f8de 1064 	ldr.w	r1, [lr, #100]	; 0x64
 8000b6a:	f3c3 0712 	ubfx	r7, r3, #0, #19
 8000b6e:	f3c1 6084 	ubfx	r0, r1, #26, #5
 8000b72:	bb9f      	cbnz	r7, 8000bdc <HAL_ADC_ConfigChannel+0x1a0>
 8000b74:	f3c3 6384 	ubfx	r3, r3, #26, #5
 8000b78:	4283      	cmp	r3, r0
 8000b7a:	f040 811c 	bne.w	8000db6 <HAL_ADC_ConfigChannel+0x37a>
  MODIFY_REG(*preg,
 8000b7e:	f021 4100 	bic.w	r1, r1, #2147483648	; 0x80000000
 8000b82:	6031      	str	r1, [r6, #0]
        if(__LL_ADC_CHANNEL_TO_DECIMAL_NB(LL_ADC_GetOffsetChannel(hadc->Instance, LL_ADC_OFFSET_3)) == __LL_ADC_CHANNEL_TO_DECIMAL_NB(sConfig->Channel))
 8000b84:	6823      	ldr	r3, [r4, #0]
  return (uint32_t) READ_BIT(*preg, ADC_OFR1_OFFSET1_CH);
 8000b86:	6891      	ldr	r1, [r2, #8]
 8000b88:	f3c3 0712 	ubfx	r7, r3, #0, #19
  register const uint32_t *preg = __ADC_PTR_REG_OFFSET(ADCx->OFR1, Offsety);
 8000b8c:	f102 0608 	add.w	r6, r2, #8
 8000b90:	f3c1 6084 	ubfx	r0, r1, #26, #5
 8000b94:	bb77      	cbnz	r7, 8000bf4 <HAL_ADC_ConfigChannel+0x1b8>
 8000b96:	f3c3 6384 	ubfx	r3, r3, #26, #5
 8000b9a:	4283      	cmp	r3, r0
 8000b9c:	f040 8112 	bne.w	8000dc4 <HAL_ADC_ConfigChannel+0x388>
  MODIFY_REG(*preg,
 8000ba0:	f021 4100 	bic.w	r1, r1, #2147483648	; 0x80000000
 8000ba4:	6031      	str	r1, [r6, #0]
        if(__LL_ADC_CHANNEL_TO_DECIMAL_NB(LL_ADC_GetOffsetChannel(hadc->Instance, LL_ADC_OFFSET_4)) == __LL_ADC_CHANNEL_TO_DECIMAL_NB(sConfig->Channel))
 8000ba6:	6823      	ldr	r3, [r4, #0]
  register const uint32_t *preg = __ADC_PTR_REG_OFFSET(ADCx->OFR1, Offsety);
 8000ba8:	f102 000c 	add.w	r0, r2, #12
  return (uint32_t) READ_BIT(*preg, ADC_OFR1_OFFSET1_CH);
 8000bac:	68d2      	ldr	r2, [r2, #12]
 8000bae:	f3c3 0612 	ubfx	r6, r3, #0, #19
 8000bb2:	f3c2 6184 	ubfx	r1, r2, #26, #5
 8000bb6:	bb4e      	cbnz	r6, 8000c0c <HAL_ADC_ConfigChannel+0x1d0>
 8000bb8:	f3c3 6384 	ubfx	r3, r3, #26, #5
 8000bbc:	428b      	cmp	r3, r1
  MODIFY_REG(*preg,
 8000bbe:	bf04      	itt	eq
 8000bc0:	f022 4200 	biceq.w	r2, r2, #2147483648	; 0x80000000
 8000bc4:	6002      	streq	r2, [r0, #0]
 8000bc6:	e774      	b.n	8000ab2 <HAL_ADC_ConfigChannel+0x76>
__attribute__((always_inline)) __STATIC_INLINE uint32_t __RBIT(uint32_t value)
{
  uint32_t result;

#if       (__CORTEX_M >= 0x03U) || (__CORTEX_SC >= 300U)
   __ASM volatile ("rbit %0, %1" : "=r" (result) : "r" (value) );
 8000bc8:	fa93 f0a3 	rbit	r0, r3
        if(__LL_ADC_CHANNEL_TO_DECIMAL_NB(LL_ADC_GetOffsetChannel(hadc->Instance, LL_ADC_OFFSET_1)) == __LL_ADC_CHANNEL_TO_DECIMAL_NB(sConfig->Channel))
 8000bcc:	fab0 f080 	clz	r0, r0
 8000bd0:	4287      	cmp	r7, r0
 8000bd2:	d0c3      	beq.n	8000b5c <HAL_ADC_ConfigChannel+0x120>
  return (uint32_t) READ_BIT(*preg, ADC_OFR1_OFFSET1_CH);
 8000bd4:	f8de 1064 	ldr.w	r1, [lr, #100]	; 0x64
        if(__LL_ADC_CHANNEL_TO_DECIMAL_NB(LL_ADC_GetOffsetChannel(hadc->Instance, LL_ADC_OFFSET_2)) == __LL_ADC_CHANNEL_TO_DECIMAL_NB(sConfig->Channel))
 8000bd8:	f3c1 6084 	ubfx	r0, r1, #26, #5
 8000bdc:	fa93 f3a3 	rbit	r3, r3
 8000be0:	fab3 f383 	clz	r3, r3
 8000be4:	4283      	cmp	r3, r0
 8000be6:	d0ca      	beq.n	8000b7e <HAL_ADC_ConfigChannel+0x142>
 8000be8:	6891      	ldr	r1, [r2, #8]
        if(__LL_ADC_CHANNEL_TO_DECIMAL_NB(LL_ADC_GetOffsetChannel(hadc->Instance, LL_ADC_OFFSET_3)) == __LL_ADC_CHANNEL_TO_DECIMAL_NB(sConfig->Channel))
 8000bea:	6823      	ldr	r3, [r4, #0]
  register const uint32_t *preg = __ADC_PTR_REG_OFFSET(ADCx->OFR1, Offsety);
 8000bec:	f102 0608 	add.w	r6, r2, #8
 8000bf0:	f3c1 6084 	ubfx	r0, r1, #26, #5
 8000bf4:	fa93 f3a3 	rbit	r3, r3
 8000bf8:	fab3 f383 	clz	r3, r3
 8000bfc:	4283      	cmp	r3, r0
 8000bfe:	d0cf      	beq.n	8000ba0 <HAL_ADC_ConfigChannel+0x164>
 8000c00:	f102 000c 	add.w	r0, r2, #12
  return (uint32_t) READ_BIT(*preg, ADC_OFR1_OFFSET1_CH);
 8000c04:	68d2      	ldr	r2, [r2, #12]
        if(__LL_ADC_CHANNEL_TO_DECIMAL_NB(LL_ADC_GetOffsetChannel(hadc->Instance, LL_ADC_OFFSET_4)) == __LL_ADC_CHANNEL_TO_DECIMAL_NB(sConfig->Channel))
 8000c06:	6823      	ldr	r3, [r4, #0]
 8000c08:	f3c2 6184 	ubfx	r1, r2, #26, #5
 8000c0c:	fa93 f3a3 	rbit	r3, r3
 8000c10:	fab3 f383 	clz	r3, r3
 8000c14:	e7d2      	b.n	8000bbc <HAL_ADC_ConfigChannel+0x180>
 8000c16:	fa93 f2a3 	rbit	r2, r3
        LL_ADC_SetChannelSamplingTime(hadc->Instance, __LL_ADC_DECIMAL_NB_TO_CHANNEL((__LL_ADC_CHANNEL_TO_DECIMAL_NB(sConfig->Channel) + 1UL) & 0x1FUL), sConfig->SamplingTime);
 8000c1a:	fab2 f282 	clz	r2, r2
 8000c1e:	3201      	adds	r2, #1
 8000c20:	f002 021f 	and.w	r2, r2, #31
 8000c24:	2a09      	cmp	r2, #9
 8000c26:	d830      	bhi.n	8000c8a <HAL_ADC_ConfigChannel+0x24e>
 8000c28:	fa93 f6a3 	rbit	r6, r3
 8000c2c:	fab6 f686 	clz	r6, r6
 8000c30:	3601      	adds	r6, #1
 8000c32:	06b6      	lsls	r6, r6, #26
 8000c34:	f006 46f8 	and.w	r6, r6, #2080374784	; 0x7c000000
 8000c38:	fa93 f1a3 	rbit	r1, r3
 8000c3c:	fab1 f181 	clz	r1, r1
 8000c40:	3101      	adds	r1, #1
 8000c42:	f001 021f 	and.w	r2, r1, #31
 8000c46:	2101      	movs	r1, #1
 8000c48:	e001      	b.n	8000c4e <HAL_ADC_ConfigChannel+0x212>
 8000c4a:	f006 46f8 	and.w	r6, r6, #2080374784	; 0x7c000000
 8000c4e:	4091      	lsls	r1, r2
 8000c50:	ea41 0206 	orr.w	r2, r1, r6
 8000c54:	b9a7      	cbnz	r7, 8000c80 <HAL_ADC_ConfigChannel+0x244>
 8000c56:	0e99      	lsrs	r1, r3, #26
 8000c58:	3101      	adds	r1, #1
 8000c5a:	f001 011f 	and.w	r1, r1, #31
 8000c5e:	eb01 0141 	add.w	r1, r1, r1, lsl #1
 8000c62:	0509      	lsls	r1, r1, #20
 8000c64:	4311      	orrs	r1, r2
 8000c66:	68a2      	ldr	r2, [r4, #8]
 8000c68:	f7ff fcc6 	bl	80005f8 <LL_ADC_SetChannelSamplingTime>
    /* If internal channel selected, enable dedicated internal buffers and    */
    /* paths.                                                                 */
    /* Note: these internal measurement paths can be disabled using           */
    /* HAL_ADC_DeInit().                                                      */
    
    if(__LL_ADC_IS_CHANNEL_INTERNAL(sConfig->Channel))
 8000c6c:	6822      	ldr	r2, [r4, #0]
 8000c6e:	4b5b      	ldr	r3, [pc, #364]	; (8000ddc <HAL_ADC_ConfigChannel+0x3a0>)
 8000c70:	421a      	tst	r2, r3
 8000c72:	d120      	bne.n	8000cb6 <HAL_ADC_ConfigChannel+0x27a>
  HAL_StatusTypeDef tmp_hal_status = HAL_OK;
 8000c74:	2000      	movs	r0, #0
    
    tmp_hal_status = HAL_ERROR;
  }
  
  /* Process unlocked */
  __HAL_UNLOCK(hadc);
 8000c76:	2300      	movs	r3, #0
 8000c78:	f885 3050 	strb.w	r3, [r5, #80]	; 0x50
  
  /* Return function status */
  return tmp_hal_status;
}
 8000c7c:	b003      	add	sp, #12
 8000c7e:	bdf0      	pop	{r4, r5, r6, r7, pc}
 8000c80:	fa93 f1a3 	rbit	r1, r3
        LL_ADC_SetChannelSamplingTime(hadc->Instance, __LL_ADC_DECIMAL_NB_TO_CHANNEL((__LL_ADC_CHANNEL_TO_DECIMAL_NB(sConfig->Channel) + 1UL) & 0x1FUL), sConfig->SamplingTime);
 8000c84:	fab1 f181 	clz	r1, r1
 8000c88:	e7e6      	b.n	8000c58 <HAL_ADC_ConfigChannel+0x21c>
 8000c8a:	fa93 f2a3 	rbit	r2, r3
 8000c8e:	fab2 f282 	clz	r2, r2
 8000c92:	3201      	adds	r2, #1
 8000c94:	0692      	lsls	r2, r2, #26
 8000c96:	f002 46f8 	and.w	r6, r2, #2080374784	; 0x7c000000
 8000c9a:	fa93 f1a3 	rbit	r1, r3
 8000c9e:	fab1 f181 	clz	r1, r1
 8000ca2:	3101      	adds	r1, #1
 8000ca4:	f001 021f 	and.w	r2, r1, #31
 8000ca8:	2101      	movs	r1, #1
 8000caa:	e72e      	b.n	8000b0a <HAL_ADC_ConfigChannel+0xce>
 8000cac:	fa93 f3a3 	rbit	r3, r3
 8000cb0:	fab3 f383 	clz	r3, r3
 8000cb4:	e730      	b.n	8000b18 <HAL_ADC_ConfigChannel+0xdc>
  return (uint32_t)(READ_BIT(ADCxy_COMMON->CCR, ADC_CCR_VREFEN | ADC_CCR_TSEN | ADC_CCR_VBATEN));
 8000cb6:	494a      	ldr	r1, [pc, #296]	; (8000de0 <HAL_ADC_ConfigChannel+0x3a4>)
      if ((sConfig->Channel == ADC_CHANNEL_TEMPSENSOR) && ((tmp_config_internal_channel & LL_ADC_PATH_INTERNAL_TEMPSENSOR) == 0UL))
 8000cb8:	4b4a      	ldr	r3, [pc, #296]	; (8000de4 <HAL_ADC_ConfigChannel+0x3a8>)
 8000cba:	6888      	ldr	r0, [r1, #8]
 8000cbc:	429a      	cmp	r2, r3
 8000cbe:	f000 76e0 	and.w	r6, r0, #29360128	; 0x1c00000
 8000cc2:	460c      	mov	r4, r1
 8000cc4:	d11e      	bne.n	8000d04 <HAL_ADC_ConfigChannel+0x2c8>
 8000cc6:	0202      	lsls	r2, r0, #8
 8000cc8:	d4d4      	bmi.n	8000c74 <HAL_ADC_ConfigChannel+0x238>
        if (ADC_TEMPERATURE_SENSOR_INSTANCE(hadc)) 
 8000cca:	682b      	ldr	r3, [r5, #0]
 8000ccc:	4a46      	ldr	r2, [pc, #280]	; (8000de8 <HAL_ADC_ConfigChannel+0x3ac>)
 8000cce:	4293      	cmp	r3, r2
 8000cd0:	d003      	beq.n	8000cda <HAL_ADC_ConfigChannel+0x29e>
 8000cd2:	f502 7200 	add.w	r2, r2, #512	; 0x200
 8000cd6:	4293      	cmp	r3, r2
 8000cd8:	d1cc      	bne.n	8000c74 <HAL_ADC_ConfigChannel+0x238>
  MODIFY_REG(ADCxy_COMMON->CCR, ADC_CCR_VREFEN | ADC_CCR_TSEN | ADC_CCR_VBATEN, PathInternal);
 8000cda:	68a3      	ldr	r3, [r4, #8]
          wait_loop_index = ((LL_ADC_DELAY_TEMPSENSOR_STAB_US / 10UL) * (SystemCoreClock / (100000UL * 2UL)));
 8000cdc:	4a43      	ldr	r2, [pc, #268]	; (8000dec <HAL_ADC_ConfigChannel+0x3b0>)
 8000cde:	f023 73e0 	bic.w	r3, r3, #29360128	; 0x1c00000
 8000ce2:	4333      	orrs	r3, r6
 8000ce4:	f443 0300 	orr.w	r3, r3, #8388608	; 0x800000
 8000ce8:	60a3      	str	r3, [r4, #8]
 8000cea:	4b41      	ldr	r3, [pc, #260]	; (8000df0 <HAL_ADC_ConfigChannel+0x3b4>)
 8000cec:	681b      	ldr	r3, [r3, #0]
 8000cee:	fbb3 f2f2 	udiv	r2, r3, r2
 8000cf2:	230c      	movs	r3, #12
 8000cf4:	4353      	muls	r3, r2
            wait_loop_index--;
 8000cf6:	9301      	str	r3, [sp, #4]
          while(wait_loop_index != 0UL)
 8000cf8:	9b01      	ldr	r3, [sp, #4]
 8000cfa:	2b00      	cmp	r3, #0
 8000cfc:	d0ba      	beq.n	8000c74 <HAL_ADC_ConfigChannel+0x238>
            wait_loop_index--;
 8000cfe:	9b01      	ldr	r3, [sp, #4]
 8000d00:	3b01      	subs	r3, #1
 8000d02:	e7f8      	b.n	8000cf6 <HAL_ADC_ConfigChannel+0x2ba>
      else if ((sConfig->Channel == ADC_CHANNEL_VBAT) && ((tmp_config_internal_channel & LL_ADC_PATH_INTERNAL_VBAT) == 0UL))
 8000d04:	4b3b      	ldr	r3, [pc, #236]	; (8000df4 <HAL_ADC_ConfigChannel+0x3b8>)
 8000d06:	429a      	cmp	r2, r3
 8000d08:	d111      	bne.n	8000d2e <HAL_ADC_ConfigChannel+0x2f2>
 8000d0a:	01c3      	lsls	r3, r0, #7
 8000d0c:	d4b2      	bmi.n	8000c74 <HAL_ADC_ConfigChannel+0x238>
        if (ADC_BATTERY_VOLTAGE_INSTANCE(hadc))
 8000d0e:	682b      	ldr	r3, [r5, #0]
 8000d10:	4a35      	ldr	r2, [pc, #212]	; (8000de8 <HAL_ADC_ConfigChannel+0x3ac>)
 8000d12:	4293      	cmp	r3, r2
 8000d14:	d003      	beq.n	8000d1e <HAL_ADC_ConfigChannel+0x2e2>
 8000d16:	f502 7200 	add.w	r2, r2, #512	; 0x200
 8000d1a:	4293      	cmp	r3, r2
 8000d1c:	d1aa      	bne.n	8000c74 <HAL_ADC_ConfigChannel+0x238>
 8000d1e:	68a3      	ldr	r3, [r4, #8]
 8000d20:	f023 73e0 	bic.w	r3, r3, #29360128	; 0x1c00000
 8000d24:	4333      	orrs	r3, r6
 8000d26:	f043 7380 	orr.w	r3, r3, #16777216	; 0x1000000
 8000d2a:	60a3      	str	r3, [r4, #8]
 8000d2c:	e7a2      	b.n	8000c74 <HAL_ADC_ConfigChannel+0x238>
      else if ((sConfig->Channel == ADC_CHANNEL_VREFINT) && ((tmp_config_internal_channel & LL_ADC_PATH_INTERNAL_VREFINT) == 0UL))
 8000d2e:	4b32      	ldr	r3, [pc, #200]	; (8000df8 <HAL_ADC_ConfigChannel+0x3bc>)
 8000d30:	429a      	cmp	r2, r3
 8000d32:	d19f      	bne.n	8000c74 <HAL_ADC_ConfigChannel+0x238>
 8000d34:	f410 0080 	ands.w	r0, r0, #4194304	; 0x400000
 8000d38:	d19c      	bne.n	8000c74 <HAL_ADC_ConfigChannel+0x238>
        if (ADC_VREFINT_INSTANCE(hadc))
 8000d3a:	682a      	ldr	r2, [r5, #0]
 8000d3c:	4b2a      	ldr	r3, [pc, #168]	; (8000de8 <HAL_ADC_ConfigChannel+0x3ac>)
 8000d3e:	429a      	cmp	r2, r3
 8000d40:	d198      	bne.n	8000c74 <HAL_ADC_ConfigChannel+0x238>
 8000d42:	688b      	ldr	r3, [r1, #8]
 8000d44:	f023 73e0 	bic.w	r3, r3, #29360128	; 0x1c00000
 8000d48:	4333      	orrs	r3, r6
 8000d4a:	f443 0380 	orr.w	r3, r3, #4194304	; 0x400000
 8000d4e:	608b      	str	r3, [r1, #8]
 8000d50:	e791      	b.n	8000c76 <HAL_ADC_ConfigChannel+0x23a>
    SET_BIT(hadc->State, HAL_ADC_STATE_ERROR_CONFIG);
 8000d52:	6d6a      	ldr	r2, [r5, #84]	; 0x54
 8000d54:	f042 0220 	orr.w	r2, r2, #32
 8000d58:	656a      	str	r2, [r5, #84]	; 0x54
    tmp_hal_status = HAL_ERROR;
 8000d5a:	4618      	mov	r0, r3
 8000d5c:	e78b      	b.n	8000c76 <HAL_ADC_ConfigChannel+0x23a>
  __HAL_LOCK(hadc);
 8000d5e:	2002      	movs	r0, #2
 8000d60:	e78c      	b.n	8000c7c <HAL_ADC_ConfigChannel+0x240>
    if (   (tmp_adc_is_conversion_on_going_regular == 0UL)
 8000d62:	2800      	cmp	r0, #0
 8000d64:	f47f aea5 	bne.w	8000ab2 <HAL_ADC_ConfigChannel+0x76>
      LL_ADC_SetChannelSamplingTime(hadc->Instance, sConfig->Channel, sConfig->SamplingTime);
 8000d68:	68a2      	ldr	r2, [r4, #8]
 8000d6a:	6821      	ldr	r1, [r4, #0]
 8000d6c:	4618      	mov	r0, r3
 8000d6e:	f7ff fc43 	bl	80005f8 <LL_ADC_SetChannelSamplingTime>
      if(sConfig->OffsetNumber != ADC_OFFSET_NONE)
 8000d72:	6926      	ldr	r6, [r4, #16]
      tmpOffsetShifted = ADC_OFFSET_SHIFT_RESOLUTION(hadc, sConfig->Offset);
 8000d74:	f8d5 e000 	ldr.w	lr, [r5]
 8000d78:	6823      	ldr	r3, [r4, #0]
 8000d7a:	f8de 100c 	ldr.w	r1, [lr, #12]
      if(sConfig->OffsetNumber != ADC_OFFSET_NONE)
 8000d7e:	2e04      	cmp	r6, #4
 8000d80:	f10e 0260 	add.w	r2, lr, #96	; 0x60
 8000d84:	f43f aedb 	beq.w	8000b3e <HAL_ADC_ConfigChannel+0x102>
      tmpOffsetShifted = ADC_OFFSET_SHIFT_RESOLUTION(hadc, sConfig->Offset);
 8000d88:	f3c1 01c1 	ubfx	r1, r1, #3, #2
 8000d8c:	0048      	lsls	r0, r1, #1
 8000d8e:	6961      	ldr	r1, [r4, #20]
  MODIFY_REG(*preg,
 8000d90:	f003 43f8 	and.w	r3, r3, #2080374784	; 0x7c000000
 8000d94:	4081      	lsls	r1, r0
 8000d96:	f043 4300 	orr.w	r3, r3, #2147483648	; 0x80000000
 8000d9a:	4319      	orrs	r1, r3
 8000d9c:	f852 0026 	ldr.w	r0, [r2, r6, lsl #2]
 8000da0:	4b16      	ldr	r3, [pc, #88]	; (8000dfc <HAL_ADC_ConfigChannel+0x3c0>)
 8000da2:	4003      	ands	r3, r0
 8000da4:	4319      	orrs	r1, r3
 8000da6:	f842 1026 	str.w	r1, [r2, r6, lsl #2]
 8000daa:	e682      	b.n	8000ab2 <HAL_ADC_ConfigChannel+0x76>
  return (uint32_t) READ_BIT(*preg, ADC_OFR1_OFFSET1_CH);
 8000dac:	f8de 1064 	ldr.w	r1, [lr, #100]	; 0x64
        if(__LL_ADC_CHANNEL_TO_DECIMAL_NB(LL_ADC_GetOffsetChannel(hadc->Instance, LL_ADC_OFFSET_2)) == __LL_ADC_CHANNEL_TO_DECIMAL_NB(sConfig->Channel))
 8000db0:	f3c1 6084 	ubfx	r0, r1, #26, #5
 8000db4:	e6de      	b.n	8000b74 <HAL_ADC_ConfigChannel+0x138>
 8000db6:	6891      	ldr	r1, [r2, #8]
        if(__LL_ADC_CHANNEL_TO_DECIMAL_NB(LL_ADC_GetOffsetChannel(hadc->Instance, LL_ADC_OFFSET_3)) == __LL_ADC_CHANNEL_TO_DECIMAL_NB(sConfig->Channel))
 8000db8:	6823      	ldr	r3, [r4, #0]
  register const uint32_t *preg = __ADC_PTR_REG_OFFSET(ADCx->OFR1, Offsety);
 8000dba:	f102 0608 	add.w	r6, r2, #8
 8000dbe:	f3c1 6084 	ubfx	r0, r1, #26, #5
 8000dc2:	e6e8      	b.n	8000b96 <HAL_ADC_ConfigChannel+0x15a>
 8000dc4:	f102 000c 	add.w	r0, r2, #12
  return (uint32_t) READ_BIT(*preg, ADC_OFR1_OFFSET1_CH);
 8000dc8:	68d2      	ldr	r2, [r2, #12]
        if(__LL_ADC_CHANNEL_TO_DECIMAL_NB(LL_ADC_GetOffsetChannel(hadc->Instance, LL_ADC_OFFSET_4)) == __LL_ADC_CHANNEL_TO_DECIMAL_NB(sConfig->Channel))
 8000dca:	6823      	ldr	r3, [r4, #0]
 8000dcc:	f3c2 6184 	ubfx	r1, r2, #26, #5
 8000dd0:	e6f2      	b.n	8000bb8 <HAL_ADC_ConfigChannel+0x17c>
 8000dd2:	bf00      	nop
 8000dd4:	0007ffff 	.word	0x0007ffff
 8000dd8:	407f0000 	.word	0x407f0000
 8000ddc:	80080000 	.word	0x80080000
 8000de0:	50040300 	.word	0x50040300
 8000de4:	c7520000 	.word	0xc7520000
 8000de8:	50040000 	.word	0x50040000
 8000dec:	00030d40 	.word	0x00030d40
 8000df0:	20000020 	.word	0x20000020
 8000df4:	cb840000 	.word	0xcb840000
 8000df8:	80000001 	.word	0x80000001
 8000dfc:	03fff000 	.word	0x03fff000

08000e00 <ADC_Enable>:
  *         and voltage regulator must be enabled (done into HAL_ADC_Init()).
  * @param hadc ADC handle
  * @retval HAL status.
  */
HAL_StatusTypeDef ADC_Enable(ADC_HandleTypeDef* hadc)
{
 8000e00:	b570      	push	{r4, r5, r6, lr}
 8000e02:	4604      	mov	r4, r0
  
  /* ADC enable and wait for ADC ready (in case of ADC is disabled or         */
  /* enabling phase not yet completed: flag ADC ready not yet set).           */
  /* Timeout implemented to not be stuck if ADC cannot be enabled (possible   */
  /* causes: ADC clock not running, ...).                                     */
  if (LL_ADC_IsEnabled(hadc->Instance) == 0UL)
 8000e04:	6800      	ldr	r0, [r0, #0]
 8000e06:	f7ff fc09 	bl	800061c <LL_ADC_IsEnabled>
 8000e0a:	b108      	cbz	r0, 8000e10 <ADC_Enable+0x10>
      }
    }
  }
   
  /* Return HAL status */
  return HAL_OK;
 8000e0c:	2000      	movs	r0, #0
 8000e0e:	bd70      	pop	{r4, r5, r6, pc}
    if ((hadc->Instance->CR & (ADC_CR_ADCAL | ADC_CR_JADSTP | ADC_CR_ADSTP | ADC_CR_JADSTART | ADC_CR_ADSTART | ADC_CR_ADDIS | ADC_CR_ADEN)) != 0UL)
 8000e10:	6822      	ldr	r2, [r4, #0]
 8000e12:	4b15      	ldr	r3, [pc, #84]	; (8000e68 <ADC_Enable+0x68>)
 8000e14:	6891      	ldr	r1, [r2, #8]
 8000e16:	4219      	tst	r1, r3
 8000e18:	d009      	beq.n	8000e2e <ADC_Enable+0x2e>
        SET_BIT(hadc->State, HAL_ADC_STATE_ERROR_INTERNAL);
 8000e1a:	6d63      	ldr	r3, [r4, #84]	; 0x54
 8000e1c:	f043 0310 	orr.w	r3, r3, #16
 8000e20:	6563      	str	r3, [r4, #84]	; 0x54
        SET_BIT(hadc->ErrorCode, HAL_ADC_ERROR_INTERNAL);
 8000e22:	6da3      	ldr	r3, [r4, #88]	; 0x58
 8000e24:	f043 0301 	orr.w	r3, r3, #1
 8000e28:	65a3      	str	r3, [r4, #88]	; 0x58
        return HAL_ERROR;
 8000e2a:	2001      	movs	r0, #1
 8000e2c:	bd70      	pop	{r4, r5, r6, pc}
  MODIFY_REG(ADCx->CR,
 8000e2e:	6893      	ldr	r3, [r2, #8]
 8000e30:	4d0e      	ldr	r5, [pc, #56]	; (8000e6c <ADC_Enable+0x6c>)
 8000e32:	402b      	ands	r3, r5
 8000e34:	f043 0301 	orr.w	r3, r3, #1
 8000e38:	6093      	str	r3, [r2, #8]
    tickstart = HAL_GetTick();
 8000e3a:	f7ff fbd7 	bl	80005ec <HAL_GetTick>
 8000e3e:	4606      	mov	r6, r0
    while(__HAL_ADC_GET_FLAG(hadc, ADC_FLAG_RDY) == 0UL)
 8000e40:	6820      	ldr	r0, [r4, #0]
 8000e42:	6803      	ldr	r3, [r0, #0]
 8000e44:	07db      	lsls	r3, r3, #31
 8000e46:	d4e1      	bmi.n	8000e0c <ADC_Enable+0xc>
      if(LL_ADC_IsEnabled(hadc->Instance) == 0UL)
 8000e48:	f7ff fbe8 	bl	800061c <LL_ADC_IsEnabled>
 8000e4c:	b928      	cbnz	r0, 8000e5a <ADC_Enable+0x5a>
        LL_ADC_Enable(hadc->Instance);
 8000e4e:	6822      	ldr	r2, [r4, #0]
 8000e50:	6893      	ldr	r3, [r2, #8]
 8000e52:	402b      	ands	r3, r5
 8000e54:	f043 0301 	orr.w	r3, r3, #1
 8000e58:	6093      	str	r3, [r2, #8]
      if((HAL_GetTick() - tickstart) > ADC_ENABLE_TIMEOUT)
 8000e5a:	f7ff fbc7 	bl	80005ec <HAL_GetTick>
 8000e5e:	1b80      	subs	r0, r0, r6
 8000e60:	2802      	cmp	r0, #2
 8000e62:	d9ed      	bls.n	8000e40 <ADC_Enable+0x40>
 8000e64:	e7d9      	b.n	8000e1a <ADC_Enable+0x1a>
 8000e66:	bf00      	nop
 8000e68:	8000003f 	.word	0x8000003f
 8000e6c:	7fffffc0 	.word	0x7fffffc0

08000e70 <HAL_ADC_Start_IT>:
  return (uint32_t)(READ_BIT(ADCxy_COMMON->CCR, ADC_CCR_DUAL));
 8000e70:	4b50      	ldr	r3, [pc, #320]	; (8000fb4 <HAL_ADC_Start_IT+0x144>)
{
 8000e72:	b570      	push	{r4, r5, r6, lr}
 8000e74:	4604      	mov	r4, r0
  if (LL_ADC_REG_IsConversionOngoing(hadc->Instance) == 0UL)
 8000e76:	6800      	ldr	r0, [r0, #0]
 8000e78:	689e      	ldr	r6, [r3, #8]
 8000e7a:	f7ff fbd3 	bl	8000624 <LL_ADC_REG_IsConversionOngoing>
 8000e7e:	4605      	mov	r5, r0
 8000e80:	2800      	cmp	r0, #0
 8000e82:	f040 8090 	bne.w	8000fa6 <HAL_ADC_Start_IT+0x136>
    __HAL_LOCK(hadc);
 8000e86:	f894 3050 	ldrb.w	r3, [r4, #80]	; 0x50
 8000e8a:	2b01      	cmp	r3, #1
 8000e8c:	f000 808b 	beq.w	8000fa6 <HAL_ADC_Start_IT+0x136>
 8000e90:	2301      	movs	r3, #1
 8000e92:	f884 3050 	strb.w	r3, [r4, #80]	; 0x50
    tmp_hal_status = ADC_Enable(hadc);
 8000e96:	4620      	mov	r0, r4
 8000e98:	f7ff ffb2 	bl	8000e00 <ADC_Enable>
    if (tmp_hal_status == HAL_OK)
 8000e9c:	2800      	cmp	r0, #0
 8000e9e:	d17f      	bne.n	8000fa0 <HAL_ADC_Start_IT+0x130>
      ADC_STATE_CLR_SET(hadc->State,
 8000ea0:	6d63      	ldr	r3, [r4, #84]	; 0x54
      if (    (__LL_ADC_MULTI_INSTANCE_MASTER(hadc->Instance) == hadc->Instance)
 8000ea2:	4a45      	ldr	r2, [pc, #276]	; (8000fb8 <HAL_ADC_Start_IT+0x148>)
      ADC_STATE_CLR_SET(hadc->State,
 8000ea4:	f423 6370 	bic.w	r3, r3, #3840	; 0xf00
 8000ea8:	f023 0301 	bic.w	r3, r3, #1
 8000eac:	f443 7380 	orr.w	r3, r3, #256	; 0x100
 8000eb0:	6563      	str	r3, [r4, #84]	; 0x54
      if (    (__LL_ADC_MULTI_INSTANCE_MASTER(hadc->Instance) == hadc->Instance)
 8000eb2:	6823      	ldr	r3, [r4, #0]
 8000eb4:	4293      	cmp	r3, r2
 8000eb6:	f006 011f 	and.w	r1, r6, #31
 8000eba:	d076      	beq.n	8000faa <HAL_ADC_Start_IT+0x13a>
 8000ebc:	461e      	mov	r6, r3
        CLEAR_BIT(hadc->State, HAL_ADC_STATE_MULTIMODE_SLAVE);
 8000ebe:	6d62      	ldr	r2, [r4, #84]	; 0x54
 8000ec0:	f422 1280 	bic.w	r2, r2, #1048576	; 0x100000
 8000ec4:	6562      	str	r2, [r4, #84]	; 0x54
      if ((hadc->State & HAL_ADC_STATE_INJ_BUSY) != 0UL)
 8000ec6:	6d62      	ldr	r2, [r4, #84]	; 0x54
      switch(hadc->Init.EOCSelection)
 8000ec8:	6965      	ldr	r5, [r4, #20]
      if ((hadc->State & HAL_ADC_STATE_INJ_BUSY) != 0UL)
 8000eca:	f412 5280 	ands.w	r2, r2, #4096	; 0x1000
        CLEAR_BIT(hadc->ErrorCode, (HAL_ADC_ERROR_OVR|HAL_ADC_ERROR_DMA));         
 8000ece:	bf1c      	itt	ne
 8000ed0:	6da2      	ldrne	r2, [r4, #88]	; 0x58
 8000ed2:	f022 0206 	bicne.w	r2, r2, #6
        ADC_CLEAR_ERRORCODE(hadc); 
 8000ed6:	65a2      	str	r2, [r4, #88]	; 0x58
      __HAL_ADC_CLEAR_FLAG(hadc, (ADC_FLAG_EOC | ADC_FLAG_EOS | ADC_FLAG_OVR));
 8000ed8:	221c      	movs	r2, #28
 8000eda:	601a      	str	r2, [r3, #0]
      __HAL_UNLOCK(hadc);
 8000edc:	2200      	movs	r2, #0
 8000ede:	f884 2050 	strb.w	r2, [r4, #80]	; 0x50
      __HAL_ADC_DISABLE_IT(hadc, (ADC_IT_EOC | ADC_IT_EOS | ADC_IT_OVR));
 8000ee2:	685a      	ldr	r2, [r3, #4]
 8000ee4:	f022 021c 	bic.w	r2, r2, #28
 8000ee8:	605a      	str	r2, [r3, #4]
          __HAL_ADC_ENABLE_IT(hadc, ADC_IT_EOS);
 8000eea:	685a      	ldr	r2, [r3, #4]
      switch(hadc->Init.EOCSelection)
 8000eec:	2d08      	cmp	r5, #8
          __HAL_ADC_ENABLE_IT(hadc, ADC_IT_EOS);
 8000eee:	bf0c      	ite	eq
 8000ef0:	f042 0208 	orreq.w	r2, r2, #8
          __HAL_ADC_ENABLE_IT(hadc, ADC_IT_EOC);
 8000ef4:	f042 0204 	orrne.w	r2, r2, #4
 8000ef8:	605a      	str	r2, [r3, #4]
      if (hadc->Init.Overrun == ADC_OVR_DATA_PRESERVED)
 8000efa:	6b62      	ldr	r2, [r4, #52]	; 0x34
 8000efc:	b91a      	cbnz	r2, 8000f06 <HAL_ADC_Start_IT+0x96>
        __HAL_ADC_ENABLE_IT(hadc, ADC_IT_OVR);  
 8000efe:	685a      	ldr	r2, [r3, #4]
 8000f00:	f042 0210 	orr.w	r2, r2, #16
 8000f04:	605a      	str	r2, [r3, #4]
      if (    (__LL_ADC_MULTI_INSTANCE_MASTER(hadc->Instance) == hadc->Instance)
 8000f06:	42b3      	cmp	r3, r6
 8000f08:	d008      	beq.n	8000f1c <HAL_ADC_Start_IT+0xac>
           || (tmp_multimode_config == LL_ADC_MULTI_INDEPENDENT)
 8000f0a:	2909      	cmp	r1, #9
 8000f0c:	bf9d      	ittte	ls
 8000f0e:	f240 2221 	movwls	r2, #545	; 0x221
 8000f12:	40ca      	lsrls	r2, r1
 8000f14:	43d2      	mvnls	r2, r2
 8000f16:	2201      	movhi	r2, #1
 8000f18:	07d2      	lsls	r2, r2, #31
 8000f1a:	d422      	bmi.n	8000f62 <HAL_ADC_Start_IT+0xf2>
        if (READ_BIT(hadc->Instance->CFGR, ADC_CFGR_JAUTO) != 0UL)
 8000f1c:	68da      	ldr	r2, [r3, #12]
 8000f1e:	0191      	lsls	r1, r2, #6
 8000f20:	d516      	bpl.n	8000f50 <HAL_ADC_Start_IT+0xe0>
          ADC_STATE_CLR_SET(hadc->State, HAL_ADC_STATE_INJ_EOC, HAL_ADC_STATE_INJ_BUSY);
 8000f22:	6d62      	ldr	r2, [r4, #84]	; 0x54
 8000f24:	f422 5240 	bic.w	r2, r2, #12288	; 0x3000
 8000f28:	f442 5280 	orr.w	r2, r2, #4096	; 0x1000
 8000f2c:	6562      	str	r2, [r4, #84]	; 0x54
              __HAL_ADC_DISABLE_IT(hadc, ADC_IT_JEOC);
 8000f2e:	685a      	ldr	r2, [r3, #4]
          switch(hadc->Init.EOCSelection)
 8000f30:	2d08      	cmp	r5, #8
              __HAL_ADC_DISABLE_IT(hadc, ADC_IT_JEOC);
 8000f32:	bf0b      	itete	eq
 8000f34:	f022 0220 	biceq.w	r2, r2, #32
              __HAL_ADC_DISABLE_IT(hadc, ADC_IT_JEOS);      
 8000f38:	f022 0240 	bicne.w	r2, r2, #64	; 0x40
              __HAL_ADC_DISABLE_IT(hadc, ADC_IT_JEOC);
 8000f3c:	605a      	streq	r2, [r3, #4]
              __HAL_ADC_DISABLE_IT(hadc, ADC_IT_JEOS);      
 8000f3e:	605a      	strne	r2, [r3, #4]
              __HAL_ADC_ENABLE_IT(hadc, ADC_IT_JEOS);
 8000f40:	bf0b      	itete	eq
 8000f42:	685a      	ldreq	r2, [r3, #4]
              __HAL_ADC_ENABLE_IT(hadc, ADC_IT_JEOC);
 8000f44:	685a      	ldrne	r2, [r3, #4]
              __HAL_ADC_ENABLE_IT(hadc, ADC_IT_JEOS);
 8000f46:	f042 0240 	orreq.w	r2, r2, #64	; 0x40
              __HAL_ADC_ENABLE_IT(hadc, ADC_IT_JEOC);
 8000f4a:	f042 0220 	orrne.w	r2, r2, #32
 8000f4e:	605a      	str	r2, [r3, #4]
  MODIFY_REG(ADCx->CR,
 8000f50:	689a      	ldr	r2, [r3, #8]
 8000f52:	f022 4200 	bic.w	r2, r2, #2147483648	; 0x80000000
 8000f56:	f022 023f 	bic.w	r2, r2, #63	; 0x3f
 8000f5a:	f042 0204 	orr.w	r2, r2, #4
 8000f5e:	609a      	str	r2, [r3, #8]
 8000f60:	bd70      	pop	{r4, r5, r6, pc}
        SET_BIT(hadc->State, HAL_ADC_STATE_MULTIMODE_SLAVE);
 8000f62:	6d62      	ldr	r2, [r4, #84]	; 0x54
 8000f64:	f442 1280 	orr.w	r2, r2, #1048576	; 0x100000
 8000f68:	6562      	str	r2, [r4, #84]	; 0x54
        if (READ_BIT(tmpADC_Master->CFGR, ADC_CFGR_JAUTO) != 0UL)
 8000f6a:	68f2      	ldr	r2, [r6, #12]
 8000f6c:	0192      	lsls	r2, r2, #6
 8000f6e:	d520      	bpl.n	8000fb2 <HAL_ADC_Start_IT+0x142>
          ADC_STATE_CLR_SET(hadc->State, HAL_ADC_STATE_INJ_EOC, HAL_ADC_STATE_INJ_BUSY);
 8000f70:	6d62      	ldr	r2, [r4, #84]	; 0x54
 8000f72:	f422 5240 	bic.w	r2, r2, #12288	; 0x3000
 8000f76:	f442 5280 	orr.w	r2, r2, #4096	; 0x1000
 8000f7a:	6562      	str	r2, [r4, #84]	; 0x54
              __HAL_ADC_DISABLE_IT(hadc, ADC_IT_JEOC);
 8000f7c:	685a      	ldr	r2, [r3, #4]
          switch(hadc->Init.EOCSelection)
 8000f7e:	2d08      	cmp	r5, #8
              __HAL_ADC_DISABLE_IT(hadc, ADC_IT_JEOC);
 8000f80:	bf0b      	itete	eq
 8000f82:	f022 0220 	biceq.w	r2, r2, #32
              __HAL_ADC_DISABLE_IT(hadc, ADC_IT_JEOS);
 8000f86:	f022 0240 	bicne.w	r2, r2, #64	; 0x40
              __HAL_ADC_DISABLE_IT(hadc, ADC_IT_JEOC);
 8000f8a:	605a      	streq	r2, [r3, #4]
              __HAL_ADC_DISABLE_IT(hadc, ADC_IT_JEOS);
 8000f8c:	605a      	strne	r2, [r3, #4]
              __HAL_ADC_ENABLE_IT(hadc, ADC_IT_JEOS);
 8000f8e:	bf0b      	itete	eq
 8000f90:	685a      	ldreq	r2, [r3, #4]
              __HAL_ADC_ENABLE_IT(hadc, ADC_IT_JEOC);
 8000f92:	685a      	ldrne	r2, [r3, #4]
              __HAL_ADC_ENABLE_IT(hadc, ADC_IT_JEOS);
 8000f94:	f042 0240 	orreq.w	r2, r2, #64	; 0x40
              __HAL_ADC_ENABLE_IT(hadc, ADC_IT_JEOC);
 8000f98:	f042 0220 	orrne.w	r2, r2, #32
 8000f9c:	605a      	str	r2, [r3, #4]
            break;
 8000f9e:	bd70      	pop	{r4, r5, r6, pc}
      __HAL_UNLOCK(hadc);
 8000fa0:	f884 5050 	strb.w	r5, [r4, #80]	; 0x50
 8000fa4:	bd70      	pop	{r4, r5, r6, pc}
    tmp_hal_status = HAL_BUSY;
 8000fa6:	2002      	movs	r0, #2
 8000fa8:	bd70      	pop	{r4, r5, r6, pc}
      if (    (__LL_ADC_MULTI_INSTANCE_MASTER(hadc->Instance) == hadc->Instance)
 8000faa:	4e04      	ldr	r6, [pc, #16]	; (8000fbc <HAL_ADC_Start_IT+0x14c>)
           || (tmp_multimode_config == LL_ADC_MULTI_INDEPENDENT)
 8000fac:	2900      	cmp	r1, #0
 8000fae:	d086      	beq.n	8000ebe <HAL_ADC_Start_IT+0x4e>
 8000fb0:	e789      	b.n	8000ec6 <HAL_ADC_Start_IT+0x56>
}
 8000fb2:	bd70      	pop	{r4, r5, r6, pc}
 8000fb4:	50040300 	.word	0x50040300
 8000fb8:	50040100 	.word	0x50040100
 8000fbc:	50040000 	.word	0x50040000

08000fc0 <LL_ADC_IsEnabled>:
  return ((READ_BIT(ADCx->CR, ADC_CR_ADEN) == (ADC_CR_ADEN)) ? 1UL : 0UL);
 8000fc0:	6880      	ldr	r0, [r0, #8]
}
 8000fc2:	f000 0001 	and.w	r0, r0, #1
 8000fc6:	4770      	bx	lr

08000fc8 <LL_ADC_REG_IsConversionOngoing>:
  return ((READ_BIT(ADCx->CR, ADC_CR_ADSTART) == (ADC_CR_ADSTART)) ? 1UL : 0UL);
 8000fc8:	6880      	ldr	r0, [r0, #8]
}
 8000fca:	f3c0 0080 	ubfx	r0, r0, #2, #1
 8000fce:	4770      	bx	lr

08000fd0 <HAL_ADCEx_InjectedConvCpltCallback>:
 8000fd0:	4770      	bx	lr

08000fd2 <HAL_ADCEx_InjectedQueueOverflowCallback>:
 8000fd2:	4770      	bx	lr

08000fd4 <HAL_ADCEx_LevelOutOfWindow2Callback>:
 8000fd4:	4770      	bx	lr

08000fd6 <HAL_ADCEx_LevelOutOfWindow3Callback>:
 8000fd6:	4770      	bx	lr

08000fd8 <HAL_ADCEx_EndOfSamplingCallback>:
  * @brief  End Of Sampling callback in non-blocking mode.
  * @param hadc ADC handle
  * @retval None
  */
__weak void HAL_ADCEx_EndOfSamplingCallback(ADC_HandleTypeDef* hadc)
{
 8000fd8:	4770      	bx	lr
	...

08000fdc <HAL_ADCEx_MultiModeConfigChannel>:
  * @param hadc Master ADC handle
  * @param multimode Structure of ADC multimode configuration
  * @retval HAL status
  */
HAL_StatusTypeDef HAL_ADCEx_MultiModeConfigChannel(ADC_HandleTypeDef* hadc, ADC_MultiModeTypeDef* multimode)
{
 8000fdc:	b530      	push	{r4, r5, lr}
    assert_param(IS_ADC_DMA_ACCESS_MULTIMODE(multimode->DMAAccessMode));
    assert_param(IS_ADC_SAMPLING_DELAY(multimode->TwoSamplingDelay));
  }
  
  /* Process locked */
  __HAL_LOCK(hadc);
 8000fde:	f890 3050 	ldrb.w	r3, [r0, #80]	; 0x50
 8000fe2:	2b01      	cmp	r3, #1
{
 8000fe4:	b09b      	sub	sp, #108	; 0x6c
 8000fe6:	4602      	mov	r2, r0
  __HAL_LOCK(hadc);
 8000fe8:	d066      	beq.n	80010b8 <HAL_ADCEx_MultiModeConfigChannel+0xdc>
 8000fea:	2301      	movs	r3, #1
 8000fec:	f880 3050 	strb.w	r3, [r0, #80]	; 0x50
  
  ADC_MULTI_SLAVE(hadc, &tmphadcSlave);
 8000ff0:	4b32      	ldr	r3, [pc, #200]	; (80010bc <HAL_ADCEx_MultiModeConfigChannel+0xe0>)
 8000ff2:	6800      	ldr	r0, [r0, #0]
 8000ff4:	4298      	cmp	r0, r3
 8000ff6:	bf0c      	ite	eq
 8000ff8:	f503 7380 	addeq.w	r3, r3, #256	; 0x100
 8000ffc:	2300      	movne	r3, #0
 8000ffe:	9301      	str	r3, [sp, #4]
  
  if (tmphadcSlave.Instance == NULL)
 8001000:	9801      	ldr	r0, [sp, #4]
 8001002:	b940      	cbnz	r0, 8001016 <HAL_ADCEx_MultiModeConfigChannel+0x3a>
  {
    /* Update ADC state machine to error */
    SET_BIT(hadc->State, HAL_ADC_STATE_ERROR_CONFIG);
 8001004:	6d53      	ldr	r3, [r2, #84]	; 0x54
    
    /* Process unlocked */
    __HAL_UNLOCK(hadc);
 8001006:	f882 0050 	strb.w	r0, [r2, #80]	; 0x50
    SET_BIT(hadc->State, HAL_ADC_STATE_ERROR_CONFIG);
 800100a:	f043 0320 	orr.w	r3, r3, #32
 800100e:	6553      	str	r3, [r2, #84]	; 0x54
    
    return HAL_ERROR;
 8001010:	2001      	movs	r0, #1
  /* Process unlocked */
  __HAL_UNLOCK(hadc);
  
  /* Return function status */
  return tmp_hal_status;
} 
 8001012:	b01b      	add	sp, #108	; 0x6c
 8001014:	bd30      	pop	{r4, r5, pc}
  tmphadcSlave_conversion_on_going = LL_ADC_REG_IsConversionOngoing((&tmphadcSlave)->Instance);
 8001016:	f7ff ffd7 	bl	8000fc8 <LL_ADC_REG_IsConversionOngoing>
 800101a:	4603      	mov	r3, r0
  if ( (LL_ADC_REG_IsConversionOngoing(hadc->Instance) == 0UL) 
 800101c:	6810      	ldr	r0, [r2, #0]
 800101e:	f7ff ffd3 	bl	8000fc8 <LL_ADC_REG_IsConversionOngoing>
 8001022:	2800      	cmp	r0, #0
 8001024:	d142      	bne.n	80010ac <HAL_ADCEx_MultiModeConfigChannel+0xd0>
    && (tmphadcSlave_conversion_on_going == 0UL) )
 8001026:	2b00      	cmp	r3, #0
 8001028:	d140      	bne.n	80010ac <HAL_ADCEx_MultiModeConfigChannel+0xd0>
    if(multimode->Mode != ADC_MODE_INDEPENDENT)
 800102a:	680b      	ldr	r3, [r1, #0]
 800102c:	4c24      	ldr	r4, [pc, #144]	; (80010c0 <HAL_ADCEx_MultiModeConfigChannel+0xe4>)
 800102e:	b333      	cbz	r3, 800107e <HAL_ADCEx_MultiModeConfigChannel+0xa2>
      MODIFY_REG(tmpADC_Common->CCR, ADC_CCR_MDMA | ADC_CCR_DMACFG, 
 8001030:	68a3      	ldr	r3, [r4, #8]
 8001032:	6848      	ldr	r0, [r1, #4]
 8001034:	f423 4360 	bic.w	r3, r3, #57344	; 0xe000
 8001038:	4303      	orrs	r3, r0
 800103a:	f892 0030 	ldrb.w	r0, [r2, #48]	; 0x30
 800103e:	ea43 3340 	orr.w	r3, r3, r0, lsl #13
 8001042:	60a3      	str	r3, [r4, #8]
      if (__LL_ADC_IS_ENABLED_ALL_COMMON_INSTANCE(__LL_ADC_COMMON_INSTANCE(hadc->Instance)) == 0UL)
 8001044:	481d      	ldr	r0, [pc, #116]	; (80010bc <HAL_ADCEx_MultiModeConfigChannel+0xe0>)
 8001046:	f7ff ffbb 	bl	8000fc0 <LL_ADC_IsEnabled>
 800104a:	4603      	mov	r3, r0
 800104c:	481d      	ldr	r0, [pc, #116]	; (80010c4 <HAL_ADCEx_MultiModeConfigChannel+0xe8>)
 800104e:	f7ff ffb7 	bl	8000fc0 <LL_ADC_IsEnabled>
 8001052:	4303      	orrs	r3, r0
 8001054:	481c      	ldr	r0, [pc, #112]	; (80010c8 <HAL_ADCEx_MultiModeConfigChannel+0xec>)
 8001056:	f7ff ffb3 	bl	8000fc0 <LL_ADC_IsEnabled>
 800105a:	4318      	orrs	r0, r3
 800105c:	d004      	beq.n	8001068 <HAL_ADCEx_MultiModeConfigChannel+0x8c>
  HAL_StatusTypeDef tmp_hal_status = HAL_OK;
 800105e:	2000      	movs	r0, #0
  __HAL_UNLOCK(hadc);
 8001060:	2300      	movs	r3, #0
 8001062:	f882 3050 	strb.w	r3, [r2, #80]	; 0x50
  return tmp_hal_status;
 8001066:	e7d4      	b.n	8001012 <HAL_ADCEx_MultiModeConfigChannel+0x36>
          MODIFY_REG(tmpADC_Common->CCR,
 8001068:	680b      	ldr	r3, [r1, #0]
 800106a:	68a5      	ldr	r5, [r4, #8]
 800106c:	6889      	ldr	r1, [r1, #8]
 800106e:	430b      	orrs	r3, r1
 8001070:	f425 6171 	bic.w	r1, r5, #3856	; 0xf10
 8001074:	f021 010f 	bic.w	r1, r1, #15
 8001078:	430b      	orrs	r3, r1
        CLEAR_BIT(tmpADC_Common->CCR, ADC_CCR_DUAL | ADC_CCR_DELAY);
 800107a:	60a3      	str	r3, [r4, #8]
 800107c:	e7f0      	b.n	8001060 <HAL_ADCEx_MultiModeConfigChannel+0x84>
      CLEAR_BIT(tmpADC_Common->CCR, ADC_CCR_MDMA | ADC_CCR_DMACFG);
 800107e:	68a3      	ldr	r3, [r4, #8]
      if (__LL_ADC_IS_ENABLED_ALL_COMMON_INSTANCE(__LL_ADC_COMMON_INSTANCE(hadc->Instance)) == 0UL)
 8001080:	480e      	ldr	r0, [pc, #56]	; (80010bc <HAL_ADCEx_MultiModeConfigChannel+0xe0>)
      CLEAR_BIT(tmpADC_Common->CCR, ADC_CCR_MDMA | ADC_CCR_DMACFG);
 8001082:	f423 4360 	bic.w	r3, r3, #57344	; 0xe000
 8001086:	60a3      	str	r3, [r4, #8]
      if (__LL_ADC_IS_ENABLED_ALL_COMMON_INSTANCE(__LL_ADC_COMMON_INSTANCE(hadc->Instance)) == 0UL)
 8001088:	f7ff ff9a 	bl	8000fc0 <LL_ADC_IsEnabled>
 800108c:	4603      	mov	r3, r0
 800108e:	480d      	ldr	r0, [pc, #52]	; (80010c4 <HAL_ADCEx_MultiModeConfigChannel+0xe8>)
 8001090:	f7ff ff96 	bl	8000fc0 <LL_ADC_IsEnabled>
 8001094:	4303      	orrs	r3, r0
 8001096:	480c      	ldr	r0, [pc, #48]	; (80010c8 <HAL_ADCEx_MultiModeConfigChannel+0xec>)
 8001098:	f7ff ff92 	bl	8000fc0 <LL_ADC_IsEnabled>
 800109c:	4318      	orrs	r0, r3
 800109e:	d1de      	bne.n	800105e <HAL_ADCEx_MultiModeConfigChannel+0x82>
        CLEAR_BIT(tmpADC_Common->CCR, ADC_CCR_DUAL | ADC_CCR_DELAY);
 80010a0:	68a3      	ldr	r3, [r4, #8]
 80010a2:	f423 6371 	bic.w	r3, r3, #3856	; 0xf10
 80010a6:	f023 030f 	bic.w	r3, r3, #15
 80010aa:	e7e6      	b.n	800107a <HAL_ADCEx_MultiModeConfigChannel+0x9e>
    SET_BIT(hadc->State, HAL_ADC_STATE_ERROR_CONFIG);
 80010ac:	6d53      	ldr	r3, [r2, #84]	; 0x54
 80010ae:	f043 0320 	orr.w	r3, r3, #32
 80010b2:	6553      	str	r3, [r2, #84]	; 0x54
    tmp_hal_status = HAL_ERROR;
 80010b4:	2001      	movs	r0, #1
 80010b6:	e7d3      	b.n	8001060 <HAL_ADCEx_MultiModeConfigChannel+0x84>
  __HAL_LOCK(hadc);
 80010b8:	2002      	movs	r0, #2
 80010ba:	e7aa      	b.n	8001012 <HAL_ADCEx_MultiModeConfigChannel+0x36>
 80010bc:	50040000 	.word	0x50040000
 80010c0:	50040300 	.word	0x50040300
 80010c4:	50040100 	.word	0x50040100
 80010c8:	50040200 	.word	0x50040200

080010cc <HAL_NVIC_SetPriorityGrouping>:
__STATIC_INLINE void NVIC_SetPriorityGrouping(uint32_t PriorityGroup)
{
  uint32_t reg_value;
  uint32_t PriorityGroupTmp = (PriorityGroup & (uint32_t)0x07UL);             /* only values 0..7 are used          */

  reg_value  =  SCB->AIRCR;                                                   /* read old register configuration    */
 80010cc:	4a07      	ldr	r2, [pc, #28]	; (80010ec <HAL_NVIC_SetPriorityGrouping+0x20>)
 80010ce:	68d3      	ldr	r3, [r2, #12]
  reg_value &= ~((uint32_t)(SCB_AIRCR_VECTKEY_Msk | SCB_AIRCR_PRIGROUP_Msk)); /* clear bits to change               */
 80010d0:	f423 63e0 	bic.w	r3, r3, #1792	; 0x700
 80010d4:	041b      	lsls	r3, r3, #16
 80010d6:	0c1b      	lsrs	r3, r3, #16
 80010d8:	f043 63bf 	orr.w	r3, r3, #100139008	; 0x5f80000
  reg_value  =  (reg_value                                   |
                ((uint32_t)0x5FAUL << SCB_AIRCR_VECTKEY_Pos) |
                (PriorityGroupTmp << 8U)                      );              /* Insert write key and priorty group */
 80010dc:	0200      	lsls	r0, r0, #8
 80010de:	f443 3300 	orr.w	r3, r3, #131072	; 0x20000
 80010e2:	f400 60e0 	and.w	r0, r0, #1792	; 0x700
  reg_value  =  (reg_value                                   |
 80010e6:	4303      	orrs	r3, r0
  SCB->AIRCR =  reg_value;
 80010e8:	60d3      	str	r3, [r2, #12]
 80010ea:	4770      	bx	lr
 80010ec:	e000ed00 	.word	0xe000ed00

080010f0 <HAL_NVIC_SetPriority>:
  \details Reads the priority grouping field from the NVIC Interrupt Controller.
  \return                Priority grouping field (SCB->AIRCR [10:8] PRIGROUP field).
 */
__STATIC_INLINE uint32_t NVIC_GetPriorityGrouping(void)
{
  return ((uint32_t)((SCB->AIRCR & SCB_AIRCR_PRIGROUP_Msk) >> SCB_AIRCR_PRIGROUP_Pos));
 80010f0:	4b17      	ldr	r3, [pc, #92]	; (8001150 <HAL_NVIC_SetPriority+0x60>)
  *         This parameter can be a value between 0 and 15
  *         A lower priority value indicates a higher priority.
  * @retval None
  */
void HAL_NVIC_SetPriority(IRQn_Type IRQn, uint32_t PreemptPriority, uint32_t SubPriority)
{
 80010f2:	b530      	push	{r4, r5, lr}
 80010f4:	68dc      	ldr	r4, [r3, #12]
 80010f6:	f3c4 2402 	ubfx	r4, r4, #8, #3
{
  uint32_t PriorityGroupTmp = (PriorityGroup & (uint32_t)0x07UL);   /* only values 0..7 are used          */
  uint32_t PreemptPriorityBits;
  uint32_t SubPriorityBits;

  PreemptPriorityBits = ((7UL - PriorityGroupTmp) > (uint32_t)(__NVIC_PRIO_BITS)) ? (uint32_t)(__NVIC_PRIO_BITS) : (uint32_t)(7UL - PriorityGroupTmp);
 80010fa:	f1c4 0307 	rsb	r3, r4, #7
  SubPriorityBits     = ((PriorityGroupTmp + (uint32_t)(__NVIC_PRIO_BITS)) < (uint32_t)7UL) ? (uint32_t)0UL : (uint32_t)((PriorityGroupTmp - 7UL) + (uint32_t)(__NVIC_PRIO_BITS));
 80010fe:	1d25      	adds	r5, r4, #4
  PreemptPriorityBits = ((7UL - PriorityGroupTmp) > (uint32_t)(__NVIC_PRIO_BITS)) ? (uint32_t)(__NVIC_PRIO_BITS) : (uint32_t)(7UL - PriorityGroupTmp);
 8001100:	2b04      	cmp	r3, #4
 8001102:	bf28      	it	cs
 8001104:	2304      	movcs	r3, #4
  SubPriorityBits     = ((PriorityGroupTmp + (uint32_t)(__NVIC_PRIO_BITS)) < (uint32_t)7UL) ? (uint32_t)0UL : (uint32_t)((PriorityGroupTmp - 7UL) + (uint32_t)(__NVIC_PRIO_BITS));
 8001106:	2d06      	cmp	r5, #6

  return (
           ((PreemptPriority & (uint32_t)((1UL << (PreemptPriorityBits)) - 1UL)) << SubPriorityBits) |
 8001108:	f04f 0501 	mov.w	r5, #1
 800110c:	fa05 f303 	lsl.w	r3, r5, r3
 8001110:	f103 33ff 	add.w	r3, r3, #4294967295
  SubPriorityBits     = ((PriorityGroupTmp + (uint32_t)(__NVIC_PRIO_BITS)) < (uint32_t)7UL) ? (uint32_t)0UL : (uint32_t)((PriorityGroupTmp - 7UL) + (uint32_t)(__NVIC_PRIO_BITS));
 8001114:	bf8c      	ite	hi
 8001116:	3c03      	subhi	r4, #3
 8001118:	2400      	movls	r4, #0
           ((PreemptPriority & (uint32_t)((1UL << (PreemptPriorityBits)) - 1UL)) << SubPriorityBits) |
 800111a:	4019      	ands	r1, r3
 800111c:	40a1      	lsls	r1, r4
           ((SubPriority     & (uint32_t)((1UL << (SubPriorityBits    )) - 1UL)))
 800111e:	fa05 f404 	lsl.w	r4, r5, r4
 8001122:	3c01      	subs	r4, #1
 8001124:	4022      	ands	r2, r4
  if ((int32_t)(IRQn) < 0)
 8001126:	2800      	cmp	r0, #0
           ((PreemptPriority & (uint32_t)((1UL << (PreemptPriorityBits)) - 1UL)) << SubPriorityBits) |
 8001128:	ea42 0201 	orr.w	r2, r2, r1
 800112c:	ea4f 1202 	mov.w	r2, r2, lsl #4
    NVIC->IP[((uint32_t)(int32_t)IRQn)]               = (uint8_t)((priority << (8U - __NVIC_PRIO_BITS)) & (uint32_t)0xFFUL);
 8001130:	bfaf      	iteee	ge
 8001132:	f100 4060 	addge.w	r0, r0, #3758096384	; 0xe0000000
    SCB->SHP[(((uint32_t)(int32_t)IRQn) & 0xFUL)-4UL] = (uint8_t)((priority << (8U - __NVIC_PRIO_BITS)) & (uint32_t)0xFFUL);
 8001136:	f000 000f 	andlt.w	r0, r0, #15
 800113a:	4b06      	ldrlt	r3, [pc, #24]	; (8001154 <HAL_NVIC_SetPriority+0x64>)
 800113c:	b2d2      	uxtblt	r2, r2
    NVIC->IP[((uint32_t)(int32_t)IRQn)]               = (uint8_t)((priority << (8U - __NVIC_PRIO_BITS)) & (uint32_t)0xFFUL);
 800113e:	bfa5      	ittet	ge
 8001140:	f500 4061 	addge.w	r0, r0, #57600	; 0xe100
 8001144:	b2d2      	uxtbge	r2, r2
    SCB->SHP[(((uint32_t)(int32_t)IRQn) & 0xFUL)-4UL] = (uint8_t)((priority << (8U - __NVIC_PRIO_BITS)) & (uint32_t)0xFFUL);
 8001146:	541a      	strblt	r2, [r3, r0]
    NVIC->IP[((uint32_t)(int32_t)IRQn)]               = (uint8_t)((priority << (8U - __NVIC_PRIO_BITS)) & (uint32_t)0xFFUL);
 8001148:	f880 2300 	strbge.w	r2, [r0, #768]	; 0x300
 800114c:	bd30      	pop	{r4, r5, pc}
 800114e:	bf00      	nop
 8001150:	e000ed00 	.word	0xe000ed00
 8001154:	e000ed14 	.word	0xe000ed14

08001158 <HAL_NVIC_EnableIRQ>:
  NVIC->ISER[(((uint32_t)(int32_t)IRQn) >> 5UL)] = (uint32_t)(1UL << (((uint32_t)(int32_t)IRQn) & 0x1FUL));
 8001158:	0942      	lsrs	r2, r0, #5
 800115a:	2301      	movs	r3, #1
 800115c:	f000 001f 	and.w	r0, r0, #31
 8001160:	fa03 f000 	lsl.w	r0, r3, r0
 8001164:	4b01      	ldr	r3, [pc, #4]	; (800116c <HAL_NVIC_EnableIRQ+0x14>)
 8001166:	f843 0022 	str.w	r0, [r3, r2, lsl #2]
 800116a:	4770      	bx	lr
 800116c:	e000e100 	.word	0xe000e100

08001170 <HAL_SYSTICK_Config>:
           function <b>SysTick_Config</b> is not included. In this case, the file <b><i>device</i>.h</b>
           must contain a vendor-specific implementation of this function.
 */
__STATIC_INLINE uint32_t SysTick_Config(uint32_t ticks)
{
  if ((ticks - 1UL) > SysTick_LOAD_RELOAD_Msk)
 8001170:	3801      	subs	r0, #1
 8001172:	f1b0 7f80 	cmp.w	r0, #16777216	; 0x1000000
 8001176:	d20a      	bcs.n	800118e <HAL_SYSTICK_Config+0x1e>
  {
    return (1UL);                                                   /* Reload value impossible */
  }

  SysTick->LOAD  = (uint32_t)(ticks - 1UL);                         /* set reload register */
 8001178:	4b06      	ldr	r3, [pc, #24]	; (8001194 <HAL_SYSTICK_Config+0x24>)
    SCB->SHP[(((uint32_t)(int32_t)IRQn) & 0xFUL)-4UL] = (uint8_t)((priority << (8U - __NVIC_PRIO_BITS)) & (uint32_t)0xFFUL);
 800117a:	4a07      	ldr	r2, [pc, #28]	; (8001198 <HAL_SYSTICK_Config+0x28>)
  SysTick->LOAD  = (uint32_t)(ticks - 1UL);                         /* set reload register */
 800117c:	6058      	str	r0, [r3, #4]
    SCB->SHP[(((uint32_t)(int32_t)IRQn) & 0xFUL)-4UL] = (uint8_t)((priority << (8U - __NVIC_PRIO_BITS)) & (uint32_t)0xFFUL);
 800117e:	21f0      	movs	r1, #240	; 0xf0
 8001180:	f882 1023 	strb.w	r1, [r2, #35]	; 0x23
  NVIC_SetPriority (SysTick_IRQn, (1UL << __NVIC_PRIO_BITS) - 1UL); /* set Priority for Systick Interrupt */
  SysTick->VAL   = 0UL;                                             /* Load the SysTick Counter Value */
 8001184:	2000      	movs	r0, #0
  SysTick->CTRL  = SysTick_CTRL_CLKSOURCE_Msk |
 8001186:	2207      	movs	r2, #7
  SysTick->VAL   = 0UL;                                             /* Load the SysTick Counter Value */
 8001188:	6098      	str	r0, [r3, #8]
  SysTick->CTRL  = SysTick_CTRL_CLKSOURCE_Msk |
 800118a:	601a      	str	r2, [r3, #0]
 800118c:	4770      	bx	lr
    return (1UL);                                                   /* Reload value impossible */
 800118e:	2001      	movs	r0, #1
  *                  - 1  Function failed.
  */
uint32_t HAL_SYSTICK_Config(uint32_t TicksNumb)
{
   return SysTick_Config(TicksNumb);
}
 8001190:	4770      	bx	lr
 8001192:	bf00      	nop
 8001194:	e000e010 	.word	0xe000e010
 8001198:	e000ed00 	.word	0xe000ed00

0800119c <HAL_DMA_Abort_IT>:
  */
HAL_StatusTypeDef HAL_DMA_Abort_IT(DMA_HandleTypeDef *hdma)
{
  HAL_StatusTypeDef status = HAL_OK;

  if(HAL_DMA_STATE_BUSY != hdma->State)
 800119c:	f890 2025 	ldrb.w	r2, [r0, #37]	; 0x25
 80011a0:	2a02      	cmp	r2, #2
{
 80011a2:	b510      	push	{r4, lr}
  if(HAL_DMA_STATE_BUSY != hdma->State)
 80011a4:	d003      	beq.n	80011ae <HAL_DMA_Abort_IT+0x12>
  {
    /* no transfer ongoing */
    hdma->ErrorCode = HAL_DMA_ERROR_NO_XFER;
 80011a6:	2204      	movs	r2, #4
 80011a8:	63c2      	str	r2, [r0, #60]	; 0x3c

    status = HAL_ERROR;
 80011aa:	2001      	movs	r0, #1
 80011ac:	bd10      	pop	{r4, pc}
  }
  else
  {
    /* Disable DMA IT */
    __HAL_DMA_DISABLE_IT(hdma, (DMA_IT_TC | DMA_IT_HT | DMA_IT_TE));
 80011ae:	6802      	ldr	r2, [r0, #0]
      hdma->DMAmuxRequestGenStatus->RGCFR = hdma->DMAmuxRequestGenStatusMask;
    }

#else
    /* Clear all flags */
    hdma->DmaBaseAddress->IFCR = (DMA_ISR_GIF1 << (hdma->ChannelIndex & 0x1cU));
 80011b0:	6c04      	ldr	r4, [r0, #64]	; 0x40
    __HAL_DMA_DISABLE_IT(hdma, (DMA_IT_TC | DMA_IT_HT | DMA_IT_TE));
 80011b2:	6811      	ldr	r1, [r2, #0]

    /* Process Unlocked */
    __HAL_UNLOCK(hdma);

    /* Call User Abort callback */
    if(hdma->XferAbortCallback != NULL)
 80011b4:	6b83      	ldr	r3, [r0, #56]	; 0x38
    __HAL_DMA_DISABLE_IT(hdma, (DMA_IT_TC | DMA_IT_HT | DMA_IT_TE));
 80011b6:	f021 010e 	bic.w	r1, r1, #14
 80011ba:	6011      	str	r1, [r2, #0]
    __HAL_DMA_DISABLE(hdma);
 80011bc:	6811      	ldr	r1, [r2, #0]
 80011be:	f021 0101 	bic.w	r1, r1, #1
 80011c2:	6011      	str	r1, [r2, #0]
    hdma->DmaBaseAddress->IFCR = (DMA_ISR_GIF1 << (hdma->ChannelIndex & 0x1cU));
 80011c4:	6c42      	ldr	r2, [r0, #68]	; 0x44
 80011c6:	2101      	movs	r1, #1
 80011c8:	f002 021c 	and.w	r2, r2, #28
 80011cc:	fa01 f202 	lsl.w	r2, r1, r2
 80011d0:	6062      	str	r2, [r4, #4]
    __HAL_UNLOCK(hdma);
 80011d2:	2400      	movs	r4, #0
    hdma->State = HAL_DMA_STATE_READY;
 80011d4:	f880 1025 	strb.w	r1, [r0, #37]	; 0x25
    __HAL_UNLOCK(hdma);
 80011d8:	f880 4024 	strb.w	r4, [r0, #36]	; 0x24
    if(hdma->XferAbortCallback != NULL)
 80011dc:	b113      	cbz	r3, 80011e4 <HAL_DMA_Abort_IT+0x48>
    {
      hdma->XferAbortCallback(hdma);
 80011de:	4798      	blx	r3
  HAL_StatusTypeDef status = HAL_OK;
 80011e0:	4620      	mov	r0, r4
 80011e2:	bd10      	pop	{r4, pc}
 80011e4:	4618      	mov	r0, r3
    }
  }
  return status;
}
 80011e6:	bd10      	pop	{r4, pc}

080011e8 <HAL_GPIO_Init>:
  * @param  GPIO_Init: pointer to a GPIO_InitTypeDef structure that contains
  *         the configuration information for the specified GPIO peripheral.
  * @retval None
  */
void HAL_GPIO_Init(GPIO_TypeDef  *GPIOx, GPIO_InitTypeDef *GPIO_Init)
{
 80011e8:	e92d 4ff0 	stmdb	sp!, {r4, r5, r6, r7, r8, r9, sl, fp, lr}
 80011ec:	b085      	sub	sp, #20
  assert_param(IS_GPIO_PIN(GPIO_Init->Pin));
  assert_param(IS_GPIO_MODE(GPIO_Init->Mode));
  assert_param(IS_GPIO_PULL(GPIO_Init->Pull));

  /* Configure the port pins */
  while (((GPIO_Init->Pin) >> position) != 0x00u)
 80011ee:	680b      	ldr	r3, [r1, #0]
      /*--------------------- EXTI Mode Configuration ------------------------*/
      /* Configure the External Interrupt or event for the current IO */
      if((GPIO_Init->Mode & EXTI_MODE) == EXTI_MODE)
      {
        /* Enable SYSCFG Clock */
        __HAL_RCC_SYSCFG_CLK_ENABLE();
 80011f0:	f8df 81a8 	ldr.w	r8, [pc, #424]	; 800139c <HAL_GPIO_Init+0x1b4>
        temp &= ~(0x0FuL << (4u * (position & 0x03u)));
        temp |= (GPIO_GET_INDEX(GPIOx) << (4u * (position & 0x03u)));
        SYSCFG->EXTICR[position >> 2u] = temp;

        /* Clear EXTI line configuration */
        temp = EXTI->IMR1;
 80011f4:	4c67      	ldr	r4, [pc, #412]	; (8001394 <HAL_GPIO_Init+0x1ac>)
  while (((GPIO_Init->Pin) >> position) != 0x00u)
 80011f6:	9301      	str	r3, [sp, #4]
  uint32_t position = 0x00u;
 80011f8:	2300      	movs	r3, #0
  while (((GPIO_Init->Pin) >> position) != 0x00u)
 80011fa:	9a01      	ldr	r2, [sp, #4]
 80011fc:	40da      	lsrs	r2, r3
 80011fe:	d102      	bne.n	8001206 <HAL_GPIO_Init+0x1e>
      }
    }

    position++;
  }
}
 8001200:	b005      	add	sp, #20
 8001202:	e8bd 8ff0 	ldmia.w	sp!, {r4, r5, r6, r7, r8, r9, sl, fp, pc}
    iocurrent = (GPIO_Init->Pin) & (1uL << position);
 8001206:	2601      	movs	r6, #1
    if (iocurrent != 0x00u)
 8001208:	9a01      	ldr	r2, [sp, #4]
    iocurrent = (GPIO_Init->Pin) & (1uL << position);
 800120a:	409e      	lsls	r6, r3
    if (iocurrent != 0x00u)
 800120c:	ea12 0e06 	ands.w	lr, r2, r6
 8001210:	f000 80b1 	beq.w	8001376 <HAL_GPIO_Init+0x18e>
      if((GPIO_Init->Mode == GPIO_MODE_AF_PP) || (GPIO_Init->Mode == GPIO_MODE_AF_OD))
 8001214:	684a      	ldr	r2, [r1, #4]
 8001216:	f022 0710 	bic.w	r7, r2, #16
 800121a:	2f02      	cmp	r7, #2
 800121c:	d116      	bne.n	800124c <HAL_GPIO_Init+0x64>
        temp = GPIOx->AFR[position >> 3u];
 800121e:	ea4f 09d3 	mov.w	r9, r3, lsr #3
 8001222:	eb00 0989 	add.w	r9, r0, r9, lsl #2
        temp &= ~(0xFu << ((position & 0x07u) * 4u));
 8001226:	f003 0a07 	and.w	sl, r3, #7
        temp = GPIOx->AFR[position >> 3u];
 800122a:	f8d9 5020 	ldr.w	r5, [r9, #32]
        temp &= ~(0xFu << ((position & 0x07u) * 4u));
 800122e:	ea4f 0a8a 	mov.w	sl, sl, lsl #2
 8001232:	f04f 0c0f 	mov.w	ip, #15
 8001236:	fa0c fc0a 	lsl.w	ip, ip, sl
 800123a:	ea25 0c0c 	bic.w	ip, r5, ip
        temp |= ((GPIO_Init->Alternate) << ((position & 0x07u) * 4u));
 800123e:	690d      	ldr	r5, [r1, #16]
 8001240:	fa05 f50a 	lsl.w	r5, r5, sl
 8001244:	ea45 050c 	orr.w	r5, r5, ip
        GPIOx->AFR[position >> 3u] = temp;
 8001248:	f8c9 5020 	str.w	r5, [r9, #32]
 800124c:	ea4f 0c43 	mov.w	ip, r3, lsl #1
      temp &= ~(GPIO_MODER_MODE0 << (position * 2u));
 8001250:	2503      	movs	r5, #3
      temp = GPIOx->MODER;
 8001252:	f8d0 b000 	ldr.w	fp, [r0]
      temp &= ~(GPIO_MODER_MODE0 << (position * 2u));
 8001256:	fa05 f50c 	lsl.w	r5, r5, ip
 800125a:	43ed      	mvns	r5, r5
      temp |= ((GPIO_Init->Mode & GPIO_MODE) << (position * 2u));
 800125c:	f002 0a03 	and.w	sl, r2, #3
      temp &= ~(GPIO_MODER_MODE0 << (position * 2u));
 8001260:	ea0b 0b05 	and.w	fp, fp, r5
      temp |= ((GPIO_Init->Mode & GPIO_MODE) << (position * 2u));
 8001264:	fa0a f90c 	lsl.w	r9, sl, ip
      if((GPIO_Init->Mode == GPIO_MODE_OUTPUT_PP) || (GPIO_Init->Mode == GPIO_MODE_AF_PP) ||
 8001268:	3f01      	subs	r7, #1
      temp |= ((GPIO_Init->Mode & GPIO_MODE) << (position * 2u));
 800126a:	ea49 090b 	orr.w	r9, r9, fp
      if((GPIO_Init->Mode == GPIO_MODE_OUTPUT_PP) || (GPIO_Init->Mode == GPIO_MODE_AF_PP) ||
 800126e:	2f01      	cmp	r7, #1
      GPIOx->MODER = temp;
 8001270:	f8c0 9000 	str.w	r9, [r0]
      if((GPIO_Init->Mode == GPIO_MODE_OUTPUT_PP) || (GPIO_Init->Mode == GPIO_MODE_AF_PP) ||
 8001274:	d811      	bhi.n	800129a <HAL_GPIO_Init+0xb2>
        temp = GPIOx->OSPEEDR;
 8001276:	6887      	ldr	r7, [r0, #8]
        temp &= ~(GPIO_OSPEEDR_OSPEED0 << (position * 2u));
 8001278:	ea05 0907 	and.w	r9, r5, r7
        temp |= (GPIO_Init->Speed << (position * 2u));
 800127c:	68cf      	ldr	r7, [r1, #12]
 800127e:	fa07 f70c 	lsl.w	r7, r7, ip
 8001282:	ea47 0709 	orr.w	r7, r7, r9
        GPIOx->OSPEEDR = temp;
 8001286:	6087      	str	r7, [r0, #8]
        temp = GPIOx->OTYPER;
 8001288:	6847      	ldr	r7, [r0, #4]
        temp &= ~(GPIO_OTYPER_OT0 << position) ;
 800128a:	ea27 0906 	bic.w	r9, r7, r6
        temp |= (((GPIO_Init->Mode & GPIO_OUTPUT_TYPE) >> 4u) << position);
 800128e:	f3c2 1700 	ubfx	r7, r2, #4, #1
 8001292:	409f      	lsls	r7, r3
 8001294:	ea47 0709 	orr.w	r7, r7, r9
        GPIOx->OTYPER = temp;
 8001298:	6047      	str	r7, [r0, #4]
      if((GPIO_Init->Mode & GPIO_MODE_ANALOG) == GPIO_MODE_ANALOG)
 800129a:	f1ba 0f03 	cmp.w	sl, #3
 800129e:	d107      	bne.n	80012b0 <HAL_GPIO_Init+0xc8>
        temp = GPIOx->ASCR;
 80012a0:	6ac7      	ldr	r7, [r0, #44]	; 0x2c
        temp &= ~(GPIO_ASCR_ASC0 << position) ;
 80012a2:	ea27 0606 	bic.w	r6, r7, r6
        temp |= (((GPIO_Init->Mode & ANALOG_MODE) >> 3) << position);
 80012a6:	f3c2 07c0 	ubfx	r7, r2, #3, #1
 80012aa:	409f      	lsls	r7, r3
 80012ac:	433e      	orrs	r6, r7
        GPIOx->ASCR = temp;
 80012ae:	62c6      	str	r6, [r0, #44]	; 0x2c
      temp = GPIOx->PUPDR;
 80012b0:	68c6      	ldr	r6, [r0, #12]
      temp &= ~(GPIO_PUPDR_PUPD0 << (position * 2u));
 80012b2:	4035      	ands	r5, r6
      temp |= ((GPIO_Init->Pull) << (position * 2u));
 80012b4:	688e      	ldr	r6, [r1, #8]
 80012b6:	fa06 f60c 	lsl.w	r6, r6, ip
 80012ba:	4335      	orrs	r5, r6
      GPIOx->PUPDR = temp;
 80012bc:	60c5      	str	r5, [r0, #12]
      if((GPIO_Init->Mode & EXTI_MODE) == EXTI_MODE)
 80012be:	00d5      	lsls	r5, r2, #3
 80012c0:	d559      	bpl.n	8001376 <HAL_GPIO_Init+0x18e>
        __HAL_RCC_SYSCFG_CLK_ENABLE();
 80012c2:	f8d8 5060 	ldr.w	r5, [r8, #96]	; 0x60
 80012c6:	f045 0501 	orr.w	r5, r5, #1
 80012ca:	f8c8 5060 	str.w	r5, [r8, #96]	; 0x60
 80012ce:	f8d8 5060 	ldr.w	r5, [r8, #96]	; 0x60
 80012d2:	f023 0603 	bic.w	r6, r3, #3
 80012d6:	f106 4680 	add.w	r6, r6, #1073741824	; 0x40000000
 80012da:	f005 0501 	and.w	r5, r5, #1
 80012de:	f506 3680 	add.w	r6, r6, #65536	; 0x10000
 80012e2:	9503      	str	r5, [sp, #12]
        temp &= ~(0x0FuL << (4u * (position & 0x03u)));
 80012e4:	f003 0c03 	and.w	ip, r3, #3
        __HAL_RCC_SYSCFG_CLK_ENABLE();
 80012e8:	9d03      	ldr	r5, [sp, #12]
        temp = SYSCFG->EXTICR[position >> 2u];
 80012ea:	68b5      	ldr	r5, [r6, #8]
        temp &= ~(0x0FuL << (4u * (position & 0x03u)));
 80012ec:	ea4f 0c8c 	mov.w	ip, ip, lsl #2
 80012f0:	270f      	movs	r7, #15
 80012f2:	fa07 f70c 	lsl.w	r7, r7, ip
        temp |= (GPIO_GET_INDEX(GPIOx) << (4u * (position & 0x03u)));
 80012f6:	f1b0 4f90 	cmp.w	r0, #1207959552	; 0x48000000
        temp &= ~(0x0FuL << (4u * (position & 0x03u)));
 80012fa:	ea25 0707 	bic.w	r7, r5, r7
        temp |= (GPIO_GET_INDEX(GPIOx) << (4u * (position & 0x03u)));
 80012fe:	d03c      	beq.n	800137a <HAL_GPIO_Init+0x192>
 8001300:	4d25      	ldr	r5, [pc, #148]	; (8001398 <HAL_GPIO_Init+0x1b0>)
 8001302:	42a8      	cmp	r0, r5
 8001304:	d03b      	beq.n	800137e <HAL_GPIO_Init+0x196>
 8001306:	f505 6580 	add.w	r5, r5, #1024	; 0x400
 800130a:	42a8      	cmp	r0, r5
 800130c:	d039      	beq.n	8001382 <HAL_GPIO_Init+0x19a>
 800130e:	f505 6580 	add.w	r5, r5, #1024	; 0x400
 8001312:	42a8      	cmp	r0, r5
 8001314:	d037      	beq.n	8001386 <HAL_GPIO_Init+0x19e>
 8001316:	f505 6580 	add.w	r5, r5, #1024	; 0x400
 800131a:	42a8      	cmp	r0, r5
 800131c:	d035      	beq.n	800138a <HAL_GPIO_Init+0x1a2>
 800131e:	f505 6580 	add.w	r5, r5, #1024	; 0x400
 8001322:	42a8      	cmp	r0, r5
 8001324:	d033      	beq.n	800138e <HAL_GPIO_Init+0x1a6>
 8001326:	f505 6580 	add.w	r5, r5, #1024	; 0x400
 800132a:	42a8      	cmp	r0, r5
 800132c:	bf14      	ite	ne
 800132e:	2507      	movne	r5, #7
 8001330:	2506      	moveq	r5, #6
 8001332:	fa05 f50c 	lsl.w	r5, r5, ip
 8001336:	433d      	orrs	r5, r7
        SYSCFG->EXTICR[position >> 2u] = temp;
 8001338:	60b5      	str	r5, [r6, #8]
        temp = EXTI->IMR1;
 800133a:	6825      	ldr	r5, [r4, #0]
        temp &= ~(iocurrent);
 800133c:	ea6f 060e 	mvn.w	r6, lr
        if((GPIO_Init->Mode & GPIO_MODE_IT) == GPIO_MODE_IT)
 8001340:	03d7      	lsls	r7, r2, #15
        temp &= ~(iocurrent);
 8001342:	bf54      	ite	pl
 8001344:	4035      	andpl	r5, r6
          temp |= iocurrent;
 8001346:	ea4e 0505 	orrmi.w	r5, lr, r5
        EXTI->IMR1 = temp;
 800134a:	6025      	str	r5, [r4, #0]
        temp = EXTI->EMR1;
 800134c:	6865      	ldr	r5, [r4, #4]
        if((GPIO_Init->Mode & GPIO_MODE_EVT) == GPIO_MODE_EVT)
 800134e:	0397      	lsls	r7, r2, #14
        temp &= ~(iocurrent);
 8001350:	bf54      	ite	pl
 8001352:	4035      	andpl	r5, r6
          temp |= iocurrent;
 8001354:	ea4e 0505 	orrmi.w	r5, lr, r5
        EXTI->EMR1 = temp;
 8001358:	6065      	str	r5, [r4, #4]
        temp = EXTI->RTSR1;
 800135a:	68a5      	ldr	r5, [r4, #8]
        if((GPIO_Init->Mode & RISING_EDGE) == RISING_EDGE)
 800135c:	02d7      	lsls	r7, r2, #11
        temp &= ~(iocurrent);
 800135e:	bf54      	ite	pl
 8001360:	4035      	andpl	r5, r6
          temp |= iocurrent;
 8001362:	ea4e 0505 	orrmi.w	r5, lr, r5
        EXTI->RTSR1 = temp;
 8001366:	60a5      	str	r5, [r4, #8]
        temp = EXTI->FTSR1;
 8001368:	68e5      	ldr	r5, [r4, #12]
        if((GPIO_Init->Mode & FALLING_EDGE) == FALLING_EDGE)
 800136a:	0292      	lsls	r2, r2, #10
        temp &= ~(iocurrent);
 800136c:	bf54      	ite	pl
 800136e:	4035      	andpl	r5, r6
          temp |= iocurrent;
 8001370:	ea4e 0505 	orrmi.w	r5, lr, r5
        EXTI->FTSR1 = temp;
 8001374:	60e5      	str	r5, [r4, #12]
    position++;
 8001376:	3301      	adds	r3, #1
 8001378:	e73f      	b.n	80011fa <HAL_GPIO_Init+0x12>
        temp |= (GPIO_GET_INDEX(GPIOx) << (4u * (position & 0x03u)));
 800137a:	2500      	movs	r5, #0
 800137c:	e7d9      	b.n	8001332 <HAL_GPIO_Init+0x14a>
 800137e:	2501      	movs	r5, #1
 8001380:	e7d7      	b.n	8001332 <HAL_GPIO_Init+0x14a>
 8001382:	2502      	movs	r5, #2
 8001384:	e7d5      	b.n	8001332 <HAL_GPIO_Init+0x14a>
 8001386:	2503      	movs	r5, #3
 8001388:	e7d3      	b.n	8001332 <HAL_GPIO_Init+0x14a>
 800138a:	2504      	movs	r5, #4
 800138c:	e7d1      	b.n	8001332 <HAL_GPIO_Init+0x14a>
 800138e:	2505      	movs	r5, #5
 8001390:	e7cf      	b.n	8001332 <HAL_GPIO_Init+0x14a>
 8001392:	bf00      	nop
 8001394:	40010400 	.word	0x40010400
 8001398:	48000400 	.word	0x48000400
 800139c:	40021000 	.word	0x40021000

080013a0 <I2C_Flush_TXDR>:
  */
static void I2C_Flush_TXDR(I2C_HandleTypeDef *hi2c)
{
  /* If a pending TXIS flag is set */
  /* Write a dummy data in TXDR to clear it */
  if (__HAL_I2C_GET_FLAG(hi2c, I2C_FLAG_TXIS) != RESET)
 80013a0:	6803      	ldr	r3, [r0, #0]
 80013a2:	699a      	ldr	r2, [r3, #24]
 80013a4:	0791      	lsls	r1, r2, #30
  {
    hi2c->Instance->TXDR = 0x00U;
 80013a6:	bf44      	itt	mi
 80013a8:	2200      	movmi	r2, #0
 80013aa:	629a      	strmi	r2, [r3, #40]	; 0x28
  }

  /* Flush TX register if not empty */
  if (__HAL_I2C_GET_FLAG(hi2c, I2C_FLAG_TXE) == RESET)
 80013ac:	699a      	ldr	r2, [r3, #24]
 80013ae:	07d2      	lsls	r2, r2, #31
  {
    __HAL_I2C_CLEAR_FLAG(hi2c, I2C_FLAG_TXE);
 80013b0:	bf5e      	ittt	pl
 80013b2:	699a      	ldrpl	r2, [r3, #24]
 80013b4:	f042 0201 	orrpl.w	r2, r2, #1
 80013b8:	619a      	strpl	r2, [r3, #24]
 80013ba:	4770      	bx	lr

080013bc <I2C_TransferConfig>:
  *     @arg @ref I2C_GENERATE_START_READ Generate Restart for read request.
  *     @arg @ref I2C_GENERATE_START_WRITE Generate Restart for write request.
  * @retval None
  */
static void I2C_TransferConfig(I2C_HandleTypeDef *hi2c, uint16_t DevAddress, uint8_t Size, uint32_t Mode, uint32_t Request)
{
 80013bc:	b530      	push	{r4, r5, lr}
 80013be:	9c03      	ldr	r4, [sp, #12]
  assert_param(IS_I2C_ALL_INSTANCE(hi2c->Instance));
  assert_param(IS_TRANSFER_MODE(Mode));
  assert_param(IS_TRANSFER_REQUEST(Request));

  /* update CR2 register */
  MODIFY_REG(hi2c->Instance->CR2, ((I2C_CR2_SADD | I2C_CR2_NBYTES | I2C_CR2_RELOAD | I2C_CR2_AUTOEND | (I2C_CR2_RD_WRN & (uint32_t)(Request >> (31U - I2C_CR2_RD_WRN_Pos))) | I2C_CR2_START | I2C_CR2_STOP)), \
 80013c0:	6805      	ldr	r5, [r0, #0]
 80013c2:	4323      	orrs	r3, r4
 80013c4:	0d64      	lsrs	r4, r4, #21
 80013c6:	f404 6480 	and.w	r4, r4, #1024	; 0x400
 80013ca:	f044 747f 	orr.w	r4, r4, #66846720	; 0x3fc0000
 80013ce:	f444 3458 	orr.w	r4, r4, #221184	; 0x36000
 80013d2:	6868      	ldr	r0, [r5, #4]
 80013d4:	f3c1 0109 	ubfx	r1, r1, #0, #10
 80013d8:	f444 747f 	orr.w	r4, r4, #1020	; 0x3fc
 80013dc:	4319      	orrs	r1, r3
 80013de:	f044 0403 	orr.w	r4, r4, #3
 80013e2:	ea41 4102 	orr.w	r1, r1, r2, lsl #16
 80013e6:	ea20 0404 	bic.w	r4, r0, r4
 80013ea:	4321      	orrs	r1, r4
 80013ec:	6069      	str	r1, [r5, #4]
 80013ee:	bd30      	pop	{r4, r5, pc}

080013f0 <I2C_Disable_IRQ>:
  */
static void I2C_Disable_IRQ(I2C_HandleTypeDef *hi2c, uint16_t InterruptRequest)
{
  uint32_t tmpisr = 0U;

  if ((InterruptRequest & I2C_XFER_TX_IT) == I2C_XFER_TX_IT)
 80013f0:	f011 0301 	ands.w	r3, r1, #1
 80013f4:	d007      	beq.n	8001406 <I2C_Disable_IRQ+0x16>
  {
    /* Disable TC and TXI interrupts */
    tmpisr |= I2C_IT_TCI | I2C_IT_TXI;

    if (((uint32_t)hi2c->State & (uint32_t)HAL_I2C_STATE_LISTEN) != (uint32_t)HAL_I2C_STATE_LISTEN)
 80013f6:	f890 3041 	ldrb.w	r3, [r0, #65]	; 0x41
 80013fa:	f003 0328 	and.w	r3, r3, #40	; 0x28
    {
      /* Disable NACK and STOP interrupts */
      tmpisr |= I2C_IT_STOPI | I2C_IT_NACKI | I2C_IT_ERRI;
 80013fe:	2b28      	cmp	r3, #40	; 0x28
 8001400:	bf0c      	ite	eq
 8001402:	2342      	moveq	r3, #66	; 0x42
 8001404:	23f2      	movne	r3, #242	; 0xf2
    }
  }

  if ((InterruptRequest & I2C_XFER_RX_IT) == I2C_XFER_RX_IT)
 8001406:	078a      	lsls	r2, r1, #30
 8001408:	d509      	bpl.n	800141e <I2C_Disable_IRQ+0x2e>
  {
    /* Disable TC and RXI interrupts */
    tmpisr |= I2C_IT_TCI | I2C_IT_RXI;

    if (((uint32_t)hi2c->State & (uint32_t)HAL_I2C_STATE_LISTEN) != (uint32_t)HAL_I2C_STATE_LISTEN)
 800140a:	f890 2041 	ldrb.w	r2, [r0, #65]	; 0x41
 800140e:	f002 0228 	and.w	r2, r2, #40	; 0x28
 8001412:	2a28      	cmp	r2, #40	; 0x28
    tmpisr |= I2C_IT_TCI | I2C_IT_RXI;
 8001414:	bf0c      	ite	eq
 8001416:	f043 0344 	orreq.w	r3, r3, #68	; 0x44
    {
      /* Disable NACK and STOP interrupts */
      tmpisr |= I2C_IT_STOPI | I2C_IT_NACKI | I2C_IT_ERRI;
 800141a:	f043 03f4 	orrne.w	r3, r3, #244	; 0xf4
    }
  }

  if ((InterruptRequest & I2C_XFER_LISTEN_IT) == I2C_XFER_LISTEN_IT)
 800141e:	074a      	lsls	r2, r1, #29
  {
    /* Disable ADDR, NACK and STOP interrupts */
    tmpisr |= I2C_IT_ADDRI | I2C_IT_STOPI | I2C_IT_NACKI | I2C_IT_ERRI;
  }

  if ((InterruptRequest & I2C_XFER_ERROR_IT) == I2C_XFER_ERROR_IT)
 8001420:	f001 0211 	and.w	r2, r1, #17
    tmpisr |= I2C_IT_ADDRI | I2C_IT_STOPI | I2C_IT_NACKI | I2C_IT_ERRI;
 8001424:	bf48      	it	mi
 8001426:	f043 03b8 	orrmi.w	r3, r3, #184	; 0xb8
  {
    /* Enable ERR and NACK interrupts */
    tmpisr |= I2C_IT_ERRI | I2C_IT_NACKI;
  }

  if ((InterruptRequest & I2C_XFER_CPLT_IT) == I2C_XFER_CPLT_IT)
 800142a:	f001 0112 	and.w	r1, r1, #18
  if ((InterruptRequest & I2C_XFER_ERROR_IT) == I2C_XFER_ERROR_IT)
 800142e:	2a11      	cmp	r2, #17
    tmpisr |= I2C_IT_ERRI | I2C_IT_NACKI;
 8001430:	bf08      	it	eq
 8001432:	f043 0390 	orreq.w	r3, r3, #144	; 0x90
  if ((InterruptRequest & I2C_XFER_CPLT_IT) == I2C_XFER_CPLT_IT)
 8001436:	2912      	cmp	r1, #18
  }

  /* Disable interrupts only at the end */
  /* to avoid a breaking situation like at "t" time */
  /* all disable interrupts request are not done */
  __HAL_I2C_DISABLE_IT(hi2c, tmpisr);
 8001438:	6801      	ldr	r1, [r0, #0]
 800143a:	680a      	ldr	r2, [r1, #0]
    tmpisr |= I2C_IT_TCI;
 800143c:	bf08      	it	eq
 800143e:	f043 0360 	orreq.w	r3, r3, #96	; 0x60
  __HAL_I2C_DISABLE_IT(hi2c, tmpisr);
 8001442:	ea22 0303 	bic.w	r3, r2, r3
 8001446:	600b      	str	r3, [r1, #0]
 8001448:	4770      	bx	lr

0800144a <I2C_WaitOnFlagUntilTimeout>:
{
 800144a:	e92d 41f0 	stmdb	sp!, {r4, r5, r6, r7, r8, lr}
 800144e:	9f06      	ldr	r7, [sp, #24]
 8001450:	4604      	mov	r4, r0
 8001452:	4688      	mov	r8, r1
 8001454:	4616      	mov	r6, r2
 8001456:	461d      	mov	r5, r3
  while (__HAL_I2C_GET_FLAG(hi2c, Flag) == Status)
 8001458:	6822      	ldr	r2, [r4, #0]
 800145a:	6993      	ldr	r3, [r2, #24]
 800145c:	ea38 0303 	bics.w	r3, r8, r3
 8001460:	bf0c      	ite	eq
 8001462:	2301      	moveq	r3, #1
 8001464:	2300      	movne	r3, #0
 8001466:	42b3      	cmp	r3, r6
 8001468:	d002      	beq.n	8001470 <I2C_WaitOnFlagUntilTimeout+0x26>
  return HAL_OK;
 800146a:	2000      	movs	r0, #0
}
 800146c:	e8bd 81f0 	ldmia.w	sp!, {r4, r5, r6, r7, r8, pc}
    if (Timeout != HAL_MAX_DELAY)
 8001470:	1c6b      	adds	r3, r5, #1
 8001472:	d0f2      	beq.n	800145a <I2C_WaitOnFlagUntilTimeout+0x10>
      if (((HAL_GetTick() - Tickstart) > Timeout) || (Timeout == 0U))
 8001474:	f7ff f8ba 	bl	80005ec <HAL_GetTick>
 8001478:	1bc0      	subs	r0, r0, r7
 800147a:	4285      	cmp	r5, r0
 800147c:	d301      	bcc.n	8001482 <I2C_WaitOnFlagUntilTimeout+0x38>
 800147e:	2d00      	cmp	r5, #0
 8001480:	d1ea      	bne.n	8001458 <I2C_WaitOnFlagUntilTimeout+0xe>
      hi2c->ErrorCode |= HAL_I2C_ERROR_TIMEOUT;
 8001482:	6c63      	ldr	r3, [r4, #68]	; 0x44
 8001484:	f043 0320 	orr.w	r3, r3, #32
 8001488:	6463      	str	r3, [r4, #68]	; 0x44
      hi2c->State = HAL_I2C_STATE_READY;
 800148a:	2320      	movs	r3, #32
 800148c:	f884 3041 	strb.w	r3, [r4, #65]	; 0x41
      hi2c->Mode = HAL_I2C_MODE_NONE;
 8001490:	2300      	movs	r3, #0
 8001492:	f884 3042 	strb.w	r3, [r4, #66]	; 0x42
      __HAL_UNLOCK(hi2c);
 8001496:	f884 3040 	strb.w	r3, [r4, #64]	; 0x40
 800149a:	2001      	movs	r0, #1
 800149c:	e8bd 81f0 	ldmia.w	sp!, {r4, r5, r6, r7, r8, pc}

080014a0 <I2C_IsAcknowledgeFailed>:
  if (__HAL_I2C_GET_FLAG(hi2c, I2C_FLAG_AF) == SET)
 80014a0:	6803      	ldr	r3, [r0, #0]
{
 80014a2:	b570      	push	{r4, r5, r6, lr}
 80014a4:	4604      	mov	r4, r0
  if (__HAL_I2C_GET_FLAG(hi2c, I2C_FLAG_AF) == SET)
 80014a6:	6998      	ldr	r0, [r3, #24]
 80014a8:	f010 0010 	ands.w	r0, r0, #16
{
 80014ac:	460d      	mov	r5, r1
 80014ae:	4616      	mov	r6, r2
  if (__HAL_I2C_GET_FLAG(hi2c, I2C_FLAG_AF) == SET)
 80014b0:	d116      	bne.n	80014e0 <I2C_IsAcknowledgeFailed+0x40>
 80014b2:	bd70      	pop	{r4, r5, r6, pc}
      if (Timeout != HAL_MAX_DELAY)
 80014b4:	1c69      	adds	r1, r5, #1
 80014b6:	d014      	beq.n	80014e2 <I2C_IsAcknowledgeFailed+0x42>
        if (((HAL_GetTick() - Tickstart) > Timeout) || (Timeout == 0U))
 80014b8:	f7ff f898 	bl	80005ec <HAL_GetTick>
 80014bc:	1b80      	subs	r0, r0, r6
 80014be:	4285      	cmp	r5, r0
 80014c0:	d300      	bcc.n	80014c4 <I2C_IsAcknowledgeFailed+0x24>
 80014c2:	b96d      	cbnz	r5, 80014e0 <I2C_IsAcknowledgeFailed+0x40>
      hi2c->ErrorCode |= HAL_I2C_ERROR_TIMEOUT;
 80014c4:	6c63      	ldr	r3, [r4, #68]	; 0x44
 80014c6:	f043 0320 	orr.w	r3, r3, #32
 80014ca:	6463      	str	r3, [r4, #68]	; 0x44
      hi2c->State = HAL_I2C_STATE_READY;
 80014cc:	2320      	movs	r3, #32
 80014ce:	f884 3041 	strb.w	r3, [r4, #65]	; 0x41
    hi2c->Mode = HAL_I2C_MODE_NONE;
 80014d2:	2300      	movs	r3, #0
 80014d4:	f884 3042 	strb.w	r3, [r4, #66]	; 0x42
    __HAL_UNLOCK(hi2c);
 80014d8:	f884 3040 	strb.w	r3, [r4, #64]	; 0x40
    return HAL_ERROR;
 80014dc:	2001      	movs	r0, #1
}
 80014de:	bd70      	pop	{r4, r5, r6, pc}
    while (__HAL_I2C_GET_FLAG(hi2c, I2C_FLAG_STOPF) == RESET)
 80014e0:	6823      	ldr	r3, [r4, #0]
 80014e2:	6999      	ldr	r1, [r3, #24]
 80014e4:	068a      	lsls	r2, r1, #26
 80014e6:	d5e5      	bpl.n	80014b4 <I2C_IsAcknowledgeFailed+0x14>
    __HAL_I2C_CLEAR_FLAG(hi2c, I2C_FLAG_AF);
 80014e8:	2210      	movs	r2, #16
    __HAL_I2C_CLEAR_FLAG(hi2c, I2C_FLAG_STOPF);
 80014ea:	2520      	movs	r5, #32
    __HAL_I2C_CLEAR_FLAG(hi2c, I2C_FLAG_AF);
 80014ec:	61da      	str	r2, [r3, #28]
    I2C_Flush_TXDR(hi2c);
 80014ee:	4620      	mov	r0, r4
    __HAL_I2C_CLEAR_FLAG(hi2c, I2C_FLAG_STOPF);
 80014f0:	61dd      	str	r5, [r3, #28]
    I2C_Flush_TXDR(hi2c);
 80014f2:	f7ff ff55 	bl	80013a0 <I2C_Flush_TXDR>
    I2C_RESET_CR2(hi2c);
 80014f6:	6822      	ldr	r2, [r4, #0]
 80014f8:	6853      	ldr	r3, [r2, #4]
 80014fa:	f023 73ff 	bic.w	r3, r3, #33423360	; 0x1fe0000
 80014fe:	f423 338b 	bic.w	r3, r3, #71168	; 0x11600
 8001502:	f423 73ff 	bic.w	r3, r3, #510	; 0x1fe
 8001506:	f023 0301 	bic.w	r3, r3, #1
 800150a:	6053      	str	r3, [r2, #4]
    hi2c->ErrorCode |= HAL_I2C_ERROR_AF;
 800150c:	6c63      	ldr	r3, [r4, #68]	; 0x44
 800150e:	f043 0304 	orr.w	r3, r3, #4
 8001512:	6463      	str	r3, [r4, #68]	; 0x44
    hi2c->State = HAL_I2C_STATE_READY;
 8001514:	f884 5041 	strb.w	r5, [r4, #65]	; 0x41
 8001518:	e7db      	b.n	80014d2 <I2C_IsAcknowledgeFailed+0x32>

0800151a <I2C_WaitOnTXISFlagUntilTimeout>:
{
 800151a:	b570      	push	{r4, r5, r6, lr}
 800151c:	4604      	mov	r4, r0
 800151e:	460d      	mov	r5, r1
 8001520:	4616      	mov	r6, r2
  while (__HAL_I2C_GET_FLAG(hi2c, I2C_FLAG_TXIS) == RESET)
 8001522:	6823      	ldr	r3, [r4, #0]
 8001524:	699b      	ldr	r3, [r3, #24]
 8001526:	079b      	lsls	r3, r3, #30
 8001528:	d501      	bpl.n	800152e <I2C_WaitOnTXISFlagUntilTimeout+0x14>
  return HAL_OK;
 800152a:	2000      	movs	r0, #0
 800152c:	bd70      	pop	{r4, r5, r6, pc}
    if (I2C_IsAcknowledgeFailed(hi2c, Timeout, Tickstart) != HAL_OK)
 800152e:	4632      	mov	r2, r6
 8001530:	4629      	mov	r1, r5
 8001532:	4620      	mov	r0, r4
 8001534:	f7ff ffb4 	bl	80014a0 <I2C_IsAcknowledgeFailed>
 8001538:	b9a0      	cbnz	r0, 8001564 <I2C_WaitOnTXISFlagUntilTimeout+0x4a>
    if (Timeout != HAL_MAX_DELAY)
 800153a:	1c6a      	adds	r2, r5, #1
 800153c:	d0f1      	beq.n	8001522 <I2C_WaitOnTXISFlagUntilTimeout+0x8>
      if (((HAL_GetTick() - Tickstart) > Timeout) || (Timeout == 0U))
 800153e:	f7ff f855 	bl	80005ec <HAL_GetTick>
 8001542:	1b80      	subs	r0, r0, r6
 8001544:	4285      	cmp	r5, r0
 8001546:	d301      	bcc.n	800154c <I2C_WaitOnTXISFlagUntilTimeout+0x32>
 8001548:	2d00      	cmp	r5, #0
 800154a:	d1ea      	bne.n	8001522 <I2C_WaitOnTXISFlagUntilTimeout+0x8>
      hi2c->ErrorCode |= HAL_I2C_ERROR_TIMEOUT;
 800154c:	6c63      	ldr	r3, [r4, #68]	; 0x44
 800154e:	f043 0320 	orr.w	r3, r3, #32
 8001552:	6463      	str	r3, [r4, #68]	; 0x44
      hi2c->State = HAL_I2C_STATE_READY;
 8001554:	2320      	movs	r3, #32
 8001556:	f884 3041 	strb.w	r3, [r4, #65]	; 0x41
      hi2c->Mode = HAL_I2C_MODE_NONE;
 800155a:	2300      	movs	r3, #0
 800155c:	f884 3042 	strb.w	r3, [r4, #66]	; 0x42
      __HAL_UNLOCK(hi2c);
 8001560:	f884 3040 	strb.w	r3, [r4, #64]	; 0x40
      return HAL_ERROR;
 8001564:	2001      	movs	r0, #1
}
 8001566:	bd70      	pop	{r4, r5, r6, pc}

08001568 <I2C_RequestMemoryWrite>:
{
 8001568:	b5f7      	push	{r0, r1, r2, r4, r5, r6, r7, lr}
 800156a:	9e09      	ldr	r6, [sp, #36]	; 0x24
 800156c:	461f      	mov	r7, r3
  I2C_TransferConfig(hi2c, DevAddress, (uint8_t)MemAddSize, I2C_RELOAD_MODE, I2C_GENERATE_START_WRITE);
 800156e:	4b16      	ldr	r3, [pc, #88]	; (80015c8 <I2C_RequestMemoryWrite+0x60>)
 8001570:	9300      	str	r3, [sp, #0]
{
 8001572:	4605      	mov	r5, r0
 8001574:	4614      	mov	r4, r2
  I2C_TransferConfig(hi2c, DevAddress, (uint8_t)MemAddSize, I2C_RELOAD_MODE, I2C_GENERATE_START_WRITE);
 8001576:	f04f 7380 	mov.w	r3, #16777216	; 0x1000000
 800157a:	b2fa      	uxtb	r2, r7
 800157c:	f7ff ff1e 	bl	80013bc <I2C_TransferConfig>
  if (I2C_WaitOnTXISFlagUntilTimeout(hi2c, Timeout, Tickstart) != HAL_OK)
 8001580:	4632      	mov	r2, r6
 8001582:	9908      	ldr	r1, [sp, #32]
 8001584:	4628      	mov	r0, r5
 8001586:	f7ff ffc8 	bl	800151a <I2C_WaitOnTXISFlagUntilTimeout>
 800158a:	b110      	cbz	r0, 8001592 <I2C_RequestMemoryWrite+0x2a>
    return HAL_ERROR;
 800158c:	2001      	movs	r0, #1
}
 800158e:	b003      	add	sp, #12
 8001590:	bdf0      	pop	{r4, r5, r6, r7, pc}
  if (MemAddSize == I2C_MEMADD_SIZE_8BIT)
 8001592:	2f01      	cmp	r7, #1
 8001594:	682b      	ldr	r3, [r5, #0]
 8001596:	d10c      	bne.n	80015b2 <I2C_RequestMemoryWrite+0x4a>
    hi2c->Instance->TXDR = I2C_MEM_ADD_LSB(MemAddress);
 8001598:	b2e4      	uxtb	r4, r4
 800159a:	629c      	str	r4, [r3, #40]	; 0x28
  if (I2C_WaitOnFlagUntilTimeout(hi2c, I2C_FLAG_TCR, RESET, Timeout, Tickstart) != HAL_OK)
 800159c:	9b08      	ldr	r3, [sp, #32]
 800159e:	9600      	str	r6, [sp, #0]
 80015a0:	2200      	movs	r2, #0
 80015a2:	2180      	movs	r1, #128	; 0x80
 80015a4:	4628      	mov	r0, r5
 80015a6:	f7ff ff50 	bl	800144a <I2C_WaitOnFlagUntilTimeout>
    return HAL_ERROR;
 80015aa:	3000      	adds	r0, #0
 80015ac:	bf18      	it	ne
 80015ae:	2001      	movne	r0, #1
 80015b0:	e7ed      	b.n	800158e <I2C_RequestMemoryWrite+0x26>
    hi2c->Instance->TXDR = I2C_MEM_ADD_MSB(MemAddress);
 80015b2:	0a22      	lsrs	r2, r4, #8
 80015b4:	629a      	str	r2, [r3, #40]	; 0x28
    if (I2C_WaitOnTXISFlagUntilTimeout(hi2c, Timeout, Tickstart) != HAL_OK)
 80015b6:	9908      	ldr	r1, [sp, #32]
 80015b8:	4632      	mov	r2, r6
 80015ba:	4628      	mov	r0, r5
 80015bc:	f7ff ffad 	bl	800151a <I2C_WaitOnTXISFlagUntilTimeout>
 80015c0:	2800      	cmp	r0, #0
 80015c2:	d1e3      	bne.n	800158c <I2C_RequestMemoryWrite+0x24>
    hi2c->Instance->TXDR = I2C_MEM_ADD_LSB(MemAddress);
 80015c4:	682b      	ldr	r3, [r5, #0]
 80015c6:	e7e7      	b.n	8001598 <I2C_RequestMemoryWrite+0x30>
 80015c8:	80002000 	.word	0x80002000

080015cc <I2C_RequestMemoryRead>:
{
 80015cc:	b5f7      	push	{r0, r1, r2, r4, r5, r6, r7, lr}
 80015ce:	9e09      	ldr	r6, [sp, #36]	; 0x24
 80015d0:	461f      	mov	r7, r3
  I2C_TransferConfig(hi2c, DevAddress, (uint8_t)MemAddSize, I2C_SOFTEND_MODE, I2C_GENERATE_START_WRITE);
 80015d2:	4b16      	ldr	r3, [pc, #88]	; (800162c <I2C_RequestMemoryRead+0x60>)
 80015d4:	9300      	str	r3, [sp, #0]
{
 80015d6:	4605      	mov	r5, r0
 80015d8:	4614      	mov	r4, r2
  I2C_TransferConfig(hi2c, DevAddress, (uint8_t)MemAddSize, I2C_SOFTEND_MODE, I2C_GENERATE_START_WRITE);
 80015da:	2300      	movs	r3, #0
 80015dc:	b2fa      	uxtb	r2, r7
 80015de:	f7ff feed 	bl	80013bc <I2C_TransferConfig>
  if (I2C_WaitOnTXISFlagUntilTimeout(hi2c, Timeout, Tickstart) != HAL_OK)
 80015e2:	4632      	mov	r2, r6
 80015e4:	9908      	ldr	r1, [sp, #32]
 80015e6:	4628      	mov	r0, r5
 80015e8:	f7ff ff97 	bl	800151a <I2C_WaitOnTXISFlagUntilTimeout>
 80015ec:	b110      	cbz	r0, 80015f4 <I2C_RequestMemoryRead+0x28>
    return HAL_ERROR;
 80015ee:	2001      	movs	r0, #1
}
 80015f0:	b003      	add	sp, #12
 80015f2:	bdf0      	pop	{r4, r5, r6, r7, pc}
  if (MemAddSize == I2C_MEMADD_SIZE_8BIT)
 80015f4:	2f01      	cmp	r7, #1
 80015f6:	682b      	ldr	r3, [r5, #0]
 80015f8:	d10c      	bne.n	8001614 <I2C_RequestMemoryRead+0x48>
    hi2c->Instance->TXDR = I2C_MEM_ADD_LSB(MemAddress);
 80015fa:	b2e4      	uxtb	r4, r4
 80015fc:	629c      	str	r4, [r3, #40]	; 0x28
  if (I2C_WaitOnFlagUntilTimeout(hi2c, I2C_FLAG_TC, RESET, Timeout, Tickstart) != HAL_OK)
 80015fe:	9b08      	ldr	r3, [sp, #32]
 8001600:	9600      	str	r6, [sp, #0]
 8001602:	2200      	movs	r2, #0
 8001604:	2140      	movs	r1, #64	; 0x40
 8001606:	4628      	mov	r0, r5
 8001608:	f7ff ff1f 	bl	800144a <I2C_WaitOnFlagUntilTimeout>
    return HAL_ERROR;
 800160c:	3000      	adds	r0, #0
 800160e:	bf18      	it	ne
 8001610:	2001      	movne	r0, #1
 8001612:	e7ed      	b.n	80015f0 <I2C_RequestMemoryRead+0x24>
    hi2c->Instance->TXDR = I2C_MEM_ADD_MSB(MemAddress);
 8001614:	0a22      	lsrs	r2, r4, #8
 8001616:	629a      	str	r2, [r3, #40]	; 0x28
    if (I2C_WaitOnTXISFlagUntilTimeout(hi2c, Timeout, Tickstart) != HAL_OK)
 8001618:	9908      	ldr	r1, [sp, #32]
 800161a:	4632      	mov	r2, r6
 800161c:	4628      	mov	r0, r5
 800161e:	f7ff ff7c 	bl	800151a <I2C_WaitOnTXISFlagUntilTimeout>
 8001622:	2800      	cmp	r0, #0
 8001624:	d1e3      	bne.n	80015ee <I2C_RequestMemoryRead+0x22>
    hi2c->Instance->TXDR = I2C_MEM_ADD_LSB(MemAddress);
 8001626:	682b      	ldr	r3, [r5, #0]
 8001628:	e7e7      	b.n	80015fa <I2C_RequestMemoryRead+0x2e>
 800162a:	bf00      	nop
 800162c:	80002000 	.word	0x80002000

08001630 <I2C_WaitOnSTOPFlagUntilTimeout>:
{
 8001630:	b570      	push	{r4, r5, r6, lr}
 8001632:	4604      	mov	r4, r0
 8001634:	460d      	mov	r5, r1
 8001636:	4616      	mov	r6, r2
  while (__HAL_I2C_GET_FLAG(hi2c, I2C_FLAG_STOPF) == RESET)
 8001638:	6823      	ldr	r3, [r4, #0]
 800163a:	699b      	ldr	r3, [r3, #24]
 800163c:	069b      	lsls	r3, r3, #26
 800163e:	d501      	bpl.n	8001644 <I2C_WaitOnSTOPFlagUntilTimeout+0x14>
  return HAL_OK;
 8001640:	2000      	movs	r0, #0
 8001642:	bd70      	pop	{r4, r5, r6, pc}
    if (I2C_IsAcknowledgeFailed(hi2c, Timeout, Tickstart) != HAL_OK)
 8001644:	4632      	mov	r2, r6
 8001646:	4629      	mov	r1, r5
 8001648:	4620      	mov	r0, r4
 800164a:	f7ff ff29 	bl	80014a0 <I2C_IsAcknowledgeFailed>
 800164e:	b990      	cbnz	r0, 8001676 <I2C_WaitOnSTOPFlagUntilTimeout+0x46>
    if (((HAL_GetTick() - Tickstart) > Timeout) || (Timeout == 0U))
 8001650:	f7fe ffcc 	bl	80005ec <HAL_GetTick>
 8001654:	1b80      	subs	r0, r0, r6
 8001656:	4285      	cmp	r5, r0
 8001658:	d301      	bcc.n	800165e <I2C_WaitOnSTOPFlagUntilTimeout+0x2e>
 800165a:	2d00      	cmp	r5, #0
 800165c:	d1ec      	bne.n	8001638 <I2C_WaitOnSTOPFlagUntilTimeout+0x8>
      hi2c->ErrorCode |= HAL_I2C_ERROR_TIMEOUT;
 800165e:	6c63      	ldr	r3, [r4, #68]	; 0x44
 8001660:	f043 0320 	orr.w	r3, r3, #32
 8001664:	6463      	str	r3, [r4, #68]	; 0x44
      hi2c->State = HAL_I2C_STATE_READY;
 8001666:	2320      	movs	r3, #32
 8001668:	f884 3041 	strb.w	r3, [r4, #65]	; 0x41
      hi2c->Mode = HAL_I2C_MODE_NONE;
 800166c:	2300      	movs	r3, #0
 800166e:	f884 3042 	strb.w	r3, [r4, #66]	; 0x42
      __HAL_UNLOCK(hi2c);
 8001672:	f884 3040 	strb.w	r3, [r4, #64]	; 0x40
      return HAL_ERROR;
 8001676:	2001      	movs	r0, #1
}
 8001678:	bd70      	pop	{r4, r5, r6, pc}

0800167a <HAL_I2C_Init>:
{
 800167a:	b510      	push	{r4, lr}
  if (hi2c == NULL)
 800167c:	4604      	mov	r4, r0
 800167e:	2800      	cmp	r0, #0
 8001680:	d04a      	beq.n	8001718 <HAL_I2C_Init+0x9e>
  if (hi2c->State == HAL_I2C_STATE_RESET)
 8001682:	f890 3041 	ldrb.w	r3, [r0, #65]	; 0x41
 8001686:	f003 02ff 	and.w	r2, r3, #255	; 0xff
 800168a:	b91b      	cbnz	r3, 8001694 <HAL_I2C_Init+0x1a>
    hi2c->Lock = HAL_UNLOCKED;
 800168c:	f880 2040 	strb.w	r2, [r0, #64]	; 0x40
    HAL_I2C_MspInit(hi2c);
 8001690:	f002 f922 	bl	80038d8 <HAL_I2C_MspInit>
  hi2c->State = HAL_I2C_STATE_BUSY;
 8001694:	2324      	movs	r3, #36	; 0x24
 8001696:	f884 3041 	strb.w	r3, [r4, #65]	; 0x41
  __HAL_I2C_DISABLE(hi2c);
 800169a:	6823      	ldr	r3, [r4, #0]
  if (hi2c->Init.AddressingMode == I2C_ADDRESSINGMODE_7BIT)
 800169c:	68e1      	ldr	r1, [r4, #12]
  __HAL_I2C_DISABLE(hi2c);
 800169e:	681a      	ldr	r2, [r3, #0]
 80016a0:	f022 0201 	bic.w	r2, r2, #1
 80016a4:	601a      	str	r2, [r3, #0]
  hi2c->Instance->TIMINGR = hi2c->Init.Timing & TIMING_CLEAR_MASK;
 80016a6:	6862      	ldr	r2, [r4, #4]
 80016a8:	f022 6270 	bic.w	r2, r2, #251658240	; 0xf000000
 80016ac:	611a      	str	r2, [r3, #16]
  hi2c->Instance->OAR1 &= ~I2C_OAR1_OA1EN;
 80016ae:	689a      	ldr	r2, [r3, #8]
  if (hi2c->Init.AddressingMode == I2C_ADDRESSINGMODE_7BIT)
 80016b0:	2901      	cmp	r1, #1
  hi2c->Instance->OAR1 &= ~I2C_OAR1_OA1EN;
 80016b2:	f422 4200 	bic.w	r2, r2, #32768	; 0x8000
 80016b6:	609a      	str	r2, [r3, #8]
 80016b8:	68a2      	ldr	r2, [r4, #8]
  if (hi2c->Init.AddressingMode == I2C_ADDRESSINGMODE_7BIT)
 80016ba:	d124      	bne.n	8001706 <HAL_I2C_Init+0x8c>
    hi2c->Instance->OAR1 = (I2C_OAR1_OA1EN | hi2c->Init.OwnAddress1);
 80016bc:	f442 4200 	orr.w	r2, r2, #32768	; 0x8000
 80016c0:	609a      	str	r2, [r3, #8]
  hi2c->Instance->CR2 |= (I2C_CR2_AUTOEND | I2C_CR2_NACK);
 80016c2:	685a      	ldr	r2, [r3, #4]
  hi2c->Instance->OAR2 = (hi2c->Init.DualAddressMode | hi2c->Init.OwnAddress2 | (hi2c->Init.OwnAddress2Masks << 8));
 80016c4:	6961      	ldr	r1, [r4, #20]
  hi2c->Instance->CR2 |= (I2C_CR2_AUTOEND | I2C_CR2_NACK);
 80016c6:	f042 7200 	orr.w	r2, r2, #33554432	; 0x2000000
 80016ca:	f442 4200 	orr.w	r2, r2, #32768	; 0x8000
 80016ce:	605a      	str	r2, [r3, #4]
  hi2c->Instance->OAR2 &= ~I2C_DUALADDRESS_ENABLE;
 80016d0:	68da      	ldr	r2, [r3, #12]
 80016d2:	f422 4200 	bic.w	r2, r2, #32768	; 0x8000
 80016d6:	60da      	str	r2, [r3, #12]
  hi2c->Instance->OAR2 = (hi2c->Init.DualAddressMode | hi2c->Init.OwnAddress2 | (hi2c->Init.OwnAddress2Masks << 8));
 80016d8:	6922      	ldr	r2, [r4, #16]
 80016da:	430a      	orrs	r2, r1
 80016dc:	69a1      	ldr	r1, [r4, #24]
 80016de:	ea42 2201 	orr.w	r2, r2, r1, lsl #8
 80016e2:	60da      	str	r2, [r3, #12]
  hi2c->Instance->CR1 = (hi2c->Init.GeneralCallMode | hi2c->Init.NoStretchMode);
 80016e4:	6a21      	ldr	r1, [r4, #32]
 80016e6:	69e2      	ldr	r2, [r4, #28]
 80016e8:	430a      	orrs	r2, r1
 80016ea:	601a      	str	r2, [r3, #0]
  __HAL_I2C_ENABLE(hi2c);
 80016ec:	681a      	ldr	r2, [r3, #0]
 80016ee:	f042 0201 	orr.w	r2, r2, #1
 80016f2:	601a      	str	r2, [r3, #0]
  hi2c->ErrorCode = HAL_I2C_ERROR_NONE;
 80016f4:	2000      	movs	r0, #0
  hi2c->State = HAL_I2C_STATE_READY;
 80016f6:	2320      	movs	r3, #32
  hi2c->ErrorCode = HAL_I2C_ERROR_NONE;
 80016f8:	6460      	str	r0, [r4, #68]	; 0x44
  hi2c->State = HAL_I2C_STATE_READY;
 80016fa:	f884 3041 	strb.w	r3, [r4, #65]	; 0x41
  hi2c->PreviousState = I2C_STATE_NONE;
 80016fe:	6320      	str	r0, [r4, #48]	; 0x30
  hi2c->Mode = HAL_I2C_MODE_NONE;
 8001700:	f884 0042 	strb.w	r0, [r4, #66]	; 0x42
  return HAL_OK;
 8001704:	bd10      	pop	{r4, pc}
    hi2c->Instance->OAR1 = (I2C_OAR1_OA1EN | I2C_OAR1_OA1MODE | hi2c->Init.OwnAddress1);
 8001706:	f442 4204 	orr.w	r2, r2, #33792	; 0x8400
  if (hi2c->Init.AddressingMode == I2C_ADDRESSINGMODE_10BIT)
 800170a:	2902      	cmp	r1, #2
    hi2c->Instance->OAR1 = (I2C_OAR1_OA1EN | I2C_OAR1_OA1MODE | hi2c->Init.OwnAddress1);
 800170c:	609a      	str	r2, [r3, #8]
    hi2c->Instance->CR2 = (I2C_CR2_ADD10);
 800170e:	bf04      	itt	eq
 8001710:	f44f 6200 	moveq.w	r2, #2048	; 0x800
 8001714:	605a      	streq	r2, [r3, #4]
 8001716:	e7d4      	b.n	80016c2 <HAL_I2C_Init+0x48>
    return HAL_ERROR;
 8001718:	2001      	movs	r0, #1
}
 800171a:	bd10      	pop	{r4, pc}

0800171c <HAL_I2C_Mem_Write>:
{
 800171c:	e92d 4ff0 	stmdb	sp!, {r4, r5, r6, r7, r8, r9, sl, fp, lr}
 8001720:	469b      	mov	fp, r3
  if (hi2c->State == HAL_I2C_STATE_READY)
 8001722:	f890 3041 	ldrb.w	r3, [r0, #65]	; 0x41
{
 8001726:	b085      	sub	sp, #20
  if (hi2c->State == HAL_I2C_STATE_READY)
 8001728:	2b20      	cmp	r3, #32
{
 800172a:	4604      	mov	r4, r0
 800172c:	460f      	mov	r7, r1
 800172e:	9203      	str	r2, [sp, #12]
 8001730:	f8bd a03c 	ldrh.w	sl, [sp, #60]	; 0x3c
 8001734:	f8dd 8040 	ldr.w	r8, [sp, #64]	; 0x40
  if (hi2c->State == HAL_I2C_STATE_READY)
 8001738:	f040 80a5 	bne.w	8001886 <HAL_I2C_Mem_Write+0x16a>
    if ((pData == NULL) || (Size == 0U))
 800173c:	9b0e      	ldr	r3, [sp, #56]	; 0x38
 800173e:	b113      	cbz	r3, 8001746 <HAL_I2C_Mem_Write+0x2a>
 8001740:	f1ba 0f00 	cmp.w	sl, #0
 8001744:	d106      	bne.n	8001754 <HAL_I2C_Mem_Write+0x38>
      hi2c->ErrorCode = HAL_I2C_ERROR_INVALID_PARAM;
 8001746:	f44f 7300 	mov.w	r3, #512	; 0x200
 800174a:	6463      	str	r3, [r4, #68]	; 0x44
      return HAL_ERROR;
 800174c:	2001      	movs	r0, #1
}
 800174e:	b005      	add	sp, #20
 8001750:	e8bd 8ff0 	ldmia.w	sp!, {r4, r5, r6, r7, r8, r9, sl, fp, pc}
    __HAL_LOCK(hi2c);
 8001754:	f890 3040 	ldrb.w	r3, [r0, #64]	; 0x40
 8001758:	2b01      	cmp	r3, #1
 800175a:	f000 8094 	beq.w	8001886 <HAL_I2C_Mem_Write+0x16a>
 800175e:	2501      	movs	r5, #1
 8001760:	f880 5040 	strb.w	r5, [r0, #64]	; 0x40
    tickstart = HAL_GetTick();
 8001764:	f7fe ff42 	bl	80005ec <HAL_GetTick>
    if (I2C_WaitOnFlagUntilTimeout(hi2c, I2C_FLAG_BUSY, SET, I2C_TIMEOUT_BUSY, tickstart) != HAL_OK)
 8001768:	2319      	movs	r3, #25
 800176a:	9000      	str	r0, [sp, #0]
    tickstart = HAL_GetTick();
 800176c:	4606      	mov	r6, r0
    if (I2C_WaitOnFlagUntilTimeout(hi2c, I2C_FLAG_BUSY, SET, I2C_TIMEOUT_BUSY, tickstart) != HAL_OK)
 800176e:	462a      	mov	r2, r5
 8001770:	f44f 4100 	mov.w	r1, #32768	; 0x8000
 8001774:	4620      	mov	r0, r4
 8001776:	f7ff fe68 	bl	800144a <I2C_WaitOnFlagUntilTimeout>
 800177a:	4681      	mov	r9, r0
 800177c:	2800      	cmp	r0, #0
 800177e:	d1e5      	bne.n	800174c <HAL_I2C_Mem_Write+0x30>
    hi2c->State     = HAL_I2C_STATE_BUSY_TX;
 8001780:	2321      	movs	r3, #33	; 0x21
 8001782:	f884 3041 	strb.w	r3, [r4, #65]	; 0x41
    hi2c->Mode      = HAL_I2C_MODE_MEM;
 8001786:	2340      	movs	r3, #64	; 0x40
 8001788:	f884 3042 	strb.w	r3, [r4, #66]	; 0x42
    hi2c->pBuffPtr  = pData;
 800178c:	9b0e      	ldr	r3, [sp, #56]	; 0x38
    hi2c->ErrorCode = HAL_I2C_ERROR_NONE;
 800178e:	6460      	str	r0, [r4, #68]	; 0x44
    hi2c->pBuffPtr  = pData;
 8001790:	6263      	str	r3, [r4, #36]	; 0x24
    hi2c->XferISR   = NULL;
 8001792:	6360      	str	r0, [r4, #52]	; 0x34
    hi2c->XferCount = Size;
 8001794:	f8a4 a02a 	strh.w	sl, [r4, #42]	; 0x2a
    if (I2C_RequestMemoryWrite(hi2c, DevAddress, MemAddress, MemAddSize, Timeout, tickstart) != HAL_OK)
 8001798:	9601      	str	r6, [sp, #4]
 800179a:	f8cd 8000 	str.w	r8, [sp]
 800179e:	465b      	mov	r3, fp
 80017a0:	9a03      	ldr	r2, [sp, #12]
 80017a2:	4639      	mov	r1, r7
 80017a4:	4620      	mov	r0, r4
 80017a6:	f7ff fedf 	bl	8001568 <I2C_RequestMemoryWrite>
 80017aa:	b110      	cbz	r0, 80017b2 <HAL_I2C_Mem_Write+0x96>
      __HAL_UNLOCK(hi2c);
 80017ac:	f884 9040 	strb.w	r9, [r4, #64]	; 0x40
 80017b0:	e7cc      	b.n	800174c <HAL_I2C_Mem_Write+0x30>
    if (hi2c->XferCount > MAX_NBYTE_SIZE)
 80017b2:	8d63      	ldrh	r3, [r4, #42]	; 0x2a
 80017b4:	b29b      	uxth	r3, r3
 80017b6:	2bff      	cmp	r3, #255	; 0xff
 80017b8:	d955      	bls.n	8001866 <HAL_I2C_Mem_Write+0x14a>
      hi2c->XferSize = MAX_NBYTE_SIZE;
 80017ba:	22ff      	movs	r2, #255	; 0xff
 80017bc:	8522      	strh	r2, [r4, #40]	; 0x28
      I2C_TransferConfig(hi2c, DevAddress, (uint8_t)hi2c->XferSize, I2C_RELOAD_MODE, I2C_NO_STARTSTOP);
 80017be:	9000      	str	r0, [sp, #0]
 80017c0:	f04f 7380 	mov.w	r3, #16777216	; 0x1000000
      I2C_TransferConfig(hi2c, DevAddress, (uint8_t)hi2c->XferSize, I2C_AUTOEND_MODE, I2C_NO_STARTSTOP);
 80017c4:	4639      	mov	r1, r7
 80017c6:	4620      	mov	r0, r4
 80017c8:	f7ff fdf8 	bl	80013bc <I2C_TransferConfig>
      if (I2C_WaitOnTXISFlagUntilTimeout(hi2c, Timeout, tickstart) != HAL_OK)
 80017cc:	4632      	mov	r2, r6
 80017ce:	4641      	mov	r1, r8
 80017d0:	4620      	mov	r0, r4
 80017d2:	f7ff fea2 	bl	800151a <I2C_WaitOnTXISFlagUntilTimeout>
 80017d6:	2800      	cmp	r0, #0
 80017d8:	d1b8      	bne.n	800174c <HAL_I2C_Mem_Write+0x30>
      hi2c->Instance->TXDR = *hi2c->pBuffPtr;
 80017da:	6a63      	ldr	r3, [r4, #36]	; 0x24
 80017dc:	6822      	ldr	r2, [r4, #0]
 80017de:	f813 1b01 	ldrb.w	r1, [r3], #1
 80017e2:	6291      	str	r1, [r2, #40]	; 0x28
      hi2c->pBuffPtr++;
 80017e4:	6263      	str	r3, [r4, #36]	; 0x24
      hi2c->XferCount--;
 80017e6:	8d63      	ldrh	r3, [r4, #42]	; 0x2a
      hi2c->XferSize--;
 80017e8:	8d22      	ldrh	r2, [r4, #40]	; 0x28
      hi2c->XferCount--;
 80017ea:	3b01      	subs	r3, #1
 80017ec:	b29b      	uxth	r3, r3
 80017ee:	8563      	strh	r3, [r4, #42]	; 0x2a
      if ((hi2c->XferCount != 0U) && (hi2c->XferSize == 0U))
 80017f0:	8d63      	ldrh	r3, [r4, #42]	; 0x2a
      hi2c->XferSize--;
 80017f2:	3a01      	subs	r2, #1
 80017f4:	b292      	uxth	r2, r2
      if ((hi2c->XferCount != 0U) && (hi2c->XferSize == 0U))
 80017f6:	b29b      	uxth	r3, r3
      hi2c->XferSize--;
 80017f8:	8522      	strh	r2, [r4, #40]	; 0x28
      if ((hi2c->XferCount != 0U) && (hi2c->XferSize == 0U))
 80017fa:	b1ab      	cbz	r3, 8001828 <HAL_I2C_Mem_Write+0x10c>
 80017fc:	b9a2      	cbnz	r2, 8001828 <HAL_I2C_Mem_Write+0x10c>
        if (I2C_WaitOnFlagUntilTimeout(hi2c, I2C_FLAG_TCR, RESET, Timeout, tickstart) != HAL_OK)
 80017fe:	9600      	str	r6, [sp, #0]
 8001800:	4643      	mov	r3, r8
 8001802:	2180      	movs	r1, #128	; 0x80
 8001804:	4620      	mov	r0, r4
 8001806:	f7ff fe20 	bl	800144a <I2C_WaitOnFlagUntilTimeout>
 800180a:	2800      	cmp	r0, #0
 800180c:	d19e      	bne.n	800174c <HAL_I2C_Mem_Write+0x30>
        if (hi2c->XferCount > MAX_NBYTE_SIZE)
 800180e:	8d63      	ldrh	r3, [r4, #42]	; 0x2a
 8001810:	b29b      	uxth	r3, r3
 8001812:	2bff      	cmp	r3, #255	; 0xff
 8001814:	d92f      	bls.n	8001876 <HAL_I2C_Mem_Write+0x15a>
          hi2c->XferSize = MAX_NBYTE_SIZE;
 8001816:	22ff      	movs	r2, #255	; 0xff
 8001818:	8522      	strh	r2, [r4, #40]	; 0x28
          I2C_TransferConfig(hi2c, DevAddress, (uint8_t)hi2c->XferSize, I2C_RELOAD_MODE, I2C_NO_STARTSTOP);
 800181a:	9000      	str	r0, [sp, #0]
 800181c:	f04f 7380 	mov.w	r3, #16777216	; 0x1000000
          I2C_TransferConfig(hi2c, DevAddress, (uint8_t)hi2c->XferSize, I2C_AUTOEND_MODE, I2C_NO_STARTSTOP);
 8001820:	4639      	mov	r1, r7
 8001822:	4620      	mov	r0, r4
 8001824:	f7ff fdca 	bl	80013bc <I2C_TransferConfig>
    while (hi2c->XferCount > 0U);
 8001828:	8d63      	ldrh	r3, [r4, #42]	; 0x2a
 800182a:	b29b      	uxth	r3, r3
 800182c:	2b00      	cmp	r3, #0
 800182e:	d1cd      	bne.n	80017cc <HAL_I2C_Mem_Write+0xb0>
    if (I2C_WaitOnSTOPFlagUntilTimeout(hi2c, Timeout, tickstart) != HAL_OK)
 8001830:	4632      	mov	r2, r6
 8001832:	4641      	mov	r1, r8
 8001834:	4620      	mov	r0, r4
 8001836:	f7ff fefb 	bl	8001630 <I2C_WaitOnSTOPFlagUntilTimeout>
 800183a:	2800      	cmp	r0, #0
 800183c:	d186      	bne.n	800174c <HAL_I2C_Mem_Write+0x30>
    __HAL_I2C_CLEAR_FLAG(hi2c, I2C_FLAG_STOPF);
 800183e:	6823      	ldr	r3, [r4, #0]
 8001840:	2120      	movs	r1, #32
 8001842:	61d9      	str	r1, [r3, #28]
    I2C_RESET_CR2(hi2c);
 8001844:	685a      	ldr	r2, [r3, #4]
 8001846:	f022 72ff 	bic.w	r2, r2, #33423360	; 0x1fe0000
 800184a:	f422 328b 	bic.w	r2, r2, #71168	; 0x11600
 800184e:	f422 72ff 	bic.w	r2, r2, #510	; 0x1fe
 8001852:	f022 0201 	bic.w	r2, r2, #1
 8001856:	605a      	str	r2, [r3, #4]
    hi2c->State = HAL_I2C_STATE_READY;
 8001858:	f884 1041 	strb.w	r1, [r4, #65]	; 0x41
    __HAL_UNLOCK(hi2c);
 800185c:	f884 0040 	strb.w	r0, [r4, #64]	; 0x40
    hi2c->Mode  = HAL_I2C_MODE_NONE;
 8001860:	f884 0042 	strb.w	r0, [r4, #66]	; 0x42
    return HAL_OK;
 8001864:	e773      	b.n	800174e <HAL_I2C_Mem_Write+0x32>
      hi2c->XferSize = hi2c->XferCount;
 8001866:	8d62      	ldrh	r2, [r4, #42]	; 0x2a
      I2C_TransferConfig(hi2c, DevAddress, (uint8_t)hi2c->XferSize, I2C_AUTOEND_MODE, I2C_NO_STARTSTOP);
 8001868:	9000      	str	r0, [sp, #0]
      hi2c->XferSize = hi2c->XferCount;
 800186a:	b292      	uxth	r2, r2
 800186c:	8522      	strh	r2, [r4, #40]	; 0x28
      I2C_TransferConfig(hi2c, DevAddress, (uint8_t)hi2c->XferSize, I2C_AUTOEND_MODE, I2C_NO_STARTSTOP);
 800186e:	f04f 7300 	mov.w	r3, #33554432	; 0x2000000
 8001872:	b2d2      	uxtb	r2, r2
 8001874:	e7a6      	b.n	80017c4 <HAL_I2C_Mem_Write+0xa8>
          hi2c->XferSize = hi2c->XferCount;
 8001876:	8d62      	ldrh	r2, [r4, #42]	; 0x2a
          I2C_TransferConfig(hi2c, DevAddress, (uint8_t)hi2c->XferSize, I2C_AUTOEND_MODE, I2C_NO_STARTSTOP);
 8001878:	9000      	str	r0, [sp, #0]
          hi2c->XferSize = hi2c->XferCount;
 800187a:	b292      	uxth	r2, r2
 800187c:	8522      	strh	r2, [r4, #40]	; 0x28
          I2C_TransferConfig(hi2c, DevAddress, (uint8_t)hi2c->XferSize, I2C_AUTOEND_MODE, I2C_NO_STARTSTOP);
 800187e:	f04f 7300 	mov.w	r3, #33554432	; 0x2000000
 8001882:	b2d2      	uxtb	r2, r2
 8001884:	e7cc      	b.n	8001820 <HAL_I2C_Mem_Write+0x104>
    return HAL_BUSY;
 8001886:	2002      	movs	r0, #2
 8001888:	e761      	b.n	800174e <HAL_I2C_Mem_Write+0x32>
	...

0800188c <HAL_I2C_Mem_Read>:
{
 800188c:	e92d 4ff0 	stmdb	sp!, {r4, r5, r6, r7, r8, r9, sl, fp, lr}
 8001890:	469b      	mov	fp, r3
  if (hi2c->State == HAL_I2C_STATE_READY)
 8001892:	f890 3041 	ldrb.w	r3, [r0, #65]	; 0x41
{
 8001896:	b085      	sub	sp, #20
  if (hi2c->State == HAL_I2C_STATE_READY)
 8001898:	2b20      	cmp	r3, #32
{
 800189a:	4604      	mov	r4, r0
 800189c:	460f      	mov	r7, r1
 800189e:	9203      	str	r2, [sp, #12]
 80018a0:	f8bd a03c 	ldrh.w	sl, [sp, #60]	; 0x3c
 80018a4:	f8dd 8040 	ldr.w	r8, [sp, #64]	; 0x40
  if (hi2c->State == HAL_I2C_STATE_READY)
 80018a8:	f040 80a9 	bne.w	80019fe <HAL_I2C_Mem_Read+0x172>
    if ((pData == NULL) || (Size == 0U))
 80018ac:	9b0e      	ldr	r3, [sp, #56]	; 0x38
 80018ae:	b113      	cbz	r3, 80018b6 <HAL_I2C_Mem_Read+0x2a>
 80018b0:	f1ba 0f00 	cmp.w	sl, #0
 80018b4:	d106      	bne.n	80018c4 <HAL_I2C_Mem_Read+0x38>
      hi2c->ErrorCode = HAL_I2C_ERROR_INVALID_PARAM;
 80018b6:	f44f 7300 	mov.w	r3, #512	; 0x200
 80018ba:	6463      	str	r3, [r4, #68]	; 0x44
      return HAL_ERROR;
 80018bc:	2001      	movs	r0, #1
}
 80018be:	b005      	add	sp, #20
 80018c0:	e8bd 8ff0 	ldmia.w	sp!, {r4, r5, r6, r7, r8, r9, sl, fp, pc}
    __HAL_LOCK(hi2c);
 80018c4:	f890 3040 	ldrb.w	r3, [r0, #64]	; 0x40
 80018c8:	2b01      	cmp	r3, #1
 80018ca:	f000 8098 	beq.w	80019fe <HAL_I2C_Mem_Read+0x172>
 80018ce:	2501      	movs	r5, #1
 80018d0:	f880 5040 	strb.w	r5, [r0, #64]	; 0x40
    tickstart = HAL_GetTick();
 80018d4:	f7fe fe8a 	bl	80005ec <HAL_GetTick>
    if (I2C_WaitOnFlagUntilTimeout(hi2c, I2C_FLAG_BUSY, SET, I2C_TIMEOUT_BUSY, tickstart) != HAL_OK)
 80018d8:	2319      	movs	r3, #25
 80018da:	9000      	str	r0, [sp, #0]
    tickstart = HAL_GetTick();
 80018dc:	4606      	mov	r6, r0
    if (I2C_WaitOnFlagUntilTimeout(hi2c, I2C_FLAG_BUSY, SET, I2C_TIMEOUT_BUSY, tickstart) != HAL_OK)
 80018de:	462a      	mov	r2, r5
 80018e0:	f44f 4100 	mov.w	r1, #32768	; 0x8000
 80018e4:	4620      	mov	r0, r4
 80018e6:	f7ff fdb0 	bl	800144a <I2C_WaitOnFlagUntilTimeout>
 80018ea:	4681      	mov	r9, r0
 80018ec:	2800      	cmp	r0, #0
 80018ee:	d1e5      	bne.n	80018bc <HAL_I2C_Mem_Read+0x30>
    hi2c->State     = HAL_I2C_STATE_BUSY_RX;
 80018f0:	2322      	movs	r3, #34	; 0x22
 80018f2:	f884 3041 	strb.w	r3, [r4, #65]	; 0x41
    hi2c->Mode      = HAL_I2C_MODE_MEM;
 80018f6:	2340      	movs	r3, #64	; 0x40
 80018f8:	f884 3042 	strb.w	r3, [r4, #66]	; 0x42
    hi2c->pBuffPtr  = pData;
 80018fc:	9b0e      	ldr	r3, [sp, #56]	; 0x38
    hi2c->ErrorCode = HAL_I2C_ERROR_NONE;
 80018fe:	6460      	str	r0, [r4, #68]	; 0x44
    hi2c->pBuffPtr  = pData;
 8001900:	6263      	str	r3, [r4, #36]	; 0x24
    hi2c->XferISR   = NULL;
 8001902:	6360      	str	r0, [r4, #52]	; 0x34
    hi2c->XferCount = Size;
 8001904:	f8a4 a02a 	strh.w	sl, [r4, #42]	; 0x2a
    if (I2C_RequestMemoryRead(hi2c, DevAddress, MemAddress, MemAddSize, Timeout, tickstart) != HAL_OK)
 8001908:	9601      	str	r6, [sp, #4]
 800190a:	f8cd 8000 	str.w	r8, [sp]
 800190e:	465b      	mov	r3, fp
 8001910:	9a03      	ldr	r2, [sp, #12]
 8001912:	4639      	mov	r1, r7
 8001914:	4620      	mov	r0, r4
 8001916:	f7ff fe59 	bl	80015cc <I2C_RequestMemoryRead>
 800191a:	b110      	cbz	r0, 8001922 <HAL_I2C_Mem_Read+0x96>
      __HAL_UNLOCK(hi2c);
 800191c:	f884 9040 	strb.w	r9, [r4, #64]	; 0x40
 8001920:	e7cc      	b.n	80018bc <HAL_I2C_Mem_Read+0x30>
    if (hi2c->XferCount > MAX_NBYTE_SIZE)
 8001922:	8d63      	ldrh	r3, [r4, #42]	; 0x2a
 8001924:	b29b      	uxth	r3, r3
 8001926:	2bff      	cmp	r3, #255	; 0xff
 8001928:	4b36      	ldr	r3, [pc, #216]	; (8001a04 <HAL_I2C_Mem_Read+0x178>)
 800192a:	d958      	bls.n	80019de <HAL_I2C_Mem_Read+0x152>
      hi2c->XferSize = MAX_NBYTE_SIZE;
 800192c:	22ff      	movs	r2, #255	; 0xff
      I2C_TransferConfig(hi2c, DevAddress, (uint8_t)hi2c->XferSize, I2C_RELOAD_MODE, I2C_GENERATE_START_READ);
 800192e:	9300      	str	r3, [sp, #0]
      hi2c->XferSize = MAX_NBYTE_SIZE;
 8001930:	8522      	strh	r2, [r4, #40]	; 0x28
      I2C_TransferConfig(hi2c, DevAddress, (uint8_t)hi2c->XferSize, I2C_RELOAD_MODE, I2C_GENERATE_START_READ);
 8001932:	f04f 7380 	mov.w	r3, #16777216	; 0x1000000
      I2C_TransferConfig(hi2c, DevAddress, (uint8_t)hi2c->XferSize, I2C_AUTOEND_MODE, I2C_GENERATE_START_READ);
 8001936:	4639      	mov	r1, r7
 8001938:	4620      	mov	r0, r4
 800193a:	f7ff fd3f 	bl	80013bc <I2C_TransferConfig>
      if (I2C_WaitOnFlagUntilTimeout(hi2c, I2C_FLAG_RXNE, RESET, Timeout, tickstart) != HAL_OK)
 800193e:	9600      	str	r6, [sp, #0]
 8001940:	4643      	mov	r3, r8
 8001942:	2200      	movs	r2, #0
 8001944:	2104      	movs	r1, #4
 8001946:	4620      	mov	r0, r4
 8001948:	f7ff fd7f 	bl	800144a <I2C_WaitOnFlagUntilTimeout>
 800194c:	2800      	cmp	r0, #0
 800194e:	d1b5      	bne.n	80018bc <HAL_I2C_Mem_Read+0x30>
      *hi2c->pBuffPtr = (uint8_t)hi2c->Instance->RXDR;
 8001950:	6822      	ldr	r2, [r4, #0]
 8001952:	6a63      	ldr	r3, [r4, #36]	; 0x24
 8001954:	6a52      	ldr	r2, [r2, #36]	; 0x24
 8001956:	701a      	strb	r2, [r3, #0]
      hi2c->pBuffPtr++;
 8001958:	6a63      	ldr	r3, [r4, #36]	; 0x24
      hi2c->XferSize--;
 800195a:	8d22      	ldrh	r2, [r4, #40]	; 0x28
      hi2c->pBuffPtr++;
 800195c:	3301      	adds	r3, #1
 800195e:	6263      	str	r3, [r4, #36]	; 0x24
      hi2c->XferCount--;
 8001960:	8d63      	ldrh	r3, [r4, #42]	; 0x2a
 8001962:	3b01      	subs	r3, #1
 8001964:	b29b      	uxth	r3, r3
 8001966:	8563      	strh	r3, [r4, #42]	; 0x2a
      if ((hi2c->XferCount != 0U) && (hi2c->XferSize == 0U))
 8001968:	8d63      	ldrh	r3, [r4, #42]	; 0x2a
      hi2c->XferSize--;
 800196a:	3a01      	subs	r2, #1
 800196c:	b292      	uxth	r2, r2
      if ((hi2c->XferCount != 0U) && (hi2c->XferSize == 0U))
 800196e:	b29b      	uxth	r3, r3
      hi2c->XferSize--;
 8001970:	8522      	strh	r2, [r4, #40]	; 0x28
      if ((hi2c->XferCount != 0U) && (hi2c->XferSize == 0U))
 8001972:	b1ab      	cbz	r3, 80019a0 <HAL_I2C_Mem_Read+0x114>
 8001974:	b9a2      	cbnz	r2, 80019a0 <HAL_I2C_Mem_Read+0x114>
        if (I2C_WaitOnFlagUntilTimeout(hi2c, I2C_FLAG_TCR, RESET, Timeout, tickstart) != HAL_OK)
 8001976:	9600      	str	r6, [sp, #0]
 8001978:	4643      	mov	r3, r8
 800197a:	2180      	movs	r1, #128	; 0x80
 800197c:	4620      	mov	r0, r4
 800197e:	f7ff fd64 	bl	800144a <I2C_WaitOnFlagUntilTimeout>
 8001982:	2800      	cmp	r0, #0
 8001984:	d19a      	bne.n	80018bc <HAL_I2C_Mem_Read+0x30>
        if (hi2c->XferCount > MAX_NBYTE_SIZE)
 8001986:	8d63      	ldrh	r3, [r4, #42]	; 0x2a
 8001988:	b29b      	uxth	r3, r3
 800198a:	2bff      	cmp	r3, #255	; 0xff
 800198c:	d92f      	bls.n	80019ee <HAL_I2C_Mem_Read+0x162>
          hi2c->XferSize = MAX_NBYTE_SIZE;
 800198e:	22ff      	movs	r2, #255	; 0xff
 8001990:	8522      	strh	r2, [r4, #40]	; 0x28
          I2C_TransferConfig(hi2c, DevAddress, (uint8_t) hi2c->XferSize, I2C_RELOAD_MODE, I2C_NO_STARTSTOP);
 8001992:	9000      	str	r0, [sp, #0]
 8001994:	f04f 7380 	mov.w	r3, #16777216	; 0x1000000
          I2C_TransferConfig(hi2c, DevAddress, (uint8_t)hi2c->XferSize, I2C_AUTOEND_MODE, I2C_NO_STARTSTOP);
 8001998:	4639      	mov	r1, r7
 800199a:	4620      	mov	r0, r4
 800199c:	f7ff fd0e 	bl	80013bc <I2C_TransferConfig>
    while (hi2c->XferCount > 0U);
 80019a0:	8d63      	ldrh	r3, [r4, #42]	; 0x2a
 80019a2:	b29b      	uxth	r3, r3
 80019a4:	2b00      	cmp	r3, #0
 80019a6:	d1ca      	bne.n	800193e <HAL_I2C_Mem_Read+0xb2>
    if (I2C_WaitOnSTOPFlagUntilTimeout(hi2c, Timeout, tickstart) != HAL_OK)
 80019a8:	4632      	mov	r2, r6
 80019aa:	4641      	mov	r1, r8
 80019ac:	4620      	mov	r0, r4
 80019ae:	f7ff fe3f 	bl	8001630 <I2C_WaitOnSTOPFlagUntilTimeout>
 80019b2:	2800      	cmp	r0, #0
 80019b4:	d182      	bne.n	80018bc <HAL_I2C_Mem_Read+0x30>
    __HAL_I2C_CLEAR_FLAG(hi2c, I2C_FLAG_STOPF);
 80019b6:	6823      	ldr	r3, [r4, #0]
 80019b8:	2120      	movs	r1, #32
 80019ba:	61d9      	str	r1, [r3, #28]
    I2C_RESET_CR2(hi2c);
 80019bc:	685a      	ldr	r2, [r3, #4]
 80019be:	f022 72ff 	bic.w	r2, r2, #33423360	; 0x1fe0000
 80019c2:	f422 328b 	bic.w	r2, r2, #71168	; 0x11600
 80019c6:	f422 72ff 	bic.w	r2, r2, #510	; 0x1fe
 80019ca:	f022 0201 	bic.w	r2, r2, #1
 80019ce:	605a      	str	r2, [r3, #4]
    hi2c->State = HAL_I2C_STATE_READY;
 80019d0:	f884 1041 	strb.w	r1, [r4, #65]	; 0x41
    __HAL_UNLOCK(hi2c);
 80019d4:	f884 0040 	strb.w	r0, [r4, #64]	; 0x40
    hi2c->Mode  = HAL_I2C_MODE_NONE;
 80019d8:	f884 0042 	strb.w	r0, [r4, #66]	; 0x42
    return HAL_OK;
 80019dc:	e76f      	b.n	80018be <HAL_I2C_Mem_Read+0x32>
      hi2c->XferSize = hi2c->XferCount;
 80019de:	8d62      	ldrh	r2, [r4, #42]	; 0x2a
      I2C_TransferConfig(hi2c, DevAddress, (uint8_t)hi2c->XferSize, I2C_AUTOEND_MODE, I2C_GENERATE_START_READ);
 80019e0:	9300      	str	r3, [sp, #0]
      hi2c->XferSize = hi2c->XferCount;
 80019e2:	b292      	uxth	r2, r2
 80019e4:	8522      	strh	r2, [r4, #40]	; 0x28
      I2C_TransferConfig(hi2c, DevAddress, (uint8_t)hi2c->XferSize, I2C_AUTOEND_MODE, I2C_GENERATE_START_READ);
 80019e6:	f04f 7300 	mov.w	r3, #33554432	; 0x2000000
 80019ea:	b2d2      	uxtb	r2, r2
 80019ec:	e7a3      	b.n	8001936 <HAL_I2C_Mem_Read+0xaa>
          hi2c->XferSize = hi2c->XferCount;
 80019ee:	8d62      	ldrh	r2, [r4, #42]	; 0x2a
          I2C_TransferConfig(hi2c, DevAddress, (uint8_t)hi2c->XferSize, I2C_AUTOEND_MODE, I2C_NO_STARTSTOP);
 80019f0:	9000      	str	r0, [sp, #0]
          hi2c->XferSize = hi2c->XferCount;
 80019f2:	b292      	uxth	r2, r2
 80019f4:	8522      	strh	r2, [r4, #40]	; 0x28
          I2C_TransferConfig(hi2c, DevAddress, (uint8_t)hi2c->XferSize, I2C_AUTOEND_MODE, I2C_NO_STARTSTOP);
 80019f6:	f04f 7300 	mov.w	r3, #33554432	; 0x2000000
 80019fa:	b2d2      	uxtb	r2, r2
 80019fc:	e7cc      	b.n	8001998 <HAL_I2C_Mem_Read+0x10c>
    return HAL_BUSY;
 80019fe:	2002      	movs	r0, #2
 8001a00:	e75d      	b.n	80018be <HAL_I2C_Mem_Read+0x32>
 8001a02:	bf00      	nop
 8001a04:	80002400 	.word	0x80002400

08001a08 <HAL_I2C_EV_IRQHandler>:
  uint32_t itflags   = READ_REG(hi2c->Instance->ISR);
 8001a08:	6802      	ldr	r2, [r0, #0]
  if (hi2c->XferISR != NULL)
 8001a0a:	6b43      	ldr	r3, [r0, #52]	; 0x34
  uint32_t itflags   = READ_REG(hi2c->Instance->ISR);
 8001a0c:	6991      	ldr	r1, [r2, #24]
  uint32_t itsources = READ_REG(hi2c->Instance->CR1);
 8001a0e:	6812      	ldr	r2, [r2, #0]
  if (hi2c->XferISR != NULL)
 8001a10:	b103      	cbz	r3, 8001a14 <HAL_I2C_EV_IRQHandler+0xc>
    hi2c->XferISR(hi2c, itflags, itsources);
 8001a12:	4718      	bx	r3
 8001a14:	4770      	bx	lr

08001a16 <HAL_I2C_SlaveTxCpltCallback>:
 8001a16:	4770      	bx	lr

08001a18 <HAL_I2C_SlaveRxCpltCallback>:
 8001a18:	4770      	bx	lr

08001a1a <I2C_ITSlaveSequentialCplt>:
{
 8001a1a:	b538      	push	{r3, r4, r5, lr}
  hi2c->Mode = HAL_I2C_MODE_NONE;
 8001a1c:	2500      	movs	r5, #0
 8001a1e:	f880 5042 	strb.w	r5, [r0, #66]	; 0x42
  if (hi2c->State == HAL_I2C_STATE_BUSY_TX_LISTEN)
 8001a22:	f890 3041 	ldrb.w	r3, [r0, #65]	; 0x41
 8001a26:	2b29      	cmp	r3, #41	; 0x29
 8001a28:	d10c      	bne.n	8001a44 <I2C_ITSlaveSequentialCplt+0x2a>
    hi2c->State         = HAL_I2C_STATE_LISTEN;
 8001a2a:	2328      	movs	r3, #40	; 0x28
 8001a2c:	f880 3041 	strb.w	r3, [r0, #65]	; 0x41
    hi2c->PreviousState = I2C_STATE_SLAVE_BUSY_TX;
 8001a30:	2321      	movs	r3, #33	; 0x21
 8001a32:	6303      	str	r3, [r0, #48]	; 0x30
    I2C_Disable_IRQ(hi2c, I2C_XFER_TX_IT);
 8001a34:	2101      	movs	r1, #1
 8001a36:	f7ff fcdb 	bl	80013f0 <I2C_Disable_IRQ>
    __HAL_UNLOCK(hi2c);
 8001a3a:	f880 5040 	strb.w	r5, [r0, #64]	; 0x40
    HAL_I2C_SlaveTxCpltCallback(hi2c);
 8001a3e:	f7ff ffea 	bl	8001a16 <HAL_I2C_SlaveTxCpltCallback>
 8001a42:	bd38      	pop	{r3, r4, r5, pc}
  else if (hi2c->State == HAL_I2C_STATE_BUSY_RX_LISTEN)
 8001a44:	f890 3041 	ldrb.w	r3, [r0, #65]	; 0x41
 8001a48:	2b2a      	cmp	r3, #42	; 0x2a
 8001a4a:	d10b      	bne.n	8001a64 <I2C_ITSlaveSequentialCplt+0x4a>
    hi2c->State         = HAL_I2C_STATE_LISTEN;
 8001a4c:	2328      	movs	r3, #40	; 0x28
 8001a4e:	f880 3041 	strb.w	r3, [r0, #65]	; 0x41
    hi2c->PreviousState = I2C_STATE_SLAVE_BUSY_RX;
 8001a52:	2322      	movs	r3, #34	; 0x22
 8001a54:	6303      	str	r3, [r0, #48]	; 0x30
    I2C_Disable_IRQ(hi2c, I2C_XFER_RX_IT);
 8001a56:	2102      	movs	r1, #2
 8001a58:	f7ff fcca 	bl	80013f0 <I2C_Disable_IRQ>
    __HAL_UNLOCK(hi2c);
 8001a5c:	f880 5040 	strb.w	r5, [r0, #64]	; 0x40
    HAL_I2C_SlaveRxCpltCallback(hi2c);
 8001a60:	f7ff ffda 	bl	8001a18 <HAL_I2C_SlaveRxCpltCallback>
 8001a64:	bd38      	pop	{r3, r4, r5, pc}

08001a66 <HAL_I2C_AddrCallback>:
{
 8001a66:	4770      	bx	lr

08001a68 <I2C_ITAddrCplt.isra.8>:
static void I2C_ITAddrCplt(I2C_HandleTypeDef *hi2c, uint32_t ITFlags)
 8001a68:	b5f8      	push	{r3, r4, r5, r6, r7, lr}
  if (((uint32_t)hi2c->State & (uint32_t)HAL_I2C_STATE_LISTEN) == (uint32_t)HAL_I2C_STATE_LISTEN)
 8001a6a:	f890 3041 	ldrb.w	r3, [r0, #65]	; 0x41
 8001a6e:	f003 0328 	and.w	r3, r3, #40	; 0x28
 8001a72:	2b28      	cmp	r3, #40	; 0x28
static void I2C_ITAddrCplt(I2C_HandleTypeDef *hi2c, uint32_t ITFlags)
 8001a74:	4604      	mov	r4, r0
 8001a76:	6803      	ldr	r3, [r0, #0]
  if (((uint32_t)hi2c->State & (uint32_t)HAL_I2C_STATE_LISTEN) == (uint32_t)HAL_I2C_STATE_LISTEN)
 8001a78:	d134      	bne.n	8001ae4 <I2C_ITAddrCplt.isra.8+0x7c>
    transferdirection = I2C_GET_DIR(hi2c);
 8001a7a:	699e      	ldr	r6, [r3, #24]
    if (hi2c->Init.AddressingMode == I2C_ADDRESSINGMODE_10BIT)
 8001a7c:	68c1      	ldr	r1, [r0, #12]
    slaveaddrcode     = I2C_GET_ADDR_MATCH(hi2c);
 8001a7e:	699d      	ldr	r5, [r3, #24]
    ownadd1code       = I2C_GET_OWN_ADDRESS1(hi2c);
 8001a80:	689a      	ldr	r2, [r3, #8]
    ownadd2code       = I2C_GET_OWN_ADDRESS2(hi2c);
 8001a82:	68df      	ldr	r7, [r3, #12]
    slaveaddrcode     = I2C_GET_ADDR_MATCH(hi2c);
 8001a84:	0c2d      	lsrs	r5, r5, #16
    if (hi2c->Init.AddressingMode == I2C_ADDRESSINGMODE_10BIT)
 8001a86:	2902      	cmp	r1, #2
    transferdirection = I2C_GET_DIR(hi2c);
 8001a88:	f3c6 4600 	ubfx	r6, r6, #16, #1
    slaveaddrcode     = I2C_GET_ADDR_MATCH(hi2c);
 8001a8c:	f005 05fe 	and.w	r5, r5, #254	; 0xfe
    if (hi2c->Init.AddressingMode == I2C_ADDRESSINGMODE_10BIT)
 8001a90:	d120      	bne.n	8001ad4 <I2C_ITAddrCplt.isra.8+0x6c>
    ownadd1code       = I2C_GET_OWN_ADDRESS1(hi2c);
 8001a92:	f3c2 0209 	ubfx	r2, r2, #0, #10
      if ((slaveaddrcode & SlaveAddr_MSK) == ((ownadd1code >> SlaveAddr_SHIFT) & SlaveAddr_MSK))
 8001a96:	ea85 15d2 	eor.w	r5, r5, r2, lsr #7
 8001a9a:	f015 0506 	ands.w	r5, r5, #6
 8001a9e:	d10e      	bne.n	8001abe <I2C_ITAddrCplt.isra.8+0x56>
        hi2c->AddrEventCount++;
 8001aa0:	6c81      	ldr	r1, [r0, #72]	; 0x48
 8001aa2:	3101      	adds	r1, #1
 8001aa4:	6481      	str	r1, [r0, #72]	; 0x48
        if (hi2c->AddrEventCount == 2U)
 8001aa6:	6c81      	ldr	r1, [r0, #72]	; 0x48
 8001aa8:	2902      	cmp	r1, #2
 8001aaa:	d120      	bne.n	8001aee <I2C_ITAddrCplt.isra.8+0x86>
          __HAL_I2C_CLEAR_FLAG(hi2c, I2C_FLAG_ADDR);
 8001aac:	2108      	movs	r1, #8
          hi2c->AddrEventCount = 0U;
 8001aae:	6485      	str	r5, [r0, #72]	; 0x48
          __HAL_I2C_CLEAR_FLAG(hi2c, I2C_FLAG_ADDR);
 8001ab0:	61d9      	str	r1, [r3, #28]
          __HAL_UNLOCK(hi2c);
 8001ab2:	f880 5040 	strb.w	r5, [r0, #64]	; 0x40
          HAL_I2C_AddrCallback(hi2c, transferdirection, slaveaddrcode);
 8001ab6:	4631      	mov	r1, r6
      HAL_I2C_AddrCallback(hi2c, transferdirection, slaveaddrcode);
 8001ab8:	f7ff ffd5 	bl	8001a66 <HAL_I2C_AddrCallback>
 8001abc:	bdf8      	pop	{r3, r4, r5, r6, r7, pc}
        I2C_Disable_IRQ(hi2c, I2C_XFER_LISTEN_IT);
 8001abe:	2104      	movs	r1, #4
 8001ac0:	f7ff fc96 	bl	80013f0 <I2C_Disable_IRQ>
        __HAL_UNLOCK(hi2c);
 8001ac4:	2300      	movs	r3, #0
 8001ac6:	f880 3040 	strb.w	r3, [r0, #64]	; 0x40
        HAL_I2C_AddrCallback(hi2c, transferdirection, slaveaddrcode);
 8001aca:	f007 02fe 	and.w	r2, r7, #254	; 0xfe
      HAL_I2C_AddrCallback(hi2c, transferdirection, slaveaddrcode);
 8001ace:	4631      	mov	r1, r6
 8001ad0:	4620      	mov	r0, r4
 8001ad2:	e7f1      	b.n	8001ab8 <I2C_ITAddrCplt.isra.8+0x50>
      I2C_Disable_IRQ(hi2c, I2C_XFER_LISTEN_IT);
 8001ad4:	2104      	movs	r1, #4
 8001ad6:	f7ff fc8b 	bl	80013f0 <I2C_Disable_IRQ>
      __HAL_UNLOCK(hi2c);
 8001ada:	2300      	movs	r3, #0
 8001adc:	f880 3040 	strb.w	r3, [r0, #64]	; 0x40
      HAL_I2C_AddrCallback(hi2c, transferdirection, slaveaddrcode);
 8001ae0:	462a      	mov	r2, r5
 8001ae2:	e7f4      	b.n	8001ace <I2C_ITAddrCplt.isra.8+0x66>
    __HAL_I2C_CLEAR_FLAG(hi2c, I2C_FLAG_ADDR);
 8001ae4:	2208      	movs	r2, #8
 8001ae6:	61da      	str	r2, [r3, #28]
    __HAL_UNLOCK(hi2c);
 8001ae8:	2300      	movs	r3, #0
 8001aea:	f880 3040 	strb.w	r3, [r0, #64]	; 0x40
 8001aee:	bdf8      	pop	{r3, r4, r5, r6, r7, pc}

08001af0 <HAL_I2C_ListenCpltCallback>:
 8001af0:	4770      	bx	lr
	...

08001af4 <I2C_ITListenCplt>:
  hi2c->XferOptions = I2C_NO_OPTION_FRAME;
 8001af4:	4b17      	ldr	r3, [pc, #92]	; (8001b54 <I2C_ITListenCplt+0x60>)
{
 8001af6:	b510      	push	{r4, lr}
  hi2c->State = HAL_I2C_STATE_READY;
 8001af8:	2220      	movs	r2, #32
  hi2c->XferOptions = I2C_NO_OPTION_FRAME;
 8001afa:	62c3      	str	r3, [r0, #44]	; 0x2c
  hi2c->PreviousState = I2C_STATE_NONE;
 8001afc:	2300      	movs	r3, #0
 8001afe:	6303      	str	r3, [r0, #48]	; 0x30
  hi2c->XferISR = NULL;
 8001b00:	6343      	str	r3, [r0, #52]	; 0x34
  hi2c->State = HAL_I2C_STATE_READY;
 8001b02:	f880 2041 	strb.w	r2, [r0, #65]	; 0x41
  hi2c->Mode = HAL_I2C_MODE_NONE;
 8001b06:	f880 3042 	strb.w	r3, [r0, #66]	; 0x42
  if (I2C_CHECK_FLAG(ITFlags, I2C_FLAG_RXNE) != RESET)
 8001b0a:	074b      	lsls	r3, r1, #29
{
 8001b0c:	4604      	mov	r4, r0
  if (I2C_CHECK_FLAG(ITFlags, I2C_FLAG_RXNE) != RESET)
 8001b0e:	d512      	bpl.n	8001b36 <I2C_ITListenCplt+0x42>
    *hi2c->pBuffPtr = (uint8_t)hi2c->Instance->RXDR;
 8001b10:	6802      	ldr	r2, [r0, #0]
 8001b12:	6a43      	ldr	r3, [r0, #36]	; 0x24
 8001b14:	6a52      	ldr	r2, [r2, #36]	; 0x24
 8001b16:	701a      	strb	r2, [r3, #0]
    hi2c->pBuffPtr++;
 8001b18:	6a43      	ldr	r3, [r0, #36]	; 0x24
 8001b1a:	3301      	adds	r3, #1
 8001b1c:	6243      	str	r3, [r0, #36]	; 0x24
    if ((hi2c->XferSize > 0U))
 8001b1e:	8d03      	ldrh	r3, [r0, #40]	; 0x28
 8001b20:	b14b      	cbz	r3, 8001b36 <I2C_ITListenCplt+0x42>
      hi2c->XferSize--;
 8001b22:	3b01      	subs	r3, #1
 8001b24:	8503      	strh	r3, [r0, #40]	; 0x28
      hi2c->XferCount--;
 8001b26:	8d43      	ldrh	r3, [r0, #42]	; 0x2a
 8001b28:	3b01      	subs	r3, #1
 8001b2a:	b29b      	uxth	r3, r3
 8001b2c:	8543      	strh	r3, [r0, #42]	; 0x2a
      hi2c->ErrorCode |= HAL_I2C_ERROR_AF;
 8001b2e:	6c43      	ldr	r3, [r0, #68]	; 0x44
 8001b30:	f043 0304 	orr.w	r3, r3, #4
 8001b34:	6443      	str	r3, [r0, #68]	; 0x44
  I2C_Disable_IRQ(hi2c, I2C_XFER_LISTEN_IT | I2C_XFER_RX_IT | I2C_XFER_TX_IT);
 8001b36:	4620      	mov	r0, r4
 8001b38:	2107      	movs	r1, #7
 8001b3a:	f7ff fc59 	bl	80013f0 <I2C_Disable_IRQ>
  __HAL_I2C_CLEAR_FLAG(hi2c, I2C_FLAG_AF);
 8001b3e:	6823      	ldr	r3, [r4, #0]
 8001b40:	2210      	movs	r2, #16
 8001b42:	61da      	str	r2, [r3, #28]
  __HAL_UNLOCK(hi2c);
 8001b44:	2300      	movs	r3, #0
 8001b46:	f884 3040 	strb.w	r3, [r4, #64]	; 0x40
  HAL_I2C_ListenCpltCallback(hi2c);
 8001b4a:	4620      	mov	r0, r4
 8001b4c:	f7ff ffd0 	bl	8001af0 <HAL_I2C_ListenCpltCallback>
 8001b50:	bd10      	pop	{r4, pc}
 8001b52:	bf00      	nop
 8001b54:	ffff0000 	.word	0xffff0000

08001b58 <HAL_I2C_ErrorCallback>:
 8001b58:	4770      	bx	lr

08001b5a <HAL_I2C_AbortCpltCallback>:
{
 8001b5a:	4770      	bx	lr

08001b5c <I2C_ITError>:
{
 8001b5c:	b570      	push	{r4, r5, r6, lr}
  hi2c->XferOptions   = I2C_NO_OPTION_FRAME;
 8001b5e:	4a32      	ldr	r2, [pc, #200]	; (8001c28 <I2C_ITError+0xcc>)
  HAL_I2C_StateTypeDef tmpstate = hi2c->State;
 8001b60:	f890 3041 	ldrb.w	r3, [r0, #65]	; 0x41
  hi2c->Mode          = HAL_I2C_MODE_NONE;
 8001b64:	2500      	movs	r5, #0
 8001b66:	f880 5042 	strb.w	r5, [r0, #66]	; 0x42
  hi2c->XferOptions   = I2C_NO_OPTION_FRAME;
 8001b6a:	62c2      	str	r2, [r0, #44]	; 0x2c
  hi2c->XferCount     = 0U;
 8001b6c:	8545      	strh	r5, [r0, #42]	; 0x2a
  hi2c->ErrorCode |= ErrorCode;
 8001b6e:	6c42      	ldr	r2, [r0, #68]	; 0x44
  if ((tmpstate == HAL_I2C_STATE_LISTEN)         ||
 8001b70:	3b28      	subs	r3, #40	; 0x28
  hi2c->ErrorCode |= ErrorCode;
 8001b72:	4311      	orrs	r1, r2
  if ((tmpstate == HAL_I2C_STATE_LISTEN)         ||
 8001b74:	2b02      	cmp	r3, #2
{
 8001b76:	4604      	mov	r4, r0
  hi2c->ErrorCode |= ErrorCode;
 8001b78:	6441      	str	r1, [r0, #68]	; 0x44
  if ((tmpstate == HAL_I2C_STATE_LISTEN)         ||
 8001b7a:	d822      	bhi.n	8001bc2 <I2C_ITError+0x66>
    I2C_Disable_IRQ(hi2c, I2C_XFER_RX_IT | I2C_XFER_TX_IT);
 8001b7c:	2103      	movs	r1, #3
 8001b7e:	f7ff fc37 	bl	80013f0 <I2C_Disable_IRQ>
    hi2c->State         = HAL_I2C_STATE_LISTEN;
 8001b82:	2328      	movs	r3, #40	; 0x28
 8001b84:	f880 3041 	strb.w	r3, [r0, #65]	; 0x41
    hi2c->XferISR       = I2C_Slave_ISR_IT;
 8001b88:	4b28      	ldr	r3, [pc, #160]	; (8001c2c <I2C_ITError+0xd0>)
    hi2c->PreviousState = I2C_STATE_NONE;
 8001b8a:	6305      	str	r5, [r0, #48]	; 0x30
    hi2c->XferISR       = NULL;
 8001b8c:	6363      	str	r3, [r4, #52]	; 0x34
  if ((hi2c->Instance->CR1 & I2C_CR1_TXDMAEN) == I2C_CR1_TXDMAEN)
 8001b8e:	6823      	ldr	r3, [r4, #0]
 8001b90:	6819      	ldr	r1, [r3, #0]
    hi2c->Instance->CR1 &= ~I2C_CR1_TXDMAEN;
 8001b92:	681a      	ldr	r2, [r3, #0]
  if ((hi2c->Instance->CR1 & I2C_CR1_TXDMAEN) == I2C_CR1_TXDMAEN)
 8001b94:	f411 4180 	ands.w	r1, r1, #16384	; 0x4000
 8001b98:	d020      	beq.n	8001bdc <I2C_ITError+0x80>
    if (hi2c->hdmatx != NULL)
 8001b9a:	6ba0      	ldr	r0, [r4, #56]	; 0x38
    hi2c->Instance->CR1 &= ~I2C_CR1_TXDMAEN;
 8001b9c:	f422 4280 	bic.w	r2, r2, #16384	; 0x4000
 8001ba0:	601a      	str	r2, [r3, #0]
    if (hi2c->hdmatx != NULL)
 8001ba2:	2800      	cmp	r0, #0
 8001ba4:	d03e      	beq.n	8001c24 <I2C_ITError+0xc8>
      hi2c->hdmatx->XferAbortCallback = I2C_DMAAbort;
 8001ba6:	4b22      	ldr	r3, [pc, #136]	; (8001c30 <I2C_ITError+0xd4>)
 8001ba8:	6383      	str	r3, [r0, #56]	; 0x38
      __HAL_UNLOCK(hi2c);
 8001baa:	2300      	movs	r3, #0
 8001bac:	f884 3040 	strb.w	r3, [r4, #64]	; 0x40
      if (HAL_DMA_Abort_IT(hi2c->hdmatx) != HAL_OK)
 8001bb0:	f7ff faf4 	bl	800119c <HAL_DMA_Abort_IT>
 8001bb4:	2800      	cmp	r0, #0
 8001bb6:	d035      	beq.n	8001c24 <I2C_ITError+0xc8>
        hi2c->hdmatx->XferAbortCallback(hi2c->hdmatx);
 8001bb8:	6ba0      	ldr	r0, [r4, #56]	; 0x38
        hi2c->hdmarx->XferAbortCallback(hi2c->hdmarx);
 8001bba:	6b83      	ldr	r3, [r0, #56]	; 0x38
}
 8001bbc:	e8bd 4070 	ldmia.w	sp!, {r4, r5, r6, lr}
        hi2c->hdmarx->XferAbortCallback(hi2c->hdmarx);
 8001bc0:	4718      	bx	r3
    I2C_Disable_IRQ(hi2c, I2C_XFER_LISTEN_IT | I2C_XFER_RX_IT | I2C_XFER_TX_IT);
 8001bc2:	2107      	movs	r1, #7
 8001bc4:	f7ff fc14 	bl	80013f0 <I2C_Disable_IRQ>
    if (hi2c->State != HAL_I2C_STATE_ABORT)
 8001bc8:	f890 3041 	ldrb.w	r3, [r0, #65]	; 0x41
 8001bcc:	2b60      	cmp	r3, #96	; 0x60
      hi2c->State         = HAL_I2C_STATE_READY;
 8001bce:	bf1c      	itt	ne
 8001bd0:	2320      	movne	r3, #32
 8001bd2:	f880 3041 	strbne.w	r3, [r0, #65]	; 0x41
    hi2c->PreviousState = I2C_STATE_NONE;
 8001bd6:	2300      	movs	r3, #0
 8001bd8:	6303      	str	r3, [r0, #48]	; 0x30
 8001bda:	e7d7      	b.n	8001b8c <I2C_ITError+0x30>
  else if ((hi2c->Instance->CR1 & I2C_CR1_RXDMAEN) == I2C_CR1_RXDMAEN)
 8001bdc:	f412 4200 	ands.w	r2, r2, #32768	; 0x8000
 8001be0:	d00e      	beq.n	8001c00 <I2C_ITError+0xa4>
    hi2c->Instance->CR1 &= ~I2C_CR1_RXDMAEN;
 8001be2:	681a      	ldr	r2, [r3, #0]
    if (hi2c->hdmarx != NULL)
 8001be4:	6be0      	ldr	r0, [r4, #60]	; 0x3c
    hi2c->Instance->CR1 &= ~I2C_CR1_RXDMAEN;
 8001be6:	f422 4200 	bic.w	r2, r2, #32768	; 0x8000
 8001bea:	601a      	str	r2, [r3, #0]
    if (hi2c->hdmarx != NULL)
 8001bec:	b1d0      	cbz	r0, 8001c24 <I2C_ITError+0xc8>
      hi2c->hdmarx->XferAbortCallback = I2C_DMAAbort;
 8001bee:	4b10      	ldr	r3, [pc, #64]	; (8001c30 <I2C_ITError+0xd4>)
 8001bf0:	6383      	str	r3, [r0, #56]	; 0x38
      __HAL_UNLOCK(hi2c);
 8001bf2:	f884 1040 	strb.w	r1, [r4, #64]	; 0x40
      if (HAL_DMA_Abort_IT(hi2c->hdmarx) != HAL_OK)
 8001bf6:	f7ff fad1 	bl	800119c <HAL_DMA_Abort_IT>
 8001bfa:	b198      	cbz	r0, 8001c24 <I2C_ITError+0xc8>
        hi2c->hdmarx->XferAbortCallback(hi2c->hdmarx);
 8001bfc:	6be0      	ldr	r0, [r4, #60]	; 0x3c
 8001bfe:	e7dc      	b.n	8001bba <I2C_ITError+0x5e>
  else if (hi2c->State == HAL_I2C_STATE_ABORT)
 8001c00:	f894 3041 	ldrb.w	r3, [r4, #65]	; 0x41
 8001c04:	2b60      	cmp	r3, #96	; 0x60
 8001c06:	d108      	bne.n	8001c1a <I2C_ITError+0xbe>
    hi2c->State = HAL_I2C_STATE_READY;
 8001c08:	2320      	movs	r3, #32
 8001c0a:	f884 3041 	strb.w	r3, [r4, #65]	; 0x41
    __HAL_UNLOCK(hi2c);
 8001c0e:	f884 2040 	strb.w	r2, [r4, #64]	; 0x40
    HAL_I2C_AbortCpltCallback(hi2c);
 8001c12:	4620      	mov	r0, r4
 8001c14:	f7ff ffa1 	bl	8001b5a <HAL_I2C_AbortCpltCallback>
 8001c18:	bd70      	pop	{r4, r5, r6, pc}
    __HAL_UNLOCK(hi2c);
 8001c1a:	f884 2040 	strb.w	r2, [r4, #64]	; 0x40
    HAL_I2C_ErrorCallback(hi2c);
 8001c1e:	4620      	mov	r0, r4
 8001c20:	f7ff ff9a 	bl	8001b58 <HAL_I2C_ErrorCallback>
 8001c24:	bd70      	pop	{r4, r5, r6, pc}
 8001c26:	bf00      	nop
 8001c28:	ffff0000 	.word	0xffff0000
 8001c2c:	08001d25 	.word	0x08001d25
 8001c30:	08001e95 	.word	0x08001e95

08001c34 <I2C_ITSlaveCplt>:
  uint32_t tmpcr1value = READ_REG(hi2c->Instance->CR1);
 8001c34:	6803      	ldr	r3, [r0, #0]
  __HAL_I2C_CLEAR_FLAG(hi2c, I2C_FLAG_STOPF);
 8001c36:	2220      	movs	r2, #32
{
 8001c38:	b570      	push	{r4, r5, r6, lr}
  uint32_t tmpcr1value = READ_REG(hi2c->Instance->CR1);
 8001c3a:	681e      	ldr	r6, [r3, #0]
  __HAL_I2C_CLEAR_FLAG(hi2c, I2C_FLAG_STOPF);
 8001c3c:	61da      	str	r2, [r3, #28]
  __HAL_I2C_CLEAR_FLAG(hi2c, I2C_FLAG_ADDR);
 8001c3e:	2208      	movs	r2, #8
 8001c40:	61da      	str	r2, [r3, #28]
{
 8001c42:	460d      	mov	r5, r1
  I2C_Disable_IRQ(hi2c, I2C_XFER_LISTEN_IT | I2C_XFER_TX_IT | I2C_XFER_RX_IT);
 8001c44:	2107      	movs	r1, #7
{
 8001c46:	4604      	mov	r4, r0
  I2C_Disable_IRQ(hi2c, I2C_XFER_LISTEN_IT | I2C_XFER_TX_IT | I2C_XFER_RX_IT);
 8001c48:	f7ff fbd2 	bl	80013f0 <I2C_Disable_IRQ>
  hi2c->Instance->CR2 |= I2C_CR2_NACK;
 8001c4c:	6803      	ldr	r3, [r0, #0]
 8001c4e:	685a      	ldr	r2, [r3, #4]
 8001c50:	f442 4200 	orr.w	r2, r2, #32768	; 0x8000
 8001c54:	605a      	str	r2, [r3, #4]
  I2C_RESET_CR2(hi2c);
 8001c56:	685a      	ldr	r2, [r3, #4]
 8001c58:	f022 72ff 	bic.w	r2, r2, #33423360	; 0x1fe0000
 8001c5c:	f422 328b 	bic.w	r2, r2, #71168	; 0x11600
 8001c60:	f422 72ff 	bic.w	r2, r2, #510	; 0x1fe
 8001c64:	f022 0201 	bic.w	r2, r2, #1
 8001c68:	605a      	str	r2, [r3, #4]
  I2C_Flush_TXDR(hi2c);
 8001c6a:	f7ff fb99 	bl	80013a0 <I2C_Flush_TXDR>
  if (I2C_CHECK_IT_SOURCE(tmpcr1value, I2C_CR1_TXDMAEN) != RESET)
 8001c6e:	0471      	lsls	r1, r6, #17
 8001c70:	d532      	bpl.n	8001cd8 <I2C_ITSlaveCplt+0xa4>
    if (hi2c->hdmatx != NULL)
 8001c72:	6b83      	ldr	r3, [r0, #56]	; 0x38
    if (hi2c->hdmarx != NULL)
 8001c74:	b11b      	cbz	r3, 8001c7e <I2C_ITSlaveCplt+0x4a>
      hi2c->XferCount = (uint16_t)__HAL_DMA_GET_COUNTER(hi2c->hdmarx);
 8001c76:	681b      	ldr	r3, [r3, #0]
 8001c78:	685b      	ldr	r3, [r3, #4]
 8001c7a:	b29b      	uxth	r3, r3
 8001c7c:	8563      	strh	r3, [r4, #42]	; 0x2a
  if (I2C_CHECK_FLAG(ITFlags, I2C_FLAG_RXNE) != RESET)
 8001c7e:	076b      	lsls	r3, r5, #29
 8001c80:	d50e      	bpl.n	8001ca0 <I2C_ITSlaveCplt+0x6c>
    *hi2c->pBuffPtr = (uint8_t)hi2c->Instance->RXDR;
 8001c82:	6822      	ldr	r2, [r4, #0]
 8001c84:	6a63      	ldr	r3, [r4, #36]	; 0x24
 8001c86:	6a52      	ldr	r2, [r2, #36]	; 0x24
 8001c88:	701a      	strb	r2, [r3, #0]
    hi2c->pBuffPtr++;
 8001c8a:	6a63      	ldr	r3, [r4, #36]	; 0x24
 8001c8c:	3301      	adds	r3, #1
 8001c8e:	6263      	str	r3, [r4, #36]	; 0x24
    if ((hi2c->XferSize > 0U))
 8001c90:	8d23      	ldrh	r3, [r4, #40]	; 0x28
 8001c92:	b12b      	cbz	r3, 8001ca0 <I2C_ITSlaveCplt+0x6c>
      hi2c->XferSize--;
 8001c94:	3b01      	subs	r3, #1
 8001c96:	8523      	strh	r3, [r4, #40]	; 0x28
      hi2c->XferCount--;
 8001c98:	8d63      	ldrh	r3, [r4, #42]	; 0x2a
 8001c9a:	3b01      	subs	r3, #1
 8001c9c:	b29b      	uxth	r3, r3
 8001c9e:	8563      	strh	r3, [r4, #42]	; 0x2a
  if (hi2c->XferCount != 0U)
 8001ca0:	8d63      	ldrh	r3, [r4, #42]	; 0x2a
 8001ca2:	b29b      	uxth	r3, r3
 8001ca4:	b11b      	cbz	r3, 8001cae <I2C_ITSlaveCplt+0x7a>
    hi2c->ErrorCode |= HAL_I2C_ERROR_AF;
 8001ca6:	6c63      	ldr	r3, [r4, #68]	; 0x44
 8001ca8:	f043 0304 	orr.w	r3, r3, #4
 8001cac:	6463      	str	r3, [r4, #68]	; 0x44
  hi2c->PreviousState = I2C_STATE_NONE;
 8001cae:	2300      	movs	r3, #0
 8001cb0:	6323      	str	r3, [r4, #48]	; 0x30
  hi2c->Mode = HAL_I2C_MODE_NONE;
 8001cb2:	f884 3042 	strb.w	r3, [r4, #66]	; 0x42
  hi2c->XferISR = NULL;
 8001cb6:	6363      	str	r3, [r4, #52]	; 0x34
  if (hi2c->ErrorCode != HAL_I2C_ERROR_NONE)
 8001cb8:	6c63      	ldr	r3, [r4, #68]	; 0x44
 8001cba:	b18b      	cbz	r3, 8001ce0 <I2C_ITSlaveCplt+0xac>
    I2C_ITError(hi2c, hi2c->ErrorCode);
 8001cbc:	6c61      	ldr	r1, [r4, #68]	; 0x44
 8001cbe:	4620      	mov	r0, r4
 8001cc0:	f7ff ff4c 	bl	8001b5c <I2C_ITError>
    if (hi2c->State == HAL_I2C_STATE_LISTEN)
 8001cc4:	f894 3041 	ldrb.w	r3, [r4, #65]	; 0x41
 8001cc8:	2b28      	cmp	r3, #40	; 0x28
 8001cca:	d128      	bne.n	8001d1e <I2C_ITSlaveCplt+0xea>
      I2C_ITListenCplt(hi2c, ITFlags);
 8001ccc:	4629      	mov	r1, r5
 8001cce:	4620      	mov	r0, r4
}
 8001cd0:	e8bd 4070 	ldmia.w	sp!, {r4, r5, r6, lr}
      I2C_ITListenCplt(hi2c, ITFlags);
 8001cd4:	f7ff bf0e 	b.w	8001af4 <I2C_ITListenCplt>
  else if (I2C_CHECK_IT_SOURCE(tmpcr1value, I2C_CR1_RXDMAEN) != RESET)
 8001cd8:	0432      	lsls	r2, r6, #16
 8001cda:	d5d0      	bpl.n	8001c7e <I2C_ITSlaveCplt+0x4a>
    if (hi2c->hdmarx != NULL)
 8001cdc:	6bc3      	ldr	r3, [r0, #60]	; 0x3c
 8001cde:	e7c9      	b.n	8001c74 <I2C_ITSlaveCplt+0x40>
  else if (hi2c->XferOptions != I2C_NO_OPTION_FRAME)
 8001ce0:	6ae2      	ldr	r2, [r4, #44]	; 0x2c
 8001ce2:	f512 3f80 	cmn.w	r2, #65536	; 0x10000
 8001ce6:	d00a      	beq.n	8001cfe <I2C_ITSlaveCplt+0xca>
    hi2c->XferOptions = I2C_NO_OPTION_FRAME;
 8001ce8:	4a0d      	ldr	r2, [pc, #52]	; (8001d20 <I2C_ITSlaveCplt+0xec>)
 8001cea:	62e2      	str	r2, [r4, #44]	; 0x2c
    hi2c->State = HAL_I2C_STATE_READY;
 8001cec:	2220      	movs	r2, #32
 8001cee:	f884 2041 	strb.w	r2, [r4, #65]	; 0x41
    __HAL_UNLOCK(hi2c);
 8001cf2:	f884 3040 	strb.w	r3, [r4, #64]	; 0x40
    HAL_I2C_ListenCpltCallback(hi2c);
 8001cf6:	4620      	mov	r0, r4
 8001cf8:	f7ff fefa 	bl	8001af0 <HAL_I2C_ListenCpltCallback>
 8001cfc:	bd70      	pop	{r4, r5, r6, pc}
  else if (hi2c->State == HAL_I2C_STATE_BUSY_RX)
 8001cfe:	f894 2041 	ldrb.w	r2, [r4, #65]	; 0x41
    __HAL_UNLOCK(hi2c);
 8001d02:	f884 3040 	strb.w	r3, [r4, #64]	; 0x40
  else if (hi2c->State == HAL_I2C_STATE_BUSY_RX)
 8001d06:	2a22      	cmp	r2, #34	; 0x22
 8001d08:	f04f 0220 	mov.w	r2, #32
    hi2c->State = HAL_I2C_STATE_READY;
 8001d0c:	f884 2041 	strb.w	r2, [r4, #65]	; 0x41
    HAL_I2C_SlaveRxCpltCallback(hi2c);
 8001d10:	4620      	mov	r0, r4
  else if (hi2c->State == HAL_I2C_STATE_BUSY_RX)
 8001d12:	d102      	bne.n	8001d1a <I2C_ITSlaveCplt+0xe6>
    HAL_I2C_SlaveRxCpltCallback(hi2c);
 8001d14:	f7ff fe80 	bl	8001a18 <HAL_I2C_SlaveRxCpltCallback>
 8001d18:	bd70      	pop	{r4, r5, r6, pc}
    HAL_I2C_SlaveTxCpltCallback(hi2c);
 8001d1a:	f7ff fe7c 	bl	8001a16 <HAL_I2C_SlaveTxCpltCallback>
 8001d1e:	bd70      	pop	{r4, r5, r6, pc}
 8001d20:	ffff0000 	.word	0xffff0000

08001d24 <I2C_Slave_ISR_IT>:
{
 8001d24:	b570      	push	{r4, r5, r6, lr}
 8001d26:	4616      	mov	r6, r2
  __HAL_LOCK(hi2c);
 8001d28:	f890 2040 	ldrb.w	r2, [r0, #64]	; 0x40
  uint32_t tmpoptions = hi2c->XferOptions;
 8001d2c:	6ac3      	ldr	r3, [r0, #44]	; 0x2c
  __HAL_LOCK(hi2c);
 8001d2e:	2a01      	cmp	r2, #1
{
 8001d30:	4604      	mov	r4, r0
 8001d32:	460d      	mov	r5, r1
  __HAL_LOCK(hi2c);
 8001d34:	d07c      	beq.n	8001e30 <I2C_Slave_ISR_IT+0x10c>
 8001d36:	2201      	movs	r2, #1
 8001d38:	f880 2040 	strb.w	r2, [r0, #64]	; 0x40
  if ((I2C_CHECK_FLAG(ITFlags, I2C_FLAG_AF) != RESET) && (I2C_CHECK_IT_SOURCE(ITSources, I2C_IT_NACKI) != RESET))
 8001d3c:	06ca      	lsls	r2, r1, #27
 8001d3e:	d539      	bpl.n	8001db4 <I2C_Slave_ISR_IT+0x90>
 8001d40:	06f2      	lsls	r2, r6, #27
 8001d42:	d537      	bpl.n	8001db4 <I2C_Slave_ISR_IT+0x90>
    if (hi2c->XferCount == 0U)
 8001d44:	8d42      	ldrh	r2, [r0, #42]	; 0x2a
 8001d46:	b292      	uxth	r2, r2
 8001d48:	bb32      	cbnz	r2, 8001d98 <I2C_Slave_ISR_IT+0x74>
      if ((hi2c->State == HAL_I2C_STATE_LISTEN) && (tmpoptions == I2C_FIRST_AND_LAST_FRAME)) /* Same action must be done for (tmpoptions == I2C_LAST_FRAME) which removed for Warning[Pa134]: left and right operands are identical */
 8001d4a:	f890 2041 	ldrb.w	r2, [r0, #65]	; 0x41
 8001d4e:	2a28      	cmp	r2, #40	; 0x28
 8001d50:	d110      	bne.n	8001d74 <I2C_Slave_ISR_IT+0x50>
 8001d52:	f1b3 7f00 	cmp.w	r3, #33554432	; 0x2000000
 8001d56:	d10d      	bne.n	8001d74 <I2C_Slave_ISR_IT+0x50>
        I2C_ITListenCplt(hi2c, ITFlags);
 8001d58:	f7ff fecc 	bl	8001af4 <I2C_ITListenCplt>
  if ((I2C_CHECK_FLAG(ITFlags, I2C_FLAG_STOPF) != RESET) && (I2C_CHECK_IT_SOURCE(ITSources, I2C_IT_STOPI) != RESET))
 8001d5c:	06aa      	lsls	r2, r5, #26
 8001d5e:	d505      	bpl.n	8001d6c <I2C_Slave_ISR_IT+0x48>
 8001d60:	06b3      	lsls	r3, r6, #26
 8001d62:	d503      	bpl.n	8001d6c <I2C_Slave_ISR_IT+0x48>
    I2C_ITSlaveCplt(hi2c, ITFlags);
 8001d64:	4629      	mov	r1, r5
 8001d66:	4620      	mov	r0, r4
 8001d68:	f7ff ff64 	bl	8001c34 <I2C_ITSlaveCplt>
  __HAL_UNLOCK(hi2c);
 8001d6c:	2000      	movs	r0, #0
 8001d6e:	f884 0040 	strb.w	r0, [r4, #64]	; 0x40
  return HAL_OK;
 8001d72:	bd70      	pop	{r4, r5, r6, pc}
      else if ((hi2c->State == HAL_I2C_STATE_BUSY_TX_LISTEN) && (tmpoptions != I2C_NO_OPTION_FRAME))
 8001d74:	f894 2041 	ldrb.w	r2, [r4, #65]	; 0x41
 8001d78:	2a29      	cmp	r2, #41	; 0x29
 8001d7a:	6822      	ldr	r2, [r4, #0]
 8001d7c:	f04f 0110 	mov.w	r1, #16
        __HAL_I2C_CLEAR_FLAG(hi2c, I2C_FLAG_AF);
 8001d80:	61d1      	str	r1, [r2, #28]
      else if ((hi2c->State == HAL_I2C_STATE_BUSY_TX_LISTEN) && (tmpoptions != I2C_NO_OPTION_FRAME))
 8001d82:	d1eb      	bne.n	8001d5c <I2C_Slave_ISR_IT+0x38>
 8001d84:	f513 3f80 	cmn.w	r3, #65536	; 0x10000
 8001d88:	d0e8      	beq.n	8001d5c <I2C_Slave_ISR_IT+0x38>
        I2C_Flush_TXDR(hi2c);
 8001d8a:	4620      	mov	r0, r4
 8001d8c:	f7ff fb08 	bl	80013a0 <I2C_Flush_TXDR>
      I2C_ITSlaveSequentialCplt(hi2c);
 8001d90:	4620      	mov	r0, r4
 8001d92:	f7ff fe42 	bl	8001a1a <I2C_ITSlaveSequentialCplt>
 8001d96:	e7e1      	b.n	8001d5c <I2C_Slave_ISR_IT+0x38>
      __HAL_I2C_CLEAR_FLAG(hi2c, I2C_FLAG_AF);
 8001d98:	6802      	ldr	r2, [r0, #0]
 8001d9a:	2110      	movs	r1, #16
 8001d9c:	61d1      	str	r1, [r2, #28]
      hi2c->ErrorCode |= HAL_I2C_ERROR_AF;
 8001d9e:	6c42      	ldr	r2, [r0, #68]	; 0x44
      if ((tmpoptions == I2C_FIRST_FRAME) || (tmpoptions == I2C_NEXT_FRAME))
 8001da0:	f033 7380 	bics.w	r3, r3, #16777216	; 0x1000000
      hi2c->ErrorCode |= HAL_I2C_ERROR_AF;
 8001da4:	f042 0204 	orr.w	r2, r2, #4
 8001da8:	6442      	str	r2, [r0, #68]	; 0x44
      if ((tmpoptions == I2C_FIRST_FRAME) || (tmpoptions == I2C_NEXT_FRAME))
 8001daa:	d1d7      	bne.n	8001d5c <I2C_Slave_ISR_IT+0x38>
        I2C_ITError(hi2c, hi2c->ErrorCode);
 8001dac:	6c41      	ldr	r1, [r0, #68]	; 0x44
 8001dae:	f7ff fed5 	bl	8001b5c <I2C_ITError>
 8001db2:	e7d3      	b.n	8001d5c <I2C_Slave_ISR_IT+0x38>
  else if ((I2C_CHECK_FLAG(ITFlags, I2C_FLAG_RXNE) != RESET) && (I2C_CHECK_IT_SOURCE(ITSources, I2C_IT_RXI) != RESET))
 8001db4:	076a      	lsls	r2, r5, #29
 8001db6:	d51a      	bpl.n	8001dee <I2C_Slave_ISR_IT+0xca>
 8001db8:	0770      	lsls	r0, r6, #29
 8001dba:	d518      	bpl.n	8001dee <I2C_Slave_ISR_IT+0xca>
    if (hi2c->XferCount > 0U)
 8001dbc:	8d62      	ldrh	r2, [r4, #42]	; 0x2a
 8001dbe:	b292      	uxth	r2, r2
 8001dc0:	b16a      	cbz	r2, 8001dde <I2C_Slave_ISR_IT+0xba>
      *hi2c->pBuffPtr = (uint8_t)hi2c->Instance->RXDR;
 8001dc2:	6821      	ldr	r1, [r4, #0]
 8001dc4:	6a62      	ldr	r2, [r4, #36]	; 0x24
 8001dc6:	6a49      	ldr	r1, [r1, #36]	; 0x24
 8001dc8:	7011      	strb	r1, [r2, #0]
      hi2c->pBuffPtr++;
 8001dca:	6a62      	ldr	r2, [r4, #36]	; 0x24
 8001dcc:	3201      	adds	r2, #1
 8001dce:	6262      	str	r2, [r4, #36]	; 0x24
      hi2c->XferSize--;
 8001dd0:	8d22      	ldrh	r2, [r4, #40]	; 0x28
 8001dd2:	3a01      	subs	r2, #1
 8001dd4:	8522      	strh	r2, [r4, #40]	; 0x28
      hi2c->XferCount--;
 8001dd6:	8d62      	ldrh	r2, [r4, #42]	; 0x2a
 8001dd8:	3a01      	subs	r2, #1
 8001dda:	b292      	uxth	r2, r2
 8001ddc:	8562      	strh	r2, [r4, #42]	; 0x2a
    if ((hi2c->XferCount == 0U) && \
 8001dde:	8d62      	ldrh	r2, [r4, #42]	; 0x2a
 8001de0:	b292      	uxth	r2, r2
 8001de2:	2a00      	cmp	r2, #0
 8001de4:	d1ba      	bne.n	8001d5c <I2C_Slave_ISR_IT+0x38>
 8001de6:	f513 3f80 	cmn.w	r3, #65536	; 0x10000
 8001dea:	d1d1      	bne.n	8001d90 <I2C_Slave_ISR_IT+0x6c>
 8001dec:	e7b6      	b.n	8001d5c <I2C_Slave_ISR_IT+0x38>
  else if ((I2C_CHECK_FLAG(ITFlags, I2C_FLAG_ADDR) != RESET) && (I2C_CHECK_IT_SOURCE(ITSources, I2C_IT_ADDRI) != RESET))
 8001dee:	0729      	lsls	r1, r5, #28
 8001df0:	d505      	bpl.n	8001dfe <I2C_Slave_ISR_IT+0xda>
 8001df2:	0732      	lsls	r2, r6, #28
 8001df4:	d503      	bpl.n	8001dfe <I2C_Slave_ISR_IT+0xda>
    I2C_ITAddrCplt(hi2c, ITFlags);
 8001df6:	4620      	mov	r0, r4
 8001df8:	f7ff fe36 	bl	8001a68 <I2C_ITAddrCplt.isra.8>
 8001dfc:	e7ae      	b.n	8001d5c <I2C_Slave_ISR_IT+0x38>
  else if ((I2C_CHECK_FLAG(ITFlags, I2C_FLAG_TXIS) != RESET) && (I2C_CHECK_IT_SOURCE(ITSources, I2C_IT_TXI) != RESET))
 8001dfe:	07a8      	lsls	r0, r5, #30
 8001e00:	d5ac      	bpl.n	8001d5c <I2C_Slave_ISR_IT+0x38>
 8001e02:	07b1      	lsls	r1, r6, #30
 8001e04:	d5aa      	bpl.n	8001d5c <I2C_Slave_ISR_IT+0x38>
    if (hi2c->XferCount > 0U)
 8001e06:	8d62      	ldrh	r2, [r4, #42]	; 0x2a
 8001e08:	b292      	uxth	r2, r2
 8001e0a:	b16a      	cbz	r2, 8001e28 <I2C_Slave_ISR_IT+0x104>
      hi2c->Instance->TXDR = *hi2c->pBuffPtr;
 8001e0c:	6a63      	ldr	r3, [r4, #36]	; 0x24
 8001e0e:	6822      	ldr	r2, [r4, #0]
 8001e10:	f813 1b01 	ldrb.w	r1, [r3], #1
 8001e14:	6291      	str	r1, [r2, #40]	; 0x28
      hi2c->pBuffPtr++;
 8001e16:	6263      	str	r3, [r4, #36]	; 0x24
      hi2c->XferCount--;
 8001e18:	8d63      	ldrh	r3, [r4, #42]	; 0x2a
 8001e1a:	3b01      	subs	r3, #1
 8001e1c:	b29b      	uxth	r3, r3
 8001e1e:	8563      	strh	r3, [r4, #42]	; 0x2a
      hi2c->XferSize--;
 8001e20:	8d23      	ldrh	r3, [r4, #40]	; 0x28
 8001e22:	3b01      	subs	r3, #1
 8001e24:	8523      	strh	r3, [r4, #40]	; 0x28
 8001e26:	e799      	b.n	8001d5c <I2C_Slave_ISR_IT+0x38>
      if ((tmpoptions == I2C_NEXT_FRAME) || (tmpoptions == I2C_FIRST_FRAME))
 8001e28:	f033 7380 	bics.w	r3, r3, #16777216	; 0x1000000
 8001e2c:	d0b0      	beq.n	8001d90 <I2C_Slave_ISR_IT+0x6c>
 8001e2e:	e795      	b.n	8001d5c <I2C_Slave_ISR_IT+0x38>
  __HAL_LOCK(hi2c);
 8001e30:	2002      	movs	r0, #2
}
 8001e32:	bd70      	pop	{r4, r5, r6, pc}

08001e34 <HAL_I2C_ER_IRQHandler>:
  uint32_t itflags   = READ_REG(hi2c->Instance->ISR);
 8001e34:	6803      	ldr	r3, [r0, #0]
 8001e36:	6999      	ldr	r1, [r3, #24]
  uint32_t itsources = READ_REG(hi2c->Instance->CR1);
 8001e38:	681a      	ldr	r2, [r3, #0]
{
 8001e3a:	b410      	push	{r4}
  if ((I2C_CHECK_FLAG(itflags, I2C_FLAG_BERR) != RESET) && (I2C_CHECK_IT_SOURCE(itsources, I2C_IT_ERRI) != RESET))
 8001e3c:	05cc      	lsls	r4, r1, #23
 8001e3e:	d508      	bpl.n	8001e52 <HAL_I2C_ER_IRQHandler+0x1e>
 8001e40:	0614      	lsls	r4, r2, #24
 8001e42:	d506      	bpl.n	8001e52 <HAL_I2C_ER_IRQHandler+0x1e>
    hi2c->ErrorCode |= HAL_I2C_ERROR_BERR;
 8001e44:	6c44      	ldr	r4, [r0, #68]	; 0x44
 8001e46:	f044 0401 	orr.w	r4, r4, #1
 8001e4a:	6444      	str	r4, [r0, #68]	; 0x44
    __HAL_I2C_CLEAR_FLAG(hi2c, I2C_FLAG_BERR);
 8001e4c:	f44f 7480 	mov.w	r4, #256	; 0x100
 8001e50:	61dc      	str	r4, [r3, #28]
  if ((I2C_CHECK_FLAG(itflags, I2C_FLAG_OVR) != RESET) && (I2C_CHECK_IT_SOURCE(itsources, I2C_IT_ERRI) != RESET))
 8001e52:	054c      	lsls	r4, r1, #21
 8001e54:	d508      	bpl.n	8001e68 <HAL_I2C_ER_IRQHandler+0x34>
 8001e56:	0614      	lsls	r4, r2, #24
 8001e58:	d506      	bpl.n	8001e68 <HAL_I2C_ER_IRQHandler+0x34>
    hi2c->ErrorCode |= HAL_I2C_ERROR_OVR;
 8001e5a:	6c44      	ldr	r4, [r0, #68]	; 0x44
 8001e5c:	f044 0408 	orr.w	r4, r4, #8
 8001e60:	6444      	str	r4, [r0, #68]	; 0x44
    __HAL_I2C_CLEAR_FLAG(hi2c, I2C_FLAG_OVR);
 8001e62:	f44f 6480 	mov.w	r4, #1024	; 0x400
 8001e66:	61dc      	str	r4, [r3, #28]
  if ((I2C_CHECK_FLAG(itflags, I2C_FLAG_ARLO) != RESET) && (I2C_CHECK_IT_SOURCE(itsources, I2C_IT_ERRI) != RESET))
 8001e68:	0589      	lsls	r1, r1, #22
 8001e6a:	d508      	bpl.n	8001e7e <HAL_I2C_ER_IRQHandler+0x4a>
 8001e6c:	0612      	lsls	r2, r2, #24
 8001e6e:	d506      	bpl.n	8001e7e <HAL_I2C_ER_IRQHandler+0x4a>
    hi2c->ErrorCode |= HAL_I2C_ERROR_ARLO;
 8001e70:	6c42      	ldr	r2, [r0, #68]	; 0x44
 8001e72:	f042 0202 	orr.w	r2, r2, #2
 8001e76:	6442      	str	r2, [r0, #68]	; 0x44
    __HAL_I2C_CLEAR_FLAG(hi2c, I2C_FLAG_ARLO);
 8001e78:	f44f 7200 	mov.w	r2, #512	; 0x200
 8001e7c:	61da      	str	r2, [r3, #28]
  tmperror = hi2c->ErrorCode;
 8001e7e:	6c41      	ldr	r1, [r0, #68]	; 0x44
  if ((tmperror & (HAL_I2C_ERROR_BERR | HAL_I2C_ERROR_OVR | HAL_I2C_ERROR_ARLO)) !=  HAL_I2C_ERROR_NONE)
 8001e80:	f011 0f0b 	tst.w	r1, #11
 8001e84:	d003      	beq.n	8001e8e <HAL_I2C_ER_IRQHandler+0x5a>
}
 8001e86:	f85d 4b04 	ldr.w	r4, [sp], #4
    I2C_ITError(hi2c, tmperror);
 8001e8a:	f7ff be67 	b.w	8001b5c <I2C_ITError>
}
 8001e8e:	f85d 4b04 	ldr.w	r4, [sp], #4
 8001e92:	4770      	bx	lr

08001e94 <I2C_DMAAbort>:
  I2C_HandleTypeDef *hi2c = (I2C_HandleTypeDef *)(((DMA_HandleTypeDef *)hdma)->Parent); /* Derogation MISRAC2012-Rule-11.5 */
 8001e94:	6a80      	ldr	r0, [r0, #40]	; 0x28
  hi2c->hdmatx->XferAbortCallback = NULL;
 8001e96:	6b82      	ldr	r2, [r0, #56]	; 0x38
{
 8001e98:	b508      	push	{r3, lr}
  hi2c->hdmatx->XferAbortCallback = NULL;
 8001e9a:	2300      	movs	r3, #0
 8001e9c:	6393      	str	r3, [r2, #56]	; 0x38
  hi2c->hdmarx->XferAbortCallback = NULL;
 8001e9e:	6bc2      	ldr	r2, [r0, #60]	; 0x3c
 8001ea0:	6393      	str	r3, [r2, #56]	; 0x38
  if (hi2c->State == HAL_I2C_STATE_ABORT)
 8001ea2:	f890 3041 	ldrb.w	r3, [r0, #65]	; 0x41
 8001ea6:	2b60      	cmp	r3, #96	; 0x60
 8001ea8:	d105      	bne.n	8001eb6 <I2C_DMAAbort+0x22>
    hi2c->State = HAL_I2C_STATE_READY;
 8001eaa:	2320      	movs	r3, #32
 8001eac:	f880 3041 	strb.w	r3, [r0, #65]	; 0x41
    HAL_I2C_AbortCpltCallback(hi2c);
 8001eb0:	f7ff fe53 	bl	8001b5a <HAL_I2C_AbortCpltCallback>
 8001eb4:	bd08      	pop	{r3, pc}
    HAL_I2C_ErrorCallback(hi2c);
 8001eb6:	f7ff fe4f 	bl	8001b58 <HAL_I2C_ErrorCallback>
 8001eba:	bd08      	pop	{r3, pc}

08001ebc <HAL_I2CEx_ConfigAnalogFilter>:
{
  /* Check the parameters */
  assert_param(IS_I2C_ALL_INSTANCE(hi2c->Instance));
  assert_param(IS_I2C_ANALOG_FILTER(AnalogFilter));

  if (hi2c->State == HAL_I2C_STATE_READY)
 8001ebc:	f890 2041 	ldrb.w	r2, [r0, #65]	; 0x41
 8001ec0:	b2d2      	uxtb	r2, r2
 8001ec2:	2a20      	cmp	r2, #32
{
 8001ec4:	b510      	push	{r4, lr}
  if (hi2c->State == HAL_I2C_STATE_READY)
 8001ec6:	d11d      	bne.n	8001f04 <HAL_I2CEx_ConfigAnalogFilter+0x48>
  {
    /* Process Locked */
    __HAL_LOCK(hi2c);
 8001ec8:	f890 3040 	ldrb.w	r3, [r0, #64]	; 0x40
 8001ecc:	2b01      	cmp	r3, #1
 8001ece:	d019      	beq.n	8001f04 <HAL_I2CEx_ConfigAnalogFilter+0x48>

    hi2c->State = HAL_I2C_STATE_BUSY;
 8001ed0:	2324      	movs	r3, #36	; 0x24
 8001ed2:	f880 3041 	strb.w	r3, [r0, #65]	; 0x41

    /* Disable the selected I2C peripheral */
    __HAL_I2C_DISABLE(hi2c);
 8001ed6:	6803      	ldr	r3, [r0, #0]
 8001ed8:	681c      	ldr	r4, [r3, #0]
 8001eda:	f024 0401 	bic.w	r4, r4, #1
 8001ede:	601c      	str	r4, [r3, #0]

    /* Reset I2Cx ANOFF bit */
    hi2c->Instance->CR1 &= ~(I2C_CR1_ANFOFF);
 8001ee0:	681c      	ldr	r4, [r3, #0]
 8001ee2:	f424 5480 	bic.w	r4, r4, #4096	; 0x1000
 8001ee6:	601c      	str	r4, [r3, #0]

    /* Set analog filter bit*/
    hi2c->Instance->CR1 |= AnalogFilter;
 8001ee8:	681c      	ldr	r4, [r3, #0]
 8001eea:	4321      	orrs	r1, r4
 8001eec:	6019      	str	r1, [r3, #0]

    __HAL_I2C_ENABLE(hi2c);
 8001eee:	6819      	ldr	r1, [r3, #0]
 8001ef0:	f041 0101 	orr.w	r1, r1, #1
 8001ef4:	6019      	str	r1, [r3, #0]

    hi2c->State = HAL_I2C_STATE_READY;

    /* Process Unlocked */
    __HAL_UNLOCK(hi2c);
 8001ef6:	2300      	movs	r3, #0
    hi2c->State = HAL_I2C_STATE_READY;
 8001ef8:	f880 2041 	strb.w	r2, [r0, #65]	; 0x41
    __HAL_UNLOCK(hi2c);
 8001efc:	f880 3040 	strb.w	r3, [r0, #64]	; 0x40

    return HAL_OK;
 8001f00:	4618      	mov	r0, r3
 8001f02:	bd10      	pop	{r4, pc}
  }
  else
  {
    return HAL_BUSY;
 8001f04:	2002      	movs	r0, #2
  }
}
 8001f06:	bd10      	pop	{r4, pc}

08001f08 <HAL_I2CEx_ConfigDigitalFilter>:
  *                the configuration information for the specified I2Cx peripheral.
  * @param  DigitalFilter Coefficient of digital noise filter between Min_Data=0x00 and Max_Data=0x0F.
  * @retval HAL status
  */
HAL_StatusTypeDef HAL_I2CEx_ConfigDigitalFilter(I2C_HandleTypeDef *hi2c, uint32_t DigitalFilter)
{
 8001f08:	b510      	push	{r4, lr}

  /* Check the parameters */
  assert_param(IS_I2C_ALL_INSTANCE(hi2c->Instance));
  assert_param(IS_I2C_DIGITAL_FILTER(DigitalFilter));

  if (hi2c->State == HAL_I2C_STATE_READY)
 8001f0a:	f890 4041 	ldrb.w	r4, [r0, #65]	; 0x41
 8001f0e:	b2e4      	uxtb	r4, r4
 8001f10:	2c20      	cmp	r4, #32
 8001f12:	d11c      	bne.n	8001f4e <HAL_I2CEx_ConfigDigitalFilter+0x46>
  {
    /* Process Locked */
    __HAL_LOCK(hi2c);
 8001f14:	f890 3040 	ldrb.w	r3, [r0, #64]	; 0x40
 8001f18:	2b01      	cmp	r3, #1
 8001f1a:	d018      	beq.n	8001f4e <HAL_I2CEx_ConfigDigitalFilter+0x46>

    hi2c->State = HAL_I2C_STATE_BUSY;
 8001f1c:	2324      	movs	r3, #36	; 0x24
 8001f1e:	f880 3041 	strb.w	r3, [r0, #65]	; 0x41

    /* Disable the selected I2C peripheral */
    __HAL_I2C_DISABLE(hi2c);
 8001f22:	6803      	ldr	r3, [r0, #0]
 8001f24:	681a      	ldr	r2, [r3, #0]
 8001f26:	f022 0201 	bic.w	r2, r2, #1
 8001f2a:	601a      	str	r2, [r3, #0]

    /* Get the old register value */
    tmpreg = hi2c->Instance->CR1;
 8001f2c:	681a      	ldr	r2, [r3, #0]

    /* Reset I2Cx DNF bits [11:8] */
    tmpreg &= ~(I2C_CR1_DNF);
 8001f2e:	f422 6270 	bic.w	r2, r2, #3840	; 0xf00

    /* Set I2Cx DNF coefficient */
    tmpreg |= DigitalFilter << 8U;
 8001f32:	ea42 2101 	orr.w	r1, r2, r1, lsl #8

    /* Store the new register value */
    hi2c->Instance->CR1 = tmpreg;
 8001f36:	6019      	str	r1, [r3, #0]

    __HAL_I2C_ENABLE(hi2c);
 8001f38:	681a      	ldr	r2, [r3, #0]
 8001f3a:	f042 0201 	orr.w	r2, r2, #1
 8001f3e:	601a      	str	r2, [r3, #0]

    hi2c->State = HAL_I2C_STATE_READY;

    /* Process Unlocked */
    __HAL_UNLOCK(hi2c);
 8001f40:	2300      	movs	r3, #0
    hi2c->State = HAL_I2C_STATE_READY;
 8001f42:	f880 4041 	strb.w	r4, [r0, #65]	; 0x41
    __HAL_UNLOCK(hi2c);
 8001f46:	f880 3040 	strb.w	r3, [r0, #64]	; 0x40

    return HAL_OK;
 8001f4a:	4618      	mov	r0, r3
 8001f4c:	bd10      	pop	{r4, pc}
  }
  else
  {
    return HAL_BUSY;
 8001f4e:	2002      	movs	r0, #2
  }
}
 8001f50:	bd10      	pop	{r4, pc}
	...

08001f54 <HAL_PWREx_GetVoltageRange>:
    else
    {
      return PWR_REGULATOR_VOLTAGE_SCALE1_BOOST;
    }
#else
  return  (PWR->CR1 & PWR_CR1_VOS);
 8001f54:	4b02      	ldr	r3, [pc, #8]	; (8001f60 <HAL_PWREx_GetVoltageRange+0xc>)
 8001f56:	6818      	ldr	r0, [r3, #0]
#endif
}
 8001f58:	f400 60c0 	and.w	r0, r0, #1536	; 0x600
 8001f5c:	4770      	bx	lr
 8001f5e:	bf00      	nop
 8001f60:	40007000 	.word	0x40007000

08001f64 <HAL_PWREx_ControlVoltageScaling>:
  *        cleared before returning the status. If the flag is not cleared within
  *        50 microseconds, HAL_TIMEOUT status is reported.
  * @retval HAL Status
  */
HAL_StatusTypeDef HAL_PWREx_ControlVoltageScaling(uint32_t VoltageScaling)
{
 8001f64:	4b17      	ldr	r3, [pc, #92]	; (8001fc4 <HAL_PWREx_ControlVoltageScaling+0x60>)
#else

  /* If Set Range 1 */
  if (VoltageScaling == PWR_REGULATOR_VOLTAGE_SCALE1)
  {
    if (READ_BIT(PWR->CR1, PWR_CR1_VOS) != PWR_REGULATOR_VOLTAGE_SCALE1)
 8001f66:	681a      	ldr	r2, [r3, #0]
  if (VoltageScaling == PWR_REGULATOR_VOLTAGE_SCALE1)
 8001f68:	f5b0 7f00 	cmp.w	r0, #512	; 0x200
    if (READ_BIT(PWR->CR1, PWR_CR1_VOS) != PWR_REGULATOR_VOLTAGE_SCALE1)
 8001f6c:	f402 62c0 	and.w	r2, r2, #1536	; 0x600
  if (VoltageScaling == PWR_REGULATOR_VOLTAGE_SCALE1)
 8001f70:	d11c      	bne.n	8001fac <HAL_PWREx_ControlVoltageScaling+0x48>
    if (READ_BIT(PWR->CR1, PWR_CR1_VOS) != PWR_REGULATOR_VOLTAGE_SCALE1)
 8001f72:	f5b2 7f00 	cmp.w	r2, #512	; 0x200
 8001f76:	d015      	beq.n	8001fa4 <HAL_PWREx_ControlVoltageScaling+0x40>
    {
      /* Set Range 1 */
      MODIFY_REG(PWR->CR1, PWR_CR1_VOS, PWR_REGULATOR_VOLTAGE_SCALE1);
 8001f78:	681a      	ldr	r2, [r3, #0]
 8001f7a:	f422 62c0 	bic.w	r2, r2, #1536	; 0x600
 8001f7e:	f442 7200 	orr.w	r2, r2, #512	; 0x200
 8001f82:	601a      	str	r2, [r3, #0]

      /* Wait until VOSF is cleared */
      wait_loop_index = ((PWR_FLAG_SETTING_DELAY_US * SystemCoreClock) / 1000000U) + 1U;
 8001f84:	4a10      	ldr	r2, [pc, #64]	; (8001fc8 <HAL_PWREx_ControlVoltageScaling+0x64>)
 8001f86:	6811      	ldr	r1, [r2, #0]
 8001f88:	2232      	movs	r2, #50	; 0x32
 8001f8a:	434a      	muls	r2, r1
 8001f8c:	490f      	ldr	r1, [pc, #60]	; (8001fcc <HAL_PWREx_ControlVoltageScaling+0x68>)
 8001f8e:	fbb2 f2f1 	udiv	r2, r2, r1
 8001f92:	4619      	mov	r1, r3
 8001f94:	3201      	adds	r2, #1
      while ((HAL_IS_BIT_SET(PWR->SR2, PWR_SR2_VOSF)) && (wait_loop_index != 0U))
 8001f96:	6958      	ldr	r0, [r3, #20]
 8001f98:	0540      	lsls	r0, r0, #21
 8001f9a:	d500      	bpl.n	8001f9e <HAL_PWREx_ControlVoltageScaling+0x3a>
 8001f9c:	b922      	cbnz	r2, 8001fa8 <HAL_PWREx_ControlVoltageScaling+0x44>
      {
        wait_loop_index--;
      }
      if (HAL_IS_BIT_SET(PWR->SR2, PWR_SR2_VOSF))
 8001f9e:	694b      	ldr	r3, [r1, #20]
 8001fa0:	055b      	lsls	r3, r3, #21
 8001fa2:	d40d      	bmi.n	8001fc0 <HAL_PWREx_ControlVoltageScaling+0x5c>
      /* No need to wait for VOSF to be cleared for this transition */
    }
  }
#endif

  return HAL_OK;
 8001fa4:	2000      	movs	r0, #0
 8001fa6:	4770      	bx	lr
        wait_loop_index--;
 8001fa8:	3a01      	subs	r2, #1
 8001faa:	e7f4      	b.n	8001f96 <HAL_PWREx_ControlVoltageScaling+0x32>
    if (READ_BIT(PWR->CR1, PWR_CR1_VOS) != PWR_REGULATOR_VOLTAGE_SCALE2)
 8001fac:	f5b2 6f80 	cmp.w	r2, #1024	; 0x400
      MODIFY_REG(PWR->CR1, PWR_CR1_VOS, PWR_REGULATOR_VOLTAGE_SCALE2);
 8001fb0:	bf1f      	itttt	ne
 8001fb2:	681a      	ldrne	r2, [r3, #0]
 8001fb4:	f422 62c0 	bicne.w	r2, r2, #1536	; 0x600
 8001fb8:	f442 6280 	orrne.w	r2, r2, #1024	; 0x400
 8001fbc:	601a      	strne	r2, [r3, #0]
 8001fbe:	e7f1      	b.n	8001fa4 <HAL_PWREx_ControlVoltageScaling+0x40>
        return HAL_TIMEOUT;
 8001fc0:	2003      	movs	r0, #3
}
 8001fc2:	4770      	bx	lr
 8001fc4:	40007000 	.word	0x40007000
 8001fc8:	20000020 	.word	0x20000020
 8001fcc:	000f4240 	.word	0x000f4240

08001fd0 <RCC_SetFlashLatencyFromMSIRange>:
            voltage range.
  * @param  msirange  MSI range value from RCC_MSIRANGE_0 to RCC_MSIRANGE_11
  * @retval HAL status
  */
static HAL_StatusTypeDef RCC_SetFlashLatencyFromMSIRange(uint32_t msirange)
{
 8001fd0:	b537      	push	{r0, r1, r2, r4, r5, lr}
  uint32_t vos;
  uint32_t latency = FLASH_LATENCY_0;  /* default value 0WS */

  if(__HAL_RCC_PWR_IS_CLK_ENABLED())
 8001fd2:	4d1e      	ldr	r5, [pc, #120]	; (800204c <RCC_SetFlashLatencyFromMSIRange+0x7c>)
 8001fd4:	6dab      	ldr	r3, [r5, #88]	; 0x58
 8001fd6:	00da      	lsls	r2, r3, #3
{
 8001fd8:	4604      	mov	r4, r0
  if(__HAL_RCC_PWR_IS_CLK_ENABLED())
 8001fda:	d518      	bpl.n	800200e <RCC_SetFlashLatencyFromMSIRange+0x3e>
  {
    vos = HAL_PWREx_GetVoltageRange();
 8001fdc:	f7ff ffba 	bl	8001f54 <HAL_PWREx_GetVoltageRange>
    __HAL_RCC_PWR_CLK_ENABLE();
    vos = HAL_PWREx_GetVoltageRange();
    __HAL_RCC_PWR_CLK_DISABLE();
  }

  if(vos == PWR_REGULATOR_VOLTAGE_SCALE1)
 8001fe0:	f5b0 7f00 	cmp.w	r0, #512	; 0x200
 8001fe4:	d123      	bne.n	800202e <RCC_SetFlashLatencyFromMSIRange+0x5e>
  {
    if(msirange > RCC_MSIRANGE_8)
 8001fe6:	2c80      	cmp	r4, #128	; 0x80
 8001fe8:	d929      	bls.n	800203e <RCC_SetFlashLatencyFromMSIRange+0x6e>
    {
      /* MSI > 16Mhz */
      if(msirange > RCC_MSIRANGE_10)
 8001fea:	2ca0      	cmp	r4, #160	; 0xa0
        latency = FLASH_LATENCY_2; /* 2WS */
      }
      else
      {
        /* MSI 24Mhz or 32Mhz */
        latency = FLASH_LATENCY_1; /* 1WS */
 8001fec:	bf8c      	ite	hi
 8001fee:	2002      	movhi	r0, #2
 8001ff0:	2001      	movls	r0, #1
      /* else MSI < 8Mhz default FLASH_LATENCY_0 0WS */
    }
#endif
  }

  __HAL_FLASH_SET_LATENCY(latency);
 8001ff2:	4a17      	ldr	r2, [pc, #92]	; (8002050 <RCC_SetFlashLatencyFromMSIRange+0x80>)
 8001ff4:	6813      	ldr	r3, [r2, #0]
 8001ff6:	f023 0307 	bic.w	r3, r3, #7
 8001ffa:	4303      	orrs	r3, r0
 8001ffc:	6013      	str	r3, [r2, #0]

  /* Check that the new number of wait states is taken into account to access the Flash
     memory by reading the FLASH_ACR register */
  if(__HAL_FLASH_GET_LATENCY() != latency)
 8001ffe:	6813      	ldr	r3, [r2, #0]
 8002000:	f003 0307 	and.w	r3, r3, #7
  {
    return HAL_ERROR;
  }

  return HAL_OK;
}
 8002004:	1a18      	subs	r0, r3, r0
 8002006:	bf18      	it	ne
 8002008:	2001      	movne	r0, #1
 800200a:	b003      	add	sp, #12
 800200c:	bd30      	pop	{r4, r5, pc}
    __HAL_RCC_PWR_CLK_ENABLE();
 800200e:	6dab      	ldr	r3, [r5, #88]	; 0x58
 8002010:	f043 5380 	orr.w	r3, r3, #268435456	; 0x10000000
 8002014:	65ab      	str	r3, [r5, #88]	; 0x58
 8002016:	6dab      	ldr	r3, [r5, #88]	; 0x58
 8002018:	f003 5380 	and.w	r3, r3, #268435456	; 0x10000000
 800201c:	9301      	str	r3, [sp, #4]
 800201e:	9b01      	ldr	r3, [sp, #4]
    vos = HAL_PWREx_GetVoltageRange();
 8002020:	f7ff ff98 	bl	8001f54 <HAL_PWREx_GetVoltageRange>
    __HAL_RCC_PWR_CLK_DISABLE();
 8002024:	6dab      	ldr	r3, [r5, #88]	; 0x58
 8002026:	f023 5380 	bic.w	r3, r3, #268435456	; 0x10000000
 800202a:	65ab      	str	r3, [r5, #88]	; 0x58
 800202c:	e7d8      	b.n	8001fe0 <RCC_SetFlashLatencyFromMSIRange+0x10>
    if(msirange > RCC_MSIRANGE_8)
 800202e:	2c80      	cmp	r4, #128	; 0x80
 8002030:	d807      	bhi.n	8002042 <RCC_SetFlashLatencyFromMSIRange+0x72>
      if(msirange == RCC_MSIRANGE_8)
 8002032:	d008      	beq.n	8002046 <RCC_SetFlashLatencyFromMSIRange+0x76>
      else if(msirange == RCC_MSIRANGE_7)
 8002034:	f1a4 0370 	sub.w	r3, r4, #112	; 0x70
 8002038:	4258      	negs	r0, r3
 800203a:	4158      	adcs	r0, r3
 800203c:	e7d9      	b.n	8001ff2 <RCC_SetFlashLatencyFromMSIRange+0x22>
  uint32_t latency = FLASH_LATENCY_0;  /* default value 0WS */
 800203e:	2000      	movs	r0, #0
 8002040:	e7d7      	b.n	8001ff2 <RCC_SetFlashLatencyFromMSIRange+0x22>
      latency = FLASH_LATENCY_3; /* 3WS */
 8002042:	2003      	movs	r0, #3
 8002044:	e7d5      	b.n	8001ff2 <RCC_SetFlashLatencyFromMSIRange+0x22>
        latency = FLASH_LATENCY_2; /* 2WS */
 8002046:	2002      	movs	r0, #2
 8002048:	e7d3      	b.n	8001ff2 <RCC_SetFlashLatencyFromMSIRange+0x22>
 800204a:	bf00      	nop
 800204c:	40021000 	.word	0x40021000
 8002050:	40022000 	.word	0x40022000

08002054 <HAL_RCC_GetSysClockFreq>:
  sysclk_source = __HAL_RCC_GET_SYSCLK_SOURCE();
 8002054:	4b25      	ldr	r3, [pc, #148]	; (80020ec <HAL_RCC_GetSysClockFreq+0x98>)
 8002056:	689a      	ldr	r2, [r3, #8]
  pll_oscsource = __HAL_RCC_GET_PLL_OSCSOURCE();
 8002058:	68d9      	ldr	r1, [r3, #12]
  if((sysclk_source == RCC_CFGR_SWS_MSI) ||
 800205a:	f012 020c 	ands.w	r2, r2, #12
 800205e:	d005      	beq.n	800206c <HAL_RCC_GetSysClockFreq+0x18>
 8002060:	2a0c      	cmp	r2, #12
 8002062:	d115      	bne.n	8002090 <HAL_RCC_GetSysClockFreq+0x3c>
  pll_oscsource = __HAL_RCC_GET_PLL_OSCSOURCE();
 8002064:	f001 0103 	and.w	r1, r1, #3
     ((sysclk_source == RCC_CFGR_SWS_PLL) && (pll_oscsource == RCC_PLLSOURCE_MSI)))
 8002068:	2901      	cmp	r1, #1
 800206a:	d118      	bne.n	800209e <HAL_RCC_GetSysClockFreq+0x4a>
    if(READ_BIT(RCC->CR, RCC_CR_MSIRGSEL) == 0U)
 800206c:	6819      	ldr	r1, [r3, #0]
    msirange = MSIRangeTable[msirange];
 800206e:	4820      	ldr	r0, [pc, #128]	; (80020f0 <HAL_RCC_GetSysClockFreq+0x9c>)
    if(READ_BIT(RCC->CR, RCC_CR_MSIRGSEL) == 0U)
 8002070:	0709      	lsls	r1, r1, #28
      msirange = READ_BIT(RCC->CSR, RCC_CSR_MSISRANGE) >> RCC_CSR_MSISRANGE_Pos;
 8002072:	bf55      	itete	pl
 8002074:	f8d3 1094 	ldrpl.w	r1, [r3, #148]	; 0x94
      msirange = READ_BIT(RCC->CR, RCC_CR_MSIRANGE) >> RCC_CR_MSIRANGE_Pos;
 8002078:	6819      	ldrmi	r1, [r3, #0]
      msirange = READ_BIT(RCC->CSR, RCC_CSR_MSISRANGE) >> RCC_CSR_MSISRANGE_Pos;
 800207a:	f3c1 2103 	ubfxpl	r1, r1, #8, #4
      msirange = READ_BIT(RCC->CR, RCC_CR_MSIRANGE) >> RCC_CR_MSIRANGE_Pos;
 800207e:	f3c1 1103 	ubfxmi	r1, r1, #4, #4
    msirange = MSIRangeTable[msirange];
 8002082:	f850 0021 	ldr.w	r0, [r0, r1, lsl #2]
    if(sysclk_source == RCC_CFGR_SWS_MSI)
 8002086:	b382      	cbz	r2, 80020ea <HAL_RCC_GetSysClockFreq+0x96>
  if(sysclk_source == RCC_CFGR_SWS_PLL)
 8002088:	2a0c      	cmp	r2, #12
 800208a:	d009      	beq.n	80020a0 <HAL_RCC_GetSysClockFreq+0x4c>
 800208c:	2000      	movs	r0, #0
  return sysclockfreq;
 800208e:	4770      	bx	lr
  else if(sysclk_source == RCC_CFGR_SWS_HSI)
 8002090:	2a04      	cmp	r2, #4
 8002092:	d029      	beq.n	80020e8 <HAL_RCC_GetSysClockFreq+0x94>
 8002094:	2a08      	cmp	r2, #8
 8002096:	4817      	ldr	r0, [pc, #92]	; (80020f4 <HAL_RCC_GetSysClockFreq+0xa0>)
 8002098:	bf18      	it	ne
 800209a:	2000      	movne	r0, #0
 800209c:	4770      	bx	lr
  uint32_t msirange = 0U, sysclockfreq = 0U;
 800209e:	2000      	movs	r0, #0
    pllsource = READ_BIT(RCC->PLLCFGR, RCC_PLLCFGR_PLLSRC);
 80020a0:	68d9      	ldr	r1, [r3, #12]
    pllm = (READ_BIT(RCC->PLLCFGR, RCC_PLLCFGR_PLLM) >> RCC_PLLCFGR_PLLM_Pos) + 1U ;
 80020a2:	68da      	ldr	r2, [r3, #12]
    pllsource = READ_BIT(RCC->PLLCFGR, RCC_PLLCFGR_PLLSRC);
 80020a4:	f001 0103 	and.w	r1, r1, #3
    pllm = (READ_BIT(RCC->PLLCFGR, RCC_PLLCFGR_PLLM) >> RCC_PLLCFGR_PLLM_Pos) + 1U ;
 80020a8:	f3c2 1202 	ubfx	r2, r2, #4, #3
    switch (pllsource)
 80020ac:	2902      	cmp	r1, #2
    pllm = (READ_BIT(RCC->PLLCFGR, RCC_PLLCFGR_PLLM) >> RCC_PLLCFGR_PLLM_Pos) + 1U ;
 80020ae:	f102 0201 	add.w	r2, r2, #1
    switch (pllsource)
 80020b2:	d005      	beq.n	80020c0 <HAL_RCC_GetSysClockFreq+0x6c>
 80020b4:	2903      	cmp	r1, #3
 80020b6:	d012      	beq.n	80020de <HAL_RCC_GetSysClockFreq+0x8a>
      pllvco = (msirange / pllm) * (READ_BIT(RCC->PLLCFGR, RCC_PLLCFGR_PLLN) >> RCC_PLLCFGR_PLLN_Pos);
 80020b8:	68d9      	ldr	r1, [r3, #12]
 80020ba:	f3c1 2106 	ubfx	r1, r1, #8, #7
 80020be:	e003      	b.n	80020c8 <HAL_RCC_GetSysClockFreq+0x74>
      pllvco = (HSI_VALUE / pllm) * (READ_BIT(RCC->PLLCFGR, RCC_PLLCFGR_PLLN) >> RCC_PLLCFGR_PLLN_Pos);
 80020c0:	68d9      	ldr	r1, [r3, #12]
 80020c2:	480d      	ldr	r0, [pc, #52]	; (80020f8 <HAL_RCC_GetSysClockFreq+0xa4>)
 80020c4:	f3c1 2106 	ubfx	r1, r1, #8, #7
    pllr = ((READ_BIT(RCC->PLLCFGR, RCC_PLLCFGR_PLLR) >> RCC_PLLCFGR_PLLR_Pos) + 1U ) * 2U;
 80020c8:	68db      	ldr	r3, [r3, #12]
      pllvco = (msirange / pllm) * (READ_BIT(RCC->PLLCFGR, RCC_PLLCFGR_PLLN) >> RCC_PLLCFGR_PLLN_Pos);
 80020ca:	fbb0 f0f2 	udiv	r0, r0, r2
    pllr = ((READ_BIT(RCC->PLLCFGR, RCC_PLLCFGR_PLLR) >> RCC_PLLCFGR_PLLR_Pos) + 1U ) * 2U;
 80020ce:	f3c3 6341 	ubfx	r3, r3, #25, #2
 80020d2:	3301      	adds	r3, #1
      pllvco = (msirange / pllm) * (READ_BIT(RCC->PLLCFGR, RCC_PLLCFGR_PLLN) >> RCC_PLLCFGR_PLLN_Pos);
 80020d4:	4348      	muls	r0, r1
    pllr = ((READ_BIT(RCC->PLLCFGR, RCC_PLLCFGR_PLLR) >> RCC_PLLCFGR_PLLR_Pos) + 1U ) * 2U;
 80020d6:	005b      	lsls	r3, r3, #1
    sysclockfreq = pllvco/pllr;
 80020d8:	fbb0 f0f3 	udiv	r0, r0, r3
 80020dc:	4770      	bx	lr
      pllvco = (HSE_VALUE / pllm) * (READ_BIT(RCC->PLLCFGR, RCC_PLLCFGR_PLLN) >> RCC_PLLCFGR_PLLN_Pos);
 80020de:	68d9      	ldr	r1, [r3, #12]
 80020e0:	4804      	ldr	r0, [pc, #16]	; (80020f4 <HAL_RCC_GetSysClockFreq+0xa0>)
 80020e2:	f3c1 2106 	ubfx	r1, r1, #8, #7
 80020e6:	e7ef      	b.n	80020c8 <HAL_RCC_GetSysClockFreq+0x74>
    sysclockfreq = HSI_VALUE;
 80020e8:	4803      	ldr	r0, [pc, #12]	; (80020f8 <HAL_RCC_GetSysClockFreq+0xa4>)
}
 80020ea:	4770      	bx	lr
 80020ec:	40021000 	.word	0x40021000
 80020f0:	080052e8 	.word	0x080052e8
 80020f4:	007a1200 	.word	0x007a1200
 80020f8:	00f42400 	.word	0x00f42400

080020fc <HAL_RCC_OscConfig>:
{
 80020fc:	e92d 43f7 	stmdb	sp!, {r0, r1, r2, r4, r5, r6, r7, r8, r9, lr}
  if(RCC_OscInitStruct == NULL)
 8002100:	4605      	mov	r5, r0
 8002102:	b918      	cbnz	r0, 800210c <HAL_RCC_OscConfig+0x10>
    return HAL_ERROR;
 8002104:	2001      	movs	r0, #1
}
 8002106:	b003      	add	sp, #12
 8002108:	e8bd 83f0 	ldmia.w	sp!, {r4, r5, r6, r7, r8, r9, pc}
  sysclk_source = __HAL_RCC_GET_SYSCLK_SOURCE();
 800210c:	4ca5      	ldr	r4, [pc, #660]	; (80023a4 <HAL_RCC_OscConfig+0x2a8>)
  if(((RCC_OscInitStruct->OscillatorType) & RCC_OSCILLATORTYPE_MSI) == RCC_OSCILLATORTYPE_MSI)
 800210e:	6803      	ldr	r3, [r0, #0]
  sysclk_source = __HAL_RCC_GET_SYSCLK_SOURCE();
 8002110:	68a6      	ldr	r6, [r4, #8]
  pll_oscsource = __HAL_RCC_GET_PLL_OSCSOURCE();
 8002112:	68e7      	ldr	r7, [r4, #12]
  if(((RCC_OscInitStruct->OscillatorType) & RCC_OSCILLATORTYPE_MSI) == RCC_OSCILLATORTYPE_MSI)
 8002114:	06db      	lsls	r3, r3, #27
  sysclk_source = __HAL_RCC_GET_SYSCLK_SOURCE();
 8002116:	f006 060c 	and.w	r6, r6, #12
  pll_oscsource = __HAL_RCC_GET_PLL_OSCSOURCE();
 800211a:	f007 0703 	and.w	r7, r7, #3
  if(((RCC_OscInitStruct->OscillatorType) & RCC_OSCILLATORTYPE_MSI) == RCC_OSCILLATORTYPE_MSI)
 800211e:	d53c      	bpl.n	800219a <HAL_RCC_OscConfig+0x9e>
    if((sysclk_source == RCC_CFGR_SWS_MSI) ||
 8002120:	b11e      	cbz	r6, 800212a <HAL_RCC_OscConfig+0x2e>
 8002122:	2e0c      	cmp	r6, #12
 8002124:	d163      	bne.n	80021ee <HAL_RCC_OscConfig+0xf2>
       ((sysclk_source == RCC_CFGR_SWS_PLL) && (pll_oscsource == RCC_PLLSOURCE_MSI)))
 8002126:	2f01      	cmp	r7, #1
 8002128:	d161      	bne.n	80021ee <HAL_RCC_OscConfig+0xf2>
      if((READ_BIT(RCC->CR, RCC_CR_MSIRDY) != 0U) && (RCC_OscInitStruct->MSIState == RCC_MSI_OFF))
 800212a:	6823      	ldr	r3, [r4, #0]
 800212c:	0798      	lsls	r0, r3, #30
 800212e:	d502      	bpl.n	8002136 <HAL_RCC_OscConfig+0x3a>
 8002130:	69ab      	ldr	r3, [r5, #24]
 8002132:	2b00      	cmp	r3, #0
 8002134:	d0e6      	beq.n	8002104 <HAL_RCC_OscConfig+0x8>
        if(RCC_OscInitStruct->MSIClockRange > __HAL_RCC_GET_MSI_RANGE())
 8002136:	6823      	ldr	r3, [r4, #0]
 8002138:	6a28      	ldr	r0, [r5, #32]
 800213a:	0719      	lsls	r1, r3, #28
 800213c:	bf56      	itet	pl
 800213e:	f8d4 3094 	ldrpl.w	r3, [r4, #148]	; 0x94
 8002142:	6823      	ldrmi	r3, [r4, #0]
 8002144:	091b      	lsrpl	r3, r3, #4
 8002146:	f003 03f0 	and.w	r3, r3, #240	; 0xf0
 800214a:	4283      	cmp	r3, r0
 800214c:	d23a      	bcs.n	80021c4 <HAL_RCC_OscConfig+0xc8>
          if(RCC_SetFlashLatencyFromMSIRange(RCC_OscInitStruct->MSIClockRange) != HAL_OK)
 800214e:	f7ff ff3f 	bl	8001fd0 <RCC_SetFlashLatencyFromMSIRange>
 8002152:	2800      	cmp	r0, #0
 8002154:	d1d6      	bne.n	8002104 <HAL_RCC_OscConfig+0x8>
          __HAL_RCC_MSI_RANGE_CONFIG(RCC_OscInitStruct->MSIClockRange);
 8002156:	6823      	ldr	r3, [r4, #0]
 8002158:	f043 0308 	orr.w	r3, r3, #8
 800215c:	6023      	str	r3, [r4, #0]
 800215e:	6823      	ldr	r3, [r4, #0]
 8002160:	6a2a      	ldr	r2, [r5, #32]
 8002162:	f023 03f0 	bic.w	r3, r3, #240	; 0xf0
 8002166:	4313      	orrs	r3, r2
 8002168:	6023      	str	r3, [r4, #0]
          __HAL_RCC_MSI_CALIBRATIONVALUE_ADJUST(RCC_OscInitStruct->MSICalibrationValue);
 800216a:	6863      	ldr	r3, [r4, #4]
 800216c:	69ea      	ldr	r2, [r5, #28]
 800216e:	f423 437f 	bic.w	r3, r3, #65280	; 0xff00
 8002172:	ea43 2302 	orr.w	r3, r3, r2, lsl #8
 8002176:	6063      	str	r3, [r4, #4]
        SystemCoreClock = HAL_RCC_GetSysClockFreq() >> (AHBPrescTable[READ_BIT(RCC->CFGR, RCC_CFGR_HPRE) >> RCC_CFGR_HPRE_Pos] & 0x1FU);
 8002178:	f7ff ff6c 	bl	8002054 <HAL_RCC_GetSysClockFreq>
 800217c:	68a3      	ldr	r3, [r4, #8]
 800217e:	4a8a      	ldr	r2, [pc, #552]	; (80023a8 <HAL_RCC_OscConfig+0x2ac>)
 8002180:	f3c3 1303 	ubfx	r3, r3, #4, #4
 8002184:	5cd3      	ldrb	r3, [r2, r3]
 8002186:	f003 031f 	and.w	r3, r3, #31
 800218a:	40d8      	lsrs	r0, r3
 800218c:	4b87      	ldr	r3, [pc, #540]	; (80023ac <HAL_RCC_OscConfig+0x2b0>)
 800218e:	6018      	str	r0, [r3, #0]
        status = HAL_InitTick (TICK_INT_PRIORITY);
 8002190:	2000      	movs	r0, #0
 8002192:	f7fe f9f5 	bl	8000580 <HAL_InitTick>
        if(status != HAL_OK)
 8002196:	2800      	cmp	r0, #0
 8002198:	d1b5      	bne.n	8002106 <HAL_RCC_OscConfig+0xa>
  if(((RCC_OscInitStruct->OscillatorType) & RCC_OSCILLATORTYPE_HSE) == RCC_OSCILLATORTYPE_HSE)
 800219a:	682b      	ldr	r3, [r5, #0]
 800219c:	07d8      	lsls	r0, r3, #31
 800219e:	d45d      	bmi.n	800225c <HAL_RCC_OscConfig+0x160>
  if(((RCC_OscInitStruct->OscillatorType) & RCC_OSCILLATORTYPE_HSI) == RCC_OSCILLATORTYPE_HSI)
 80021a0:	682b      	ldr	r3, [r5, #0]
 80021a2:	0799      	lsls	r1, r3, #30
 80021a4:	f100 809c 	bmi.w	80022e0 <HAL_RCC_OscConfig+0x1e4>
  if(((RCC_OscInitStruct->OscillatorType) & RCC_OSCILLATORTYPE_LSI) == RCC_OSCILLATORTYPE_LSI)
 80021a8:	682b      	ldr	r3, [r5, #0]
 80021aa:	0718      	lsls	r0, r3, #28
 80021ac:	f100 80d0 	bmi.w	8002350 <HAL_RCC_OscConfig+0x254>
  if(((RCC_OscInitStruct->OscillatorType) & RCC_OSCILLATORTYPE_LSE) == RCC_OSCILLATORTYPE_LSE)
 80021b0:	682b      	ldr	r3, [r5, #0]
 80021b2:	0759      	lsls	r1, r3, #29
 80021b4:	f100 80fc 	bmi.w	80023b0 <HAL_RCC_OscConfig+0x2b4>
  if(RCC_OscInitStruct->PLL.PLLState != RCC_PLL_NONE)
 80021b8:	6aab      	ldr	r3, [r5, #40]	; 0x28
 80021ba:	2b00      	cmp	r3, #0
 80021bc:	f040 8165 	bne.w	800248a <HAL_RCC_OscConfig+0x38e>
  return HAL_OK;
 80021c0:	2000      	movs	r0, #0
 80021c2:	e7a0      	b.n	8002106 <HAL_RCC_OscConfig+0xa>
          __HAL_RCC_MSI_RANGE_CONFIG(RCC_OscInitStruct->MSIClockRange);
 80021c4:	6823      	ldr	r3, [r4, #0]
 80021c6:	f043 0308 	orr.w	r3, r3, #8
 80021ca:	6023      	str	r3, [r4, #0]
 80021cc:	6823      	ldr	r3, [r4, #0]
 80021ce:	f023 03f0 	bic.w	r3, r3, #240	; 0xf0
 80021d2:	4303      	orrs	r3, r0
 80021d4:	6023      	str	r3, [r4, #0]
          __HAL_RCC_MSI_CALIBRATIONVALUE_ADJUST(RCC_OscInitStruct->MSICalibrationValue);
 80021d6:	6863      	ldr	r3, [r4, #4]
 80021d8:	69ea      	ldr	r2, [r5, #28]
 80021da:	f423 437f 	bic.w	r3, r3, #65280	; 0xff00
 80021de:	ea43 2302 	orr.w	r3, r3, r2, lsl #8
 80021e2:	6063      	str	r3, [r4, #4]
          if(RCC_SetFlashLatencyFromMSIRange(RCC_OscInitStruct->MSIClockRange) != HAL_OK)
 80021e4:	f7ff fef4 	bl	8001fd0 <RCC_SetFlashLatencyFromMSIRange>
 80021e8:	2800      	cmp	r0, #0
 80021ea:	d0c5      	beq.n	8002178 <HAL_RCC_OscConfig+0x7c>
 80021ec:	e78a      	b.n	8002104 <HAL_RCC_OscConfig+0x8>
      if(RCC_OscInitStruct->MSIState != RCC_MSI_OFF)
 80021ee:	69ab      	ldr	r3, [r5, #24]
 80021f0:	b31b      	cbz	r3, 800223a <HAL_RCC_OscConfig+0x13e>
        __HAL_RCC_MSI_ENABLE();
 80021f2:	6823      	ldr	r3, [r4, #0]
 80021f4:	f043 0301 	orr.w	r3, r3, #1
 80021f8:	6023      	str	r3, [r4, #0]
        tickstart = HAL_GetTick();
 80021fa:	f7fe f9f7 	bl	80005ec <HAL_GetTick>
 80021fe:	4680      	mov	r8, r0
        while(READ_BIT(RCC->CR, RCC_CR_MSIRDY) == 0U)
 8002200:	6823      	ldr	r3, [r4, #0]
 8002202:	079a      	lsls	r2, r3, #30
 8002204:	d511      	bpl.n	800222a <HAL_RCC_OscConfig+0x12e>
        __HAL_RCC_MSI_RANGE_CONFIG(RCC_OscInitStruct->MSIClockRange);
 8002206:	6823      	ldr	r3, [r4, #0]
 8002208:	f043 0308 	orr.w	r3, r3, #8
 800220c:	6023      	str	r3, [r4, #0]
 800220e:	6823      	ldr	r3, [r4, #0]
 8002210:	6a2a      	ldr	r2, [r5, #32]
 8002212:	f023 03f0 	bic.w	r3, r3, #240	; 0xf0
 8002216:	4313      	orrs	r3, r2
 8002218:	6023      	str	r3, [r4, #0]
        __HAL_RCC_MSI_CALIBRATIONVALUE_ADJUST(RCC_OscInitStruct->MSICalibrationValue);
 800221a:	6863      	ldr	r3, [r4, #4]
 800221c:	69ea      	ldr	r2, [r5, #28]
 800221e:	f423 437f 	bic.w	r3, r3, #65280	; 0xff00
 8002222:	ea43 2302 	orr.w	r3, r3, r2, lsl #8
 8002226:	6063      	str	r3, [r4, #4]
 8002228:	e7b7      	b.n	800219a <HAL_RCC_OscConfig+0x9e>
          if((HAL_GetTick() - tickstart) > MSI_TIMEOUT_VALUE)
 800222a:	f7fe f9df 	bl	80005ec <HAL_GetTick>
 800222e:	eba0 0008 	sub.w	r0, r0, r8
 8002232:	2802      	cmp	r0, #2
 8002234:	d9e4      	bls.n	8002200 <HAL_RCC_OscConfig+0x104>
            return HAL_TIMEOUT;
 8002236:	2003      	movs	r0, #3
 8002238:	e765      	b.n	8002106 <HAL_RCC_OscConfig+0xa>
        __HAL_RCC_MSI_DISABLE();
 800223a:	6823      	ldr	r3, [r4, #0]
 800223c:	f023 0301 	bic.w	r3, r3, #1
 8002240:	6023      	str	r3, [r4, #0]
        tickstart = HAL_GetTick();
 8002242:	f7fe f9d3 	bl	80005ec <HAL_GetTick>
 8002246:	4680      	mov	r8, r0
        while(READ_BIT(RCC->CR, RCC_CR_MSIRDY) != 0U)
 8002248:	6823      	ldr	r3, [r4, #0]
 800224a:	079b      	lsls	r3, r3, #30
 800224c:	d5a5      	bpl.n	800219a <HAL_RCC_OscConfig+0x9e>
          if((HAL_GetTick() - tickstart) > MSI_TIMEOUT_VALUE)
 800224e:	f7fe f9cd 	bl	80005ec <HAL_GetTick>
 8002252:	eba0 0008 	sub.w	r0, r0, r8
 8002256:	2802      	cmp	r0, #2
 8002258:	d9f6      	bls.n	8002248 <HAL_RCC_OscConfig+0x14c>
 800225a:	e7ec      	b.n	8002236 <HAL_RCC_OscConfig+0x13a>
    if((sysclk_source == RCC_CFGR_SWS_HSE) ||
 800225c:	2e08      	cmp	r6, #8
 800225e:	d003      	beq.n	8002268 <HAL_RCC_OscConfig+0x16c>
 8002260:	2e0c      	cmp	r6, #12
 8002262:	d108      	bne.n	8002276 <HAL_RCC_OscConfig+0x17a>
       ((sysclk_source == RCC_CFGR_SWS_PLL) && (pll_oscsource == RCC_PLLSOURCE_HSE)))
 8002264:	2f03      	cmp	r7, #3
 8002266:	d106      	bne.n	8002276 <HAL_RCC_OscConfig+0x17a>
      if((READ_BIT(RCC->CR, RCC_CR_HSERDY) != 0U) && (RCC_OscInitStruct->HSEState == RCC_HSE_OFF))
 8002268:	6823      	ldr	r3, [r4, #0]
 800226a:	039a      	lsls	r2, r3, #14
 800226c:	d598      	bpl.n	80021a0 <HAL_RCC_OscConfig+0xa4>
 800226e:	686b      	ldr	r3, [r5, #4]
 8002270:	2b00      	cmp	r3, #0
 8002272:	d195      	bne.n	80021a0 <HAL_RCC_OscConfig+0xa4>
 8002274:	e746      	b.n	8002104 <HAL_RCC_OscConfig+0x8>
      __HAL_RCC_HSE_CONFIG(RCC_OscInitStruct->HSEState);
 8002276:	686b      	ldr	r3, [r5, #4]
 8002278:	f5b3 3f80 	cmp.w	r3, #65536	; 0x10000
 800227c:	d110      	bne.n	80022a0 <HAL_RCC_OscConfig+0x1a4>
 800227e:	6823      	ldr	r3, [r4, #0]
 8002280:	f443 3380 	orr.w	r3, r3, #65536	; 0x10000
 8002284:	6023      	str	r3, [r4, #0]
        tickstart = HAL_GetTick();
 8002286:	f7fe f9b1 	bl	80005ec <HAL_GetTick>
 800228a:	4680      	mov	r8, r0
        while(READ_BIT(RCC->CR, RCC_CR_HSERDY) == 0U)
 800228c:	6823      	ldr	r3, [r4, #0]
 800228e:	039b      	lsls	r3, r3, #14
 8002290:	d486      	bmi.n	80021a0 <HAL_RCC_OscConfig+0xa4>
          if((HAL_GetTick() - tickstart) > HSE_TIMEOUT_VALUE)
 8002292:	f7fe f9ab 	bl	80005ec <HAL_GetTick>
 8002296:	eba0 0008 	sub.w	r0, r0, r8
 800229a:	2864      	cmp	r0, #100	; 0x64
 800229c:	d9f6      	bls.n	800228c <HAL_RCC_OscConfig+0x190>
 800229e:	e7ca      	b.n	8002236 <HAL_RCC_OscConfig+0x13a>
      __HAL_RCC_HSE_CONFIG(RCC_OscInitStruct->HSEState);
 80022a0:	f5b3 2fa0 	cmp.w	r3, #327680	; 0x50000
 80022a4:	d104      	bne.n	80022b0 <HAL_RCC_OscConfig+0x1b4>
 80022a6:	6823      	ldr	r3, [r4, #0]
 80022a8:	f443 2380 	orr.w	r3, r3, #262144	; 0x40000
 80022ac:	6023      	str	r3, [r4, #0]
 80022ae:	e7e6      	b.n	800227e <HAL_RCC_OscConfig+0x182>
 80022b0:	6822      	ldr	r2, [r4, #0]
 80022b2:	f422 3280 	bic.w	r2, r2, #65536	; 0x10000
 80022b6:	6022      	str	r2, [r4, #0]
 80022b8:	6822      	ldr	r2, [r4, #0]
 80022ba:	f422 2280 	bic.w	r2, r2, #262144	; 0x40000
 80022be:	6022      	str	r2, [r4, #0]
      if(RCC_OscInitStruct->HSEState != RCC_HSE_OFF)
 80022c0:	2b00      	cmp	r3, #0
 80022c2:	d1e0      	bne.n	8002286 <HAL_RCC_OscConfig+0x18a>
        tickstart = HAL_GetTick();
 80022c4:	f7fe f992 	bl	80005ec <HAL_GetTick>
 80022c8:	4680      	mov	r8, r0
        while(READ_BIT(RCC->CR, RCC_CR_HSERDY) != 0U)
 80022ca:	6823      	ldr	r3, [r4, #0]
 80022cc:	0398      	lsls	r0, r3, #14
 80022ce:	f57f af67 	bpl.w	80021a0 <HAL_RCC_OscConfig+0xa4>
          if((HAL_GetTick() - tickstart) > HSE_TIMEOUT_VALUE)
 80022d2:	f7fe f98b 	bl	80005ec <HAL_GetTick>
 80022d6:	eba0 0008 	sub.w	r0, r0, r8
 80022da:	2864      	cmp	r0, #100	; 0x64
 80022dc:	d9f5      	bls.n	80022ca <HAL_RCC_OscConfig+0x1ce>
 80022de:	e7aa      	b.n	8002236 <HAL_RCC_OscConfig+0x13a>
    if((sysclk_source == RCC_CFGR_SWS_HSI) ||
 80022e0:	2e04      	cmp	r6, #4
 80022e2:	d003      	beq.n	80022ec <HAL_RCC_OscConfig+0x1f0>
 80022e4:	2e0c      	cmp	r6, #12
 80022e6:	d110      	bne.n	800230a <HAL_RCC_OscConfig+0x20e>
       ((sysclk_source == RCC_CFGR_SWS_PLL) && (pll_oscsource == RCC_PLLSOURCE_HSI)))
 80022e8:	2f02      	cmp	r7, #2
 80022ea:	d10e      	bne.n	800230a <HAL_RCC_OscConfig+0x20e>
      if((READ_BIT(RCC->CR, RCC_CR_HSIRDY) != 0U) && (RCC_OscInitStruct->HSIState == RCC_HSI_OFF))
 80022ec:	6823      	ldr	r3, [r4, #0]
 80022ee:	0559      	lsls	r1, r3, #21
 80022f0:	d503      	bpl.n	80022fa <HAL_RCC_OscConfig+0x1fe>
 80022f2:	68eb      	ldr	r3, [r5, #12]
 80022f4:	2b00      	cmp	r3, #0
 80022f6:	f43f af05 	beq.w	8002104 <HAL_RCC_OscConfig+0x8>
        __HAL_RCC_HSI_CALIBRATIONVALUE_ADJUST(RCC_OscInitStruct->HSICalibrationValue);
 80022fa:	6863      	ldr	r3, [r4, #4]
 80022fc:	692a      	ldr	r2, [r5, #16]
 80022fe:	f023 53f8 	bic.w	r3, r3, #520093696	; 0x1f000000
 8002302:	ea43 6302 	orr.w	r3, r3, r2, lsl #24
 8002306:	6063      	str	r3, [r4, #4]
 8002308:	e74e      	b.n	80021a8 <HAL_RCC_OscConfig+0xac>
      if(RCC_OscInitStruct->HSIState != RCC_HSI_OFF)
 800230a:	68eb      	ldr	r3, [r5, #12]
 800230c:	b17b      	cbz	r3, 800232e <HAL_RCC_OscConfig+0x232>
        __HAL_RCC_HSI_ENABLE();
 800230e:	6823      	ldr	r3, [r4, #0]
 8002310:	f443 7380 	orr.w	r3, r3, #256	; 0x100
 8002314:	6023      	str	r3, [r4, #0]
        tickstart = HAL_GetTick();
 8002316:	f7fe f969 	bl	80005ec <HAL_GetTick>
 800231a:	4607      	mov	r7, r0
        while(READ_BIT(RCC->CR, RCC_CR_HSIRDY) == 0U)
 800231c:	6823      	ldr	r3, [r4, #0]
 800231e:	055a      	lsls	r2, r3, #21
 8002320:	d4eb      	bmi.n	80022fa <HAL_RCC_OscConfig+0x1fe>
          if((HAL_GetTick() - tickstart) > HSI_TIMEOUT_VALUE)
 8002322:	f7fe f963 	bl	80005ec <HAL_GetTick>
 8002326:	1bc0      	subs	r0, r0, r7
 8002328:	2802      	cmp	r0, #2
 800232a:	d9f7      	bls.n	800231c <HAL_RCC_OscConfig+0x220>
 800232c:	e783      	b.n	8002236 <HAL_RCC_OscConfig+0x13a>
        __HAL_RCC_HSI_DISABLE();
 800232e:	6823      	ldr	r3, [r4, #0]
 8002330:	f423 7380 	bic.w	r3, r3, #256	; 0x100
 8002334:	6023      	str	r3, [r4, #0]
        tickstart = HAL_GetTick();
 8002336:	f7fe f959 	bl	80005ec <HAL_GetTick>
 800233a:	4607      	mov	r7, r0
        while(READ_BIT(RCC->CR, RCC_CR_HSIRDY) != 0U)
 800233c:	6823      	ldr	r3, [r4, #0]
 800233e:	055b      	lsls	r3, r3, #21
 8002340:	f57f af32 	bpl.w	80021a8 <HAL_RCC_OscConfig+0xac>
          if((HAL_GetTick() - tickstart) > HSI_TIMEOUT_VALUE)
 8002344:	f7fe f952 	bl	80005ec <HAL_GetTick>
 8002348:	1bc0      	subs	r0, r0, r7
 800234a:	2802      	cmp	r0, #2
 800234c:	d9f6      	bls.n	800233c <HAL_RCC_OscConfig+0x240>
 800234e:	e772      	b.n	8002236 <HAL_RCC_OscConfig+0x13a>
    if(RCC_OscInitStruct->LSIState != RCC_LSI_OFF)
 8002350:	696b      	ldr	r3, [r5, #20]
 8002352:	b19b      	cbz	r3, 800237c <HAL_RCC_OscConfig+0x280>
      __HAL_RCC_LSI_ENABLE();
 8002354:	f8d4 3094 	ldr.w	r3, [r4, #148]	; 0x94
 8002358:	f043 0301 	orr.w	r3, r3, #1
 800235c:	f8c4 3094 	str.w	r3, [r4, #148]	; 0x94
      tickstart = HAL_GetTick();
 8002360:	f7fe f944 	bl	80005ec <HAL_GetTick>
 8002364:	4607      	mov	r7, r0
      while(READ_BIT(RCC->CSR, RCC_CSR_LSIRDY) == 0U)
 8002366:	f8d4 3094 	ldr.w	r3, [r4, #148]	; 0x94
 800236a:	079a      	lsls	r2, r3, #30
 800236c:	f53f af20 	bmi.w	80021b0 <HAL_RCC_OscConfig+0xb4>
        if((HAL_GetTick() - tickstart) > LSI_TIMEOUT_VALUE)
 8002370:	f7fe f93c 	bl	80005ec <HAL_GetTick>
 8002374:	1bc0      	subs	r0, r0, r7
 8002376:	2802      	cmp	r0, #2
 8002378:	d9f5      	bls.n	8002366 <HAL_RCC_OscConfig+0x26a>
 800237a:	e75c      	b.n	8002236 <HAL_RCC_OscConfig+0x13a>
      __HAL_RCC_LSI_DISABLE();
 800237c:	f8d4 3094 	ldr.w	r3, [r4, #148]	; 0x94
 8002380:	f023 0301 	bic.w	r3, r3, #1
 8002384:	f8c4 3094 	str.w	r3, [r4, #148]	; 0x94
      tickstart = HAL_GetTick();
 8002388:	f7fe f930 	bl	80005ec <HAL_GetTick>
 800238c:	4607      	mov	r7, r0
      while(READ_BIT(RCC->CSR, RCC_CSR_LSIRDY) != 0U)
 800238e:	f8d4 3094 	ldr.w	r3, [r4, #148]	; 0x94
 8002392:	079b      	lsls	r3, r3, #30
 8002394:	f57f af0c 	bpl.w	80021b0 <HAL_RCC_OscConfig+0xb4>
        if((HAL_GetTick() - tickstart) > LSI_TIMEOUT_VALUE)
 8002398:	f7fe f928 	bl	80005ec <HAL_GetTick>
 800239c:	1bc0      	subs	r0, r0, r7
 800239e:	2802      	cmp	r0, #2
 80023a0:	d9f5      	bls.n	800238e <HAL_RCC_OscConfig+0x292>
 80023a2:	e748      	b.n	8002236 <HAL_RCC_OscConfig+0x13a>
 80023a4:	40021000 	.word	0x40021000
 80023a8:	080052ce 	.word	0x080052ce
 80023ac:	20000020 	.word	0x20000020
    if(HAL_IS_BIT_CLR(RCC->APB1ENR1, RCC_APB1ENR1_PWREN))
 80023b0:	6da3      	ldr	r3, [r4, #88]	; 0x58
 80023b2:	00d8      	lsls	r0, r3, #3
 80023b4:	d429      	bmi.n	800240a <HAL_RCC_OscConfig+0x30e>
      __HAL_RCC_PWR_CLK_ENABLE();
 80023b6:	6da3      	ldr	r3, [r4, #88]	; 0x58
 80023b8:	f043 5380 	orr.w	r3, r3, #268435456	; 0x10000000
 80023bc:	65a3      	str	r3, [r4, #88]	; 0x58
 80023be:	6da3      	ldr	r3, [r4, #88]	; 0x58
 80023c0:	f003 5380 	and.w	r3, r3, #268435456	; 0x10000000
 80023c4:	9301      	str	r3, [sp, #4]
 80023c6:	9b01      	ldr	r3, [sp, #4]
      pwrclkchanged = SET;
 80023c8:	f04f 0801 	mov.w	r8, #1
    if(HAL_IS_BIT_CLR(PWR->CR1, PWR_CR1_DBP))
 80023cc:	4f5d      	ldr	r7, [pc, #372]	; (8002544 <HAL_RCC_OscConfig+0x448>)
 80023ce:	683b      	ldr	r3, [r7, #0]
 80023d0:	05d9      	lsls	r1, r3, #23
 80023d2:	d51d      	bpl.n	8002410 <HAL_RCC_OscConfig+0x314>
    __HAL_RCC_LSE_CONFIG(RCC_OscInitStruct->LSEState);
 80023d4:	68ab      	ldr	r3, [r5, #8]
 80023d6:	2b01      	cmp	r3, #1
 80023d8:	d12b      	bne.n	8002432 <HAL_RCC_OscConfig+0x336>
 80023da:	f8d4 3090 	ldr.w	r3, [r4, #144]	; 0x90
 80023de:	f043 0301 	orr.w	r3, r3, #1
 80023e2:	f8c4 3090 	str.w	r3, [r4, #144]	; 0x90
      tickstart = HAL_GetTick();
 80023e6:	f7fe f901 	bl	80005ec <HAL_GetTick>
        if((HAL_GetTick() - tickstart) > RCC_LSE_TIMEOUT_VALUE)
 80023ea:	f241 3988 	movw	r9, #5000	; 0x1388
      tickstart = HAL_GetTick();
 80023ee:	4607      	mov	r7, r0
      while(READ_BIT(RCC->BDCR, RCC_BDCR_LSERDY) == 0U)
 80023f0:	f8d4 3090 	ldr.w	r3, [r4, #144]	; 0x90
 80023f4:	079b      	lsls	r3, r3, #30
 80023f6:	d542      	bpl.n	800247e <HAL_RCC_OscConfig+0x382>
    if(pwrclkchanged == SET)
 80023f8:	f1b8 0f00 	cmp.w	r8, #0
 80023fc:	f43f aedc 	beq.w	80021b8 <HAL_RCC_OscConfig+0xbc>
      __HAL_RCC_PWR_CLK_DISABLE();
 8002400:	6da3      	ldr	r3, [r4, #88]	; 0x58
 8002402:	f023 5380 	bic.w	r3, r3, #268435456	; 0x10000000
 8002406:	65a3      	str	r3, [r4, #88]	; 0x58
 8002408:	e6d6      	b.n	80021b8 <HAL_RCC_OscConfig+0xbc>
    FlagStatus       pwrclkchanged = RESET;
 800240a:	f04f 0800 	mov.w	r8, #0
 800240e:	e7dd      	b.n	80023cc <HAL_RCC_OscConfig+0x2d0>
      SET_BIT(PWR->CR1, PWR_CR1_DBP);
 8002410:	683b      	ldr	r3, [r7, #0]
 8002412:	f443 7380 	orr.w	r3, r3, #256	; 0x100
 8002416:	603b      	str	r3, [r7, #0]
      tickstart = HAL_GetTick();
 8002418:	f7fe f8e8 	bl	80005ec <HAL_GetTick>
 800241c:	4681      	mov	r9, r0
      while(HAL_IS_BIT_CLR(PWR->CR1, PWR_CR1_DBP))
 800241e:	683b      	ldr	r3, [r7, #0]
 8002420:	05da      	lsls	r2, r3, #23
 8002422:	d4d7      	bmi.n	80023d4 <HAL_RCC_OscConfig+0x2d8>
        if((HAL_GetTick() - tickstart) > RCC_DBP_TIMEOUT_VALUE)
 8002424:	f7fe f8e2 	bl	80005ec <HAL_GetTick>
 8002428:	eba0 0009 	sub.w	r0, r0, r9
 800242c:	2802      	cmp	r0, #2
 800242e:	d9f6      	bls.n	800241e <HAL_RCC_OscConfig+0x322>
 8002430:	e701      	b.n	8002236 <HAL_RCC_OscConfig+0x13a>
    __HAL_RCC_LSE_CONFIG(RCC_OscInitStruct->LSEState);
 8002432:	2b05      	cmp	r3, #5
 8002434:	d106      	bne.n	8002444 <HAL_RCC_OscConfig+0x348>
 8002436:	f8d4 3090 	ldr.w	r3, [r4, #144]	; 0x90
 800243a:	f043 0304 	orr.w	r3, r3, #4
 800243e:	f8c4 3090 	str.w	r3, [r4, #144]	; 0x90
 8002442:	e7ca      	b.n	80023da <HAL_RCC_OscConfig+0x2de>
 8002444:	f8d4 2090 	ldr.w	r2, [r4, #144]	; 0x90
 8002448:	f022 0201 	bic.w	r2, r2, #1
 800244c:	f8c4 2090 	str.w	r2, [r4, #144]	; 0x90
 8002450:	f8d4 2090 	ldr.w	r2, [r4, #144]	; 0x90
 8002454:	f022 0204 	bic.w	r2, r2, #4
 8002458:	f8c4 2090 	str.w	r2, [r4, #144]	; 0x90
    if(RCC_OscInitStruct->LSEState != RCC_LSE_OFF)
 800245c:	2b00      	cmp	r3, #0
 800245e:	d1c2      	bne.n	80023e6 <HAL_RCC_OscConfig+0x2ea>
      tickstart = HAL_GetTick();
 8002460:	f7fe f8c4 	bl	80005ec <HAL_GetTick>
        if((HAL_GetTick() - tickstart) > RCC_LSE_TIMEOUT_VALUE)
 8002464:	f241 3988 	movw	r9, #5000	; 0x1388
      tickstart = HAL_GetTick();
 8002468:	4607      	mov	r7, r0
      while(READ_BIT(RCC->BDCR, RCC_BDCR_LSERDY) != 0U)
 800246a:	f8d4 3090 	ldr.w	r3, [r4, #144]	; 0x90
 800246e:	0798      	lsls	r0, r3, #30
 8002470:	d5c2      	bpl.n	80023f8 <HAL_RCC_OscConfig+0x2fc>
        if((HAL_GetTick() - tickstart) > RCC_LSE_TIMEOUT_VALUE)
 8002472:	f7fe f8bb 	bl	80005ec <HAL_GetTick>
 8002476:	1bc0      	subs	r0, r0, r7
 8002478:	4548      	cmp	r0, r9
 800247a:	d9f6      	bls.n	800246a <HAL_RCC_OscConfig+0x36e>
 800247c:	e6db      	b.n	8002236 <HAL_RCC_OscConfig+0x13a>
        if((HAL_GetTick() - tickstart) > RCC_LSE_TIMEOUT_VALUE)
 800247e:	f7fe f8b5 	bl	80005ec <HAL_GetTick>
 8002482:	1bc0      	subs	r0, r0, r7
 8002484:	4548      	cmp	r0, r9
 8002486:	d9b3      	bls.n	80023f0 <HAL_RCC_OscConfig+0x2f4>
 8002488:	e6d5      	b.n	8002236 <HAL_RCC_OscConfig+0x13a>
    if(sysclk_source != RCC_CFGR_SWS_PLL)
 800248a:	2e0c      	cmp	r6, #12
 800248c:	f43f ae3a 	beq.w	8002104 <HAL_RCC_OscConfig+0x8>
      if(RCC_OscInitStruct->PLL.PLLState == RCC_PLL_ON)
 8002490:	2b02      	cmp	r3, #2
        __HAL_RCC_PLL_DISABLE();
 8002492:	6823      	ldr	r3, [r4, #0]
 8002494:	f023 7380 	bic.w	r3, r3, #16777216	; 0x1000000
 8002498:	6023      	str	r3, [r4, #0]
      if(RCC_OscInitStruct->PLL.PLLState == RCC_PLL_ON)
 800249a:	d137      	bne.n	800250c <HAL_RCC_OscConfig+0x410>
        tickstart = HAL_GetTick();
 800249c:	f7fe f8a6 	bl	80005ec <HAL_GetTick>
 80024a0:	4606      	mov	r6, r0
        while(READ_BIT(RCC->CR, RCC_CR_PLLRDY) != 0U)
 80024a2:	6823      	ldr	r3, [r4, #0]
 80024a4:	0199      	lsls	r1, r3, #6
 80024a6:	d42b      	bmi.n	8002500 <HAL_RCC_OscConfig+0x404>
        __HAL_RCC_PLL_CONFIG(RCC_OscInitStruct->PLL.PLLSource,
 80024a8:	6b6a      	ldr	r2, [r5, #52]	; 0x34
 80024aa:	6aeb      	ldr	r3, [r5, #44]	; 0x2c
 80024ac:	ea43 2302 	orr.w	r3, r3, r2, lsl #8
 80024b0:	6b2a      	ldr	r2, [r5, #48]	; 0x30
 80024b2:	3a01      	subs	r2, #1
 80024b4:	ea43 1302 	orr.w	r3, r3, r2, lsl #4
 80024b8:	6baa      	ldr	r2, [r5, #56]	; 0x38
 80024ba:	0912      	lsrs	r2, r2, #4
 80024bc:	ea43 4342 	orr.w	r3, r3, r2, lsl #17
 80024c0:	6bea      	ldr	r2, [r5, #60]	; 0x3c
 80024c2:	0852      	lsrs	r2, r2, #1
 80024c4:	3a01      	subs	r2, #1
 80024c6:	ea43 5342 	orr.w	r3, r3, r2, lsl #21
 80024ca:	6c2a      	ldr	r2, [r5, #64]	; 0x40
 80024cc:	0852      	lsrs	r2, r2, #1
 80024ce:	3a01      	subs	r2, #1
 80024d0:	ea43 6342 	orr.w	r3, r3, r2, lsl #25
 80024d4:	60e3      	str	r3, [r4, #12]
        __HAL_RCC_PLL_ENABLE();
 80024d6:	6823      	ldr	r3, [r4, #0]
 80024d8:	f043 7380 	orr.w	r3, r3, #16777216	; 0x1000000
 80024dc:	6023      	str	r3, [r4, #0]
         __HAL_RCC_PLLCLKOUT_ENABLE(RCC_PLL_SYSCLK);
 80024de:	68e3      	ldr	r3, [r4, #12]
 80024e0:	f043 7380 	orr.w	r3, r3, #16777216	; 0x1000000
 80024e4:	60e3      	str	r3, [r4, #12]
        tickstart = HAL_GetTick();
 80024e6:	f7fe f881 	bl	80005ec <HAL_GetTick>
 80024ea:	4605      	mov	r5, r0
        while(READ_BIT(RCC->CR, RCC_CR_PLLRDY) == 0U)
 80024ec:	6823      	ldr	r3, [r4, #0]
 80024ee:	019a      	lsls	r2, r3, #6
 80024f0:	f53f ae66 	bmi.w	80021c0 <HAL_RCC_OscConfig+0xc4>
          if((HAL_GetTick() - tickstart) > PLL_TIMEOUT_VALUE)
 80024f4:	f7fe f87a 	bl	80005ec <HAL_GetTick>
 80024f8:	1b40      	subs	r0, r0, r5
 80024fa:	2802      	cmp	r0, #2
 80024fc:	d9f6      	bls.n	80024ec <HAL_RCC_OscConfig+0x3f0>
 80024fe:	e69a      	b.n	8002236 <HAL_RCC_OscConfig+0x13a>
          if((HAL_GetTick() - tickstart) > PLL_TIMEOUT_VALUE)
 8002500:	f7fe f874 	bl	80005ec <HAL_GetTick>
 8002504:	1b80      	subs	r0, r0, r6
 8002506:	2802      	cmp	r0, #2
 8002508:	d9cb      	bls.n	80024a2 <HAL_RCC_OscConfig+0x3a6>
 800250a:	e694      	b.n	8002236 <HAL_RCC_OscConfig+0x13a>
        if(READ_BIT(RCC->CR, (RCC_CR_PLLSAI1RDY | RCC_CR_PLLSAI2RDY)) == 0U)
 800250c:	6823      	ldr	r3, [r4, #0]
 800250e:	f013 5f20 	tst.w	r3, #671088640	; 0x28000000
          MODIFY_REG(RCC->PLLCFGR, RCC_PLLCFGR_PLLSRC, RCC_PLLSOURCE_NONE);
 8002512:	bf02      	ittt	eq
 8002514:	68e3      	ldreq	r3, [r4, #12]
 8002516:	f023 0303 	biceq.w	r3, r3, #3
 800251a:	60e3      	streq	r3, [r4, #12]
        __HAL_RCC_PLLCLKOUT_DISABLE(RCC_PLL_SYSCLK | RCC_PLL_48M1CLK | RCC_PLL_SAI3CLK);
 800251c:	68e3      	ldr	r3, [r4, #12]
 800251e:	f023 7388 	bic.w	r3, r3, #17825792	; 0x1100000
 8002522:	f423 3380 	bic.w	r3, r3, #65536	; 0x10000
 8002526:	60e3      	str	r3, [r4, #12]
        tickstart = HAL_GetTick();
 8002528:	f7fe f860 	bl	80005ec <HAL_GetTick>
 800252c:	4605      	mov	r5, r0
        while(READ_BIT(RCC->CR, RCC_CR_PLLRDY) != 0U)
 800252e:	6823      	ldr	r3, [r4, #0]
 8002530:	019b      	lsls	r3, r3, #6
 8002532:	f57f ae45 	bpl.w	80021c0 <HAL_RCC_OscConfig+0xc4>
          if((HAL_GetTick() - tickstart) > PLL_TIMEOUT_VALUE)
 8002536:	f7fe f859 	bl	80005ec <HAL_GetTick>
 800253a:	1b40      	subs	r0, r0, r5
 800253c:	2802      	cmp	r0, #2
 800253e:	d9f6      	bls.n	800252e <HAL_RCC_OscConfig+0x432>
 8002540:	e679      	b.n	8002236 <HAL_RCC_OscConfig+0x13a>
 8002542:	bf00      	nop
 8002544:	40007000 	.word	0x40007000

08002548 <HAL_RCC_ClockConfig>:
{
 8002548:	e92d 41f0 	stmdb	sp!, {r4, r5, r6, r7, r8, lr}
 800254c:	460e      	mov	r6, r1
  if(RCC_ClkInitStruct == NULL)
 800254e:	4604      	mov	r4, r0
 8002550:	b910      	cbnz	r0, 8002558 <HAL_RCC_ClockConfig+0x10>
    return HAL_ERROR;
 8002552:	2001      	movs	r0, #1
 8002554:	e8bd 81f0 	ldmia.w	sp!, {r4, r5, r6, r7, r8, pc}
  if(FLatency > __HAL_FLASH_GET_LATENCY())
 8002558:	4a40      	ldr	r2, [pc, #256]	; (800265c <HAL_RCC_ClockConfig+0x114>)
 800255a:	6813      	ldr	r3, [r2, #0]
 800255c:	f003 0307 	and.w	r3, r3, #7
 8002560:	428b      	cmp	r3, r1
 8002562:	d329      	bcc.n	80025b8 <HAL_RCC_ClockConfig+0x70>
  if(((RCC_ClkInitStruct->ClockType) & RCC_CLOCKTYPE_SYSCLK) == RCC_CLOCKTYPE_SYSCLK)
 8002564:	6823      	ldr	r3, [r4, #0]
 8002566:	07d9      	lsls	r1, r3, #31
 8002568:	d431      	bmi.n	80025ce <HAL_RCC_ClockConfig+0x86>
  if(((RCC_ClkInitStruct->ClockType) & RCC_CLOCKTYPE_HCLK) == RCC_CLOCKTYPE_HCLK)
 800256a:	6821      	ldr	r1, [r4, #0]
 800256c:	078a      	lsls	r2, r1, #30
 800256e:	d45b      	bmi.n	8002628 <HAL_RCC_ClockConfig+0xe0>
  if(FLatency < __HAL_FLASH_GET_LATENCY())
 8002570:	4a3a      	ldr	r2, [pc, #232]	; (800265c <HAL_RCC_ClockConfig+0x114>)
 8002572:	6813      	ldr	r3, [r2, #0]
 8002574:	f003 0307 	and.w	r3, r3, #7
 8002578:	429e      	cmp	r6, r3
 800257a:	d35d      	bcc.n	8002638 <HAL_RCC_ClockConfig+0xf0>
  if(((RCC_ClkInitStruct->ClockType) & RCC_CLOCKTYPE_PCLK1) == RCC_CLOCKTYPE_PCLK1)
 800257c:	f011 0f04 	tst.w	r1, #4
 8002580:	4d37      	ldr	r5, [pc, #220]	; (8002660 <HAL_RCC_ClockConfig+0x118>)
 8002582:	d164      	bne.n	800264e <HAL_RCC_ClockConfig+0x106>
  if(((RCC_ClkInitStruct->ClockType) & RCC_CLOCKTYPE_PCLK2) == RCC_CLOCKTYPE_PCLK2)
 8002584:	070b      	lsls	r3, r1, #28
 8002586:	d506      	bpl.n	8002596 <HAL_RCC_ClockConfig+0x4e>
    MODIFY_REG(RCC->CFGR, RCC_CFGR_PPRE2, ((RCC_ClkInitStruct->APB2CLKDivider) << 3U));
 8002588:	68ab      	ldr	r3, [r5, #8]
 800258a:	6922      	ldr	r2, [r4, #16]
 800258c:	f423 5360 	bic.w	r3, r3, #14336	; 0x3800
 8002590:	ea43 03c2 	orr.w	r3, r3, r2, lsl #3
 8002594:	60ab      	str	r3, [r5, #8]
  SystemCoreClock = HAL_RCC_GetSysClockFreq() >> (AHBPrescTable[READ_BIT(RCC->CFGR, RCC_CFGR_HPRE) >> RCC_CFGR_HPRE_Pos] & 0x1FU);
 8002596:	f7ff fd5d 	bl	8002054 <HAL_RCC_GetSysClockFreq>
 800259a:	68ab      	ldr	r3, [r5, #8]
 800259c:	4a31      	ldr	r2, [pc, #196]	; (8002664 <HAL_RCC_ClockConfig+0x11c>)
 800259e:	f3c3 1303 	ubfx	r3, r3, #4, #4
}
 80025a2:	e8bd 41f0 	ldmia.w	sp!, {r4, r5, r6, r7, r8, lr}
  SystemCoreClock = HAL_RCC_GetSysClockFreq() >> (AHBPrescTable[READ_BIT(RCC->CFGR, RCC_CFGR_HPRE) >> RCC_CFGR_HPRE_Pos] & 0x1FU);
 80025a6:	5cd3      	ldrb	r3, [r2, r3]
 80025a8:	f003 031f 	and.w	r3, r3, #31
 80025ac:	40d8      	lsrs	r0, r3
 80025ae:	4b2e      	ldr	r3, [pc, #184]	; (8002668 <HAL_RCC_ClockConfig+0x120>)
 80025b0:	6018      	str	r0, [r3, #0]
  status = HAL_InitTick (TICK_INT_PRIORITY);
 80025b2:	2000      	movs	r0, #0
 80025b4:	f7fd bfe4 	b.w	8000580 <HAL_InitTick>
    __HAL_FLASH_SET_LATENCY(FLatency);
 80025b8:	6813      	ldr	r3, [r2, #0]
 80025ba:	f023 0307 	bic.w	r3, r3, #7
 80025be:	430b      	orrs	r3, r1
 80025c0:	6013      	str	r3, [r2, #0]
    if(__HAL_FLASH_GET_LATENCY() != FLatency)
 80025c2:	6813      	ldr	r3, [r2, #0]
 80025c4:	f003 0307 	and.w	r3, r3, #7
 80025c8:	4299      	cmp	r1, r3
 80025ca:	d1c2      	bne.n	8002552 <HAL_RCC_ClockConfig+0xa>
 80025cc:	e7ca      	b.n	8002564 <HAL_RCC_ClockConfig+0x1c>
    if(RCC_ClkInitStruct->SYSCLKSource == RCC_SYSCLKSOURCE_PLLCLK)
 80025ce:	6862      	ldr	r2, [r4, #4]
 80025d0:	4d23      	ldr	r5, [pc, #140]	; (8002660 <HAL_RCC_ClockConfig+0x118>)
 80025d2:	2a03      	cmp	r2, #3
      if(READ_BIT(RCC->CR, RCC_CR_PLLRDY) == 0U)
 80025d4:	682b      	ldr	r3, [r5, #0]
    if(RCC_ClkInitStruct->SYSCLKSource == RCC_SYSCLKSOURCE_PLLCLK)
 80025d6:	d11b      	bne.n	8002610 <HAL_RCC_ClockConfig+0xc8>
      if(READ_BIT(RCC->CR, RCC_CR_PLLRDY) == 0U)
 80025d8:	f013 7f00 	tst.w	r3, #33554432	; 0x2000000
        if(READ_BIT(RCC->CR, RCC_CR_HSIRDY) == 0U)
 80025dc:	d0b9      	beq.n	8002552 <HAL_RCC_ClockConfig+0xa>
    MODIFY_REG(RCC->CFGR, RCC_CFGR_SW, RCC_ClkInitStruct->SYSCLKSource);
 80025de:	68ab      	ldr	r3, [r5, #8]
 80025e0:	f023 0303 	bic.w	r3, r3, #3
 80025e4:	4313      	orrs	r3, r2
 80025e6:	60ab      	str	r3, [r5, #8]
    tickstart = HAL_GetTick();
 80025e8:	f7fe f800 	bl	80005ec <HAL_GetTick>
      if((HAL_GetTick() - tickstart) > CLOCKSWITCH_TIMEOUT_VALUE)
 80025ec:	f241 3888 	movw	r8, #5000	; 0x1388
    tickstart = HAL_GetTick();
 80025f0:	4607      	mov	r7, r0
    while(__HAL_RCC_GET_SYSCLK_SOURCE() != (RCC_ClkInitStruct->SYSCLKSource << RCC_CFGR_SWS_Pos))
 80025f2:	68ab      	ldr	r3, [r5, #8]
 80025f4:	6862      	ldr	r2, [r4, #4]
 80025f6:	f003 030c 	and.w	r3, r3, #12
 80025fa:	ebb3 0f82 	cmp.w	r3, r2, lsl #2
 80025fe:	d0b4      	beq.n	800256a <HAL_RCC_ClockConfig+0x22>
      if((HAL_GetTick() - tickstart) > CLOCKSWITCH_TIMEOUT_VALUE)
 8002600:	f7fd fff4 	bl	80005ec <HAL_GetTick>
 8002604:	1bc0      	subs	r0, r0, r7
 8002606:	4540      	cmp	r0, r8
 8002608:	d9f3      	bls.n	80025f2 <HAL_RCC_ClockConfig+0xaa>
        return HAL_TIMEOUT;
 800260a:	2003      	movs	r0, #3
}
 800260c:	e8bd 81f0 	ldmia.w	sp!, {r4, r5, r6, r7, r8, pc}
      if(RCC_ClkInitStruct->SYSCLKSource == RCC_SYSCLKSOURCE_HSE)
 8002610:	2a02      	cmp	r2, #2
 8002612:	d102      	bne.n	800261a <HAL_RCC_ClockConfig+0xd2>
        if(READ_BIT(RCC->CR, RCC_CR_HSERDY) == 0U)
 8002614:	f413 3f00 	tst.w	r3, #131072	; 0x20000
 8002618:	e7e0      	b.n	80025dc <HAL_RCC_ClockConfig+0x94>
      else if(RCC_ClkInitStruct->SYSCLKSource == RCC_SYSCLKSOURCE_MSI)
 800261a:	b912      	cbnz	r2, 8002622 <HAL_RCC_ClockConfig+0xda>
        if(READ_BIT(RCC->CR, RCC_CR_MSIRDY) == 0U)
 800261c:	f013 0f02 	tst.w	r3, #2
 8002620:	e7dc      	b.n	80025dc <HAL_RCC_ClockConfig+0x94>
        if(READ_BIT(RCC->CR, RCC_CR_HSIRDY) == 0U)
 8002622:	f413 6f80 	tst.w	r3, #1024	; 0x400
 8002626:	e7d9      	b.n	80025dc <HAL_RCC_ClockConfig+0x94>
    MODIFY_REG(RCC->CFGR, RCC_CFGR_HPRE, RCC_ClkInitStruct->AHBCLKDivider);
 8002628:	4a0d      	ldr	r2, [pc, #52]	; (8002660 <HAL_RCC_ClockConfig+0x118>)
 800262a:	68a0      	ldr	r0, [r4, #8]
 800262c:	6893      	ldr	r3, [r2, #8]
 800262e:	f023 03f0 	bic.w	r3, r3, #240	; 0xf0
 8002632:	4303      	orrs	r3, r0
 8002634:	6093      	str	r3, [r2, #8]
 8002636:	e79b      	b.n	8002570 <HAL_RCC_ClockConfig+0x28>
    __HAL_FLASH_SET_LATENCY(FLatency);
 8002638:	6813      	ldr	r3, [r2, #0]
 800263a:	f023 0307 	bic.w	r3, r3, #7
 800263e:	4333      	orrs	r3, r6
 8002640:	6013      	str	r3, [r2, #0]
    if(__HAL_FLASH_GET_LATENCY() != FLatency)
 8002642:	6813      	ldr	r3, [r2, #0]
 8002644:	f003 0307 	and.w	r3, r3, #7
 8002648:	429e      	cmp	r6, r3
 800264a:	d182      	bne.n	8002552 <HAL_RCC_ClockConfig+0xa>
 800264c:	e796      	b.n	800257c <HAL_RCC_ClockConfig+0x34>
    MODIFY_REG(RCC->CFGR, RCC_CFGR_PPRE1, RCC_ClkInitStruct->APB1CLKDivider);
 800264e:	68ab      	ldr	r3, [r5, #8]
 8002650:	68e2      	ldr	r2, [r4, #12]
 8002652:	f423 63e0 	bic.w	r3, r3, #1792	; 0x700
 8002656:	4313      	orrs	r3, r2
 8002658:	60ab      	str	r3, [r5, #8]
 800265a:	e793      	b.n	8002584 <HAL_RCC_ClockConfig+0x3c>
 800265c:	40022000 	.word	0x40022000
 8002660:	40021000 	.word	0x40021000
 8002664:	080052ce 	.word	0x080052ce
 8002668:	20000020 	.word	0x20000020

0800266c <HAL_RCC_GetPCLK1Freq>:
  return (HAL_RCC_GetHCLKFreq() >> (APBPrescTable[READ_BIT(RCC->CFGR, RCC_CFGR_PPRE1) >> RCC_CFGR_PPRE1_Pos] & 0x1FU));
 800266c:	4b05      	ldr	r3, [pc, #20]	; (8002684 <HAL_RCC_GetPCLK1Freq+0x18>)
 800266e:	4a06      	ldr	r2, [pc, #24]	; (8002688 <HAL_RCC_GetPCLK1Freq+0x1c>)
 8002670:	689b      	ldr	r3, [r3, #8]
 8002672:	f3c3 2302 	ubfx	r3, r3, #8, #3
 8002676:	5cd3      	ldrb	r3, [r2, r3]
 8002678:	4a04      	ldr	r2, [pc, #16]	; (800268c <HAL_RCC_GetPCLK1Freq+0x20>)
 800267a:	6810      	ldr	r0, [r2, #0]
 800267c:	f003 031f 	and.w	r3, r3, #31
}
 8002680:	40d8      	lsrs	r0, r3
 8002682:	4770      	bx	lr
 8002684:	40021000 	.word	0x40021000
 8002688:	080052de 	.word	0x080052de
 800268c:	20000020 	.word	0x20000020

08002690 <HAL_RCC_GetPCLK2Freq>:
  return (HAL_RCC_GetHCLKFreq()>> (APBPrescTable[READ_BIT(RCC->CFGR, RCC_CFGR_PPRE2) >> RCC_CFGR_PPRE2_Pos] & 0x1FU));
 8002690:	4b05      	ldr	r3, [pc, #20]	; (80026a8 <HAL_RCC_GetPCLK2Freq+0x18>)
 8002692:	4a06      	ldr	r2, [pc, #24]	; (80026ac <HAL_RCC_GetPCLK2Freq+0x1c>)
 8002694:	689b      	ldr	r3, [r3, #8]
 8002696:	f3c3 23c2 	ubfx	r3, r3, #11, #3
 800269a:	5cd3      	ldrb	r3, [r2, r3]
 800269c:	4a04      	ldr	r2, [pc, #16]	; (80026b0 <HAL_RCC_GetPCLK2Freq+0x20>)
 800269e:	6810      	ldr	r0, [r2, #0]
 80026a0:	f003 031f 	and.w	r3, r3, #31
}
 80026a4:	40d8      	lsrs	r0, r3
 80026a6:	4770      	bx	lr
 80026a8:	40021000 	.word	0x40021000
 80026ac:	080052de 	.word	0x080052de
 80026b0:	20000020 	.word	0x20000020

080026b4 <RCCEx_PLLSAI1_Config>:
  * @note   PLLSAI1 is temporary disable to apply new parameters
  *
  * @retval HAL status
  */
static HAL_StatusTypeDef RCCEx_PLLSAI1_Config(RCC_PLLSAI1InitTypeDef *PllSai1, uint32_t Divider)
{
 80026b4:	b5f8      	push	{r3, r4, r5, r6, r7, lr}
  assert_param(IS_RCC_PLLSAI1M_VALUE(PllSai1->PLLSAI1M));
  assert_param(IS_RCC_PLLSAI1N_VALUE(PllSai1->PLLSAI1N));
  assert_param(IS_RCC_PLLSAI1CLOCKOUT_VALUE(PllSai1->PLLSAI1ClockOut));

  /* Check that PLLSAI1 clock source and divider M can be applied */
  if(__HAL_RCC_GET_PLL_OSCSOURCE() != RCC_PLLSOURCE_NONE)
 80026b6:	4b45      	ldr	r3, [pc, #276]	; (80027cc <RCCEx_PLLSAI1_Config+0x118>)
 80026b8:	68da      	ldr	r2, [r3, #12]
 80026ba:	f012 0f03 	tst.w	r2, #3
{
 80026be:	4605      	mov	r5, r0
 80026c0:	460e      	mov	r6, r1
 80026c2:	461c      	mov	r4, r3
 80026c4:	6800      	ldr	r0, [r0, #0]
  if(__HAL_RCC_GET_PLL_OSCSOURCE() != RCC_PLLSOURCE_NONE)
 80026c6:	d02a      	beq.n	800271e <RCCEx_PLLSAI1_Config+0x6a>
  {
    /* PLL clock source and divider M already set, check that no request for change  */
    if((__HAL_RCC_GET_PLL_OSCSOURCE() != PllSai1->PLLSAI1Source)
 80026c8:	68da      	ldr	r2, [r3, #12]
 80026ca:	f002 0203 	and.w	r2, r2, #3
 80026ce:	4282      	cmp	r2, r0
 80026d0:	d13c      	bne.n	800274c <RCCEx_PLLSAI1_Config+0x98>
       ||
 80026d2:	2a00      	cmp	r2, #0
 80026d4:	d03a      	beq.n	800274c <RCCEx_PLLSAI1_Config+0x98>
       (PllSai1->PLLSAI1Source == RCC_PLLSOURCE_NONE)
#if !defined(RCC_PLLSAI1M_DIV_1_16_SUPPORT)
       ||
       (((READ_BIT(RCC->PLLCFGR, RCC_PLLCFGR_PLLM) >> RCC_PLLCFGR_PLLM_Pos) + 1U) != PllSai1->PLLSAI1M)
 80026d6:	68db      	ldr	r3, [r3, #12]
       ||
 80026d8:	686a      	ldr	r2, [r5, #4]
       (((READ_BIT(RCC->PLLCFGR, RCC_PLLCFGR_PLLM) >> RCC_PLLCFGR_PLLM_Pos) + 1U) != PllSai1->PLLSAI1M)
 80026da:	f3c3 1302 	ubfx	r3, r3, #4, #3
 80026de:	3301      	adds	r3, #1
       ||
 80026e0:	4293      	cmp	r3, r2
 80026e2:	d133      	bne.n	800274c <RCCEx_PLLSAI1_Config+0x98>
  }

  if(status == HAL_OK)
  {
    /* Disable the PLLSAI1 */
    __HAL_RCC_PLLSAI1_DISABLE();
 80026e4:	6823      	ldr	r3, [r4, #0]
 80026e6:	f023 6380 	bic.w	r3, r3, #67108864	; 0x4000000
 80026ea:	6023      	str	r3, [r4, #0]

    /* Get Start Tick*/
    tickstart = HAL_GetTick();
 80026ec:	f7fd ff7e 	bl	80005ec <HAL_GetTick>
 80026f0:	4607      	mov	r7, r0

    /* Wait till PLLSAI1 is ready to be updated */
    while(READ_BIT(RCC->CR, RCC_CR_PLLSAI1RDY) != 0U)
 80026f2:	6823      	ldr	r3, [r4, #0]
 80026f4:	011a      	lsls	r2, r3, #4
 80026f6:	d432      	bmi.n	800275e <RCCEx_PLLSAI1_Config+0xaa>
 80026f8:	68af      	ldr	r7, [r5, #8]
      }
    }

    if(status == HAL_OK)
    {
      if(Divider == DIVIDER_P_UPDATE)
 80026fa:	2e00      	cmp	r6, #0
 80026fc:	d036      	beq.n	800276c <RCCEx_PLLSAI1_Config+0xb8>
                   ((PllSai1->PLLSAI1P >> 4U) << RCC_PLLSAI1CFGR_PLLSAI1P_Pos));
#endif /* RCC_PLLSAI1P_DIV_2_31_SUPPORT */

#endif /* RCC_PLLSAI1M_DIV_1_16_SUPPORT */
      }
      else if(Divider == DIVIDER_Q_UPDATE)
 80026fe:	2e01      	cmp	r6, #1
 8002700:	d150      	bne.n	80027a4 <RCCEx_PLLSAI1_Config+0xf0>
                   (PllSai1->PLLSAI1N << RCC_PLLSAI1CFGR_PLLSAI1N_Pos) |
                   (((PllSai1->PLLSAI1Q >> 1U) - 1U) << RCC_PLLSAI1CFGR_PLLSAI1Q_Pos) |
                   ((PllSai1->PLLSAI1M - 1U) << RCC_PLLSAI1CFGR_PLLSAI1M_Pos));
#else
        /* Configure the PLLSAI1 Division factor Q and Multiplication factor N*/
        MODIFY_REG(RCC->PLLSAI1CFGR,
 8002702:	6922      	ldr	r2, [r4, #16]
 8002704:	6928      	ldr	r0, [r5, #16]
 8002706:	f422 02c0 	bic.w	r2, r2, #6291456	; 0x600000
 800270a:	0840      	lsrs	r0, r0, #1
 800270c:	f422 42fe 	bic.w	r2, r2, #32512	; 0x7f00
 8002710:	3801      	subs	r0, #1
 8002712:	ea42 2207 	orr.w	r2, r2, r7, lsl #8
 8002716:	ea42 5240 	orr.w	r2, r2, r0, lsl #21
 800271a:	6122      	str	r2, [r4, #16]
 800271c:	e032      	b.n	8002784 <RCCEx_PLLSAI1_Config+0xd0>
    switch(PllSai1->PLLSAI1Source)
 800271e:	2802      	cmp	r0, #2
 8002720:	d010      	beq.n	8002744 <RCCEx_PLLSAI1_Config+0x90>
 8002722:	2803      	cmp	r0, #3
 8002724:	d014      	beq.n	8002750 <RCCEx_PLLSAI1_Config+0x9c>
 8002726:	2801      	cmp	r0, #1
 8002728:	d110      	bne.n	800274c <RCCEx_PLLSAI1_Config+0x98>
      if(HAL_IS_BIT_CLR(RCC->CR, RCC_CR_MSIRDY))
 800272a:	681b      	ldr	r3, [r3, #0]
 800272c:	079f      	lsls	r7, r3, #30
 800272e:	d538      	bpl.n	80027a2 <RCCEx_PLLSAI1_Config+0xee>
      MODIFY_REG(RCC->PLLCFGR, RCC_PLLCFGR_PLLSRC | RCC_PLLCFGR_PLLM, PllSai1->PLLSAI1Source | (PllSai1->PLLSAI1M - 1U) << RCC_PLLCFGR_PLLM_Pos);
 8002730:	68e3      	ldr	r3, [r4, #12]
 8002732:	686a      	ldr	r2, [r5, #4]
 8002734:	f023 0373 	bic.w	r3, r3, #115	; 0x73
 8002738:	3a01      	subs	r2, #1
 800273a:	4318      	orrs	r0, r3
 800273c:	ea40 1002 	orr.w	r0, r0, r2, lsl #4
 8002740:	60e0      	str	r0, [r4, #12]
 8002742:	e7cf      	b.n	80026e4 <RCCEx_PLLSAI1_Config+0x30>
      if(HAL_IS_BIT_CLR(RCC->CR, RCC_CR_HSIRDY))
 8002744:	681b      	ldr	r3, [r3, #0]
 8002746:	f413 6f80 	tst.w	r3, #1024	; 0x400
        if(HAL_IS_BIT_CLR(RCC->CR, RCC_CR_HSEBYP))
 800274a:	d1f1      	bne.n	8002730 <RCCEx_PLLSAI1_Config+0x7c>
 800274c:	2001      	movs	r0, #1
 800274e:	bdf8      	pop	{r3, r4, r5, r6, r7, pc}
      if(HAL_IS_BIT_CLR(RCC->CR, RCC_CR_HSERDY))
 8002750:	681a      	ldr	r2, [r3, #0]
 8002752:	0391      	lsls	r1, r2, #14
 8002754:	d4ec      	bmi.n	8002730 <RCCEx_PLLSAI1_Config+0x7c>
        if(HAL_IS_BIT_CLR(RCC->CR, RCC_CR_HSEBYP))
 8002756:	681b      	ldr	r3, [r3, #0]
 8002758:	f413 2f80 	tst.w	r3, #262144	; 0x40000
 800275c:	e7f5      	b.n	800274a <RCCEx_PLLSAI1_Config+0x96>
      if((HAL_GetTick() - tickstart) > PLLSAI1_TIMEOUT_VALUE)
 800275e:	f7fd ff45 	bl	80005ec <HAL_GetTick>
 8002762:	1bc0      	subs	r0, r0, r7
 8002764:	2802      	cmp	r0, #2
 8002766:	d9c4      	bls.n	80026f2 <RCCEx_PLLSAI1_Config+0x3e>
        status = HAL_TIMEOUT;
 8002768:	2003      	movs	r0, #3
 800276a:	bdf8      	pop	{r3, r4, r5, r6, r7, pc}
        MODIFY_REG(RCC->PLLSAI1CFGR,
 800276c:	6921      	ldr	r1, [r4, #16]
 800276e:	68eb      	ldr	r3, [r5, #12]
 8002770:	f421 311f 	bic.w	r1, r1, #162816	; 0x27c00
 8002774:	f421 7140 	bic.w	r1, r1, #768	; 0x300
 8002778:	ea41 2107 	orr.w	r1, r1, r7, lsl #8
 800277c:	091b      	lsrs	r3, r3, #4
 800277e:	ea41 4143 	orr.w	r1, r1, r3, lsl #17
 8002782:	6121      	str	r1, [r4, #16]
                   (((PllSai1->PLLSAI1R >> 1U) - 1U) << RCC_PLLSAI1CFGR_PLLSAI1R_Pos));
#endif /* RCC_PLLSAI1M_DIV_1_16_SUPPORT */
      }

      /* Enable the PLLSAI1 again by setting PLLSAI1ON to 1*/
      __HAL_RCC_PLLSAI1_ENABLE();
 8002784:	6823      	ldr	r3, [r4, #0]
 8002786:	f043 6380 	orr.w	r3, r3, #67108864	; 0x4000000
 800278a:	6023      	str	r3, [r4, #0]

      /* Get Start Tick*/
      tickstart = HAL_GetTick();
 800278c:	f7fd ff2e 	bl	80005ec <HAL_GetTick>
 8002790:	4606      	mov	r6, r0

      /* Wait till PLLSAI1 is ready */
      while(READ_BIT(RCC->CR, RCC_CR_PLLSAI1RDY) == 0U)
 8002792:	6823      	ldr	r3, [r4, #0]
 8002794:	011b      	lsls	r3, r3, #4
 8002796:	d513      	bpl.n	80027c0 <RCCEx_PLLSAI1_Config+0x10c>
      }

      if(status == HAL_OK)
      {
        /* Configure the PLLSAI1 Clock output(s) */
        __HAL_RCC_PLLSAI1CLKOUT_ENABLE(PllSai1->PLLSAI1ClockOut);
 8002798:	6923      	ldr	r3, [r4, #16]
 800279a:	69aa      	ldr	r2, [r5, #24]
 800279c:	4313      	orrs	r3, r2
 800279e:	6123      	str	r3, [r4, #16]
 80027a0:	2000      	movs	r0, #0
      }
    }
  }

  return status;
}
 80027a2:	bdf8      	pop	{r3, r4, r5, r6, r7, pc}
        MODIFY_REG(RCC->PLLSAI1CFGR,
 80027a4:	6923      	ldr	r3, [r4, #16]
 80027a6:	6968      	ldr	r0, [r5, #20]
 80027a8:	f023 63c0 	bic.w	r3, r3, #100663296	; 0x6000000
 80027ac:	0840      	lsrs	r0, r0, #1
 80027ae:	f423 43fe 	bic.w	r3, r3, #32512	; 0x7f00
 80027b2:	3801      	subs	r0, #1
 80027b4:	ea43 2307 	orr.w	r3, r3, r7, lsl #8
 80027b8:	ea43 6340 	orr.w	r3, r3, r0, lsl #25
 80027bc:	6123      	str	r3, [r4, #16]
 80027be:	e7e1      	b.n	8002784 <RCCEx_PLLSAI1_Config+0xd0>
        if((HAL_GetTick() - tickstart) > PLLSAI1_TIMEOUT_VALUE)
 80027c0:	f7fd ff14 	bl	80005ec <HAL_GetTick>
 80027c4:	1b80      	subs	r0, r0, r6
 80027c6:	2802      	cmp	r0, #2
 80027c8:	d9e3      	bls.n	8002792 <RCCEx_PLLSAI1_Config+0xde>
 80027ca:	e7cd      	b.n	8002768 <RCCEx_PLLSAI1_Config+0xb4>
 80027cc:	40021000 	.word	0x40021000

080027d0 <RCCEx_PLLSAI2_Config>:
  * @note   PLLSAI2 is temporary disable to apply new parameters
  *
  * @retval HAL status
  */
static HAL_StatusTypeDef RCCEx_PLLSAI2_Config(RCC_PLLSAI2InitTypeDef *PllSai2, uint32_t Divider)
{
 80027d0:	b5f8      	push	{r3, r4, r5, r6, r7, lr}
  assert_param(IS_RCC_PLLSAI2M_VALUE(PllSai2->PLLSAI2M));
  assert_param(IS_RCC_PLLSAI2N_VALUE(PllSai2->PLLSAI2N));
  assert_param(IS_RCC_PLLSAI2CLOCKOUT_VALUE(PllSai2->PLLSAI2ClockOut));

  /* Check that PLLSAI2 clock source and divider M can be applied */
  if(__HAL_RCC_GET_PLL_OSCSOURCE() != RCC_PLLSOURCE_NONE)
 80027d2:	4b3d      	ldr	r3, [pc, #244]	; (80028c8 <RCCEx_PLLSAI2_Config+0xf8>)
 80027d4:	68da      	ldr	r2, [r3, #12]
 80027d6:	f012 0f03 	tst.w	r2, #3
{
 80027da:	4605      	mov	r5, r0
 80027dc:	460e      	mov	r6, r1
 80027de:	461c      	mov	r4, r3
 80027e0:	6800      	ldr	r0, [r0, #0]
  if(__HAL_RCC_GET_PLL_OSCSOURCE() != RCC_PLLSOURCE_NONE)
 80027e2:	d028      	beq.n	8002836 <RCCEx_PLLSAI2_Config+0x66>
  {
    /* PLL clock source and divider M already set, check that no request for change  */
    if((__HAL_RCC_GET_PLL_OSCSOURCE() != PllSai2->PLLSAI2Source)
 80027e4:	68da      	ldr	r2, [r3, #12]
 80027e6:	f002 0203 	and.w	r2, r2, #3
 80027ea:	4282      	cmp	r2, r0
 80027ec:	d13a      	bne.n	8002864 <RCCEx_PLLSAI2_Config+0x94>
       ||
 80027ee:	2a00      	cmp	r2, #0
 80027f0:	d038      	beq.n	8002864 <RCCEx_PLLSAI2_Config+0x94>
       (PllSai2->PLLSAI2Source == RCC_PLLSOURCE_NONE)
#if !defined(RCC_PLLSAI2M_DIV_1_16_SUPPORT)
       ||
       (((READ_BIT(RCC->PLLCFGR, RCC_PLLCFGR_PLLM) >> RCC_PLLCFGR_PLLM_Pos) + 1U) != PllSai2->PLLSAI2M)
 80027f2:	68db      	ldr	r3, [r3, #12]
       ||
 80027f4:	686a      	ldr	r2, [r5, #4]
       (((READ_BIT(RCC->PLLCFGR, RCC_PLLCFGR_PLLM) >> RCC_PLLCFGR_PLLM_Pos) + 1U) != PllSai2->PLLSAI2M)
 80027f6:	f3c3 1302 	ubfx	r3, r3, #4, #3
 80027fa:	3301      	adds	r3, #1
       ||
 80027fc:	4293      	cmp	r3, r2
 80027fe:	d131      	bne.n	8002864 <RCCEx_PLLSAI2_Config+0x94>
  }

  if(status == HAL_OK)
  {
    /* Disable the PLLSAI2 */
    __HAL_RCC_PLLSAI2_DISABLE();
 8002800:	6823      	ldr	r3, [r4, #0]
 8002802:	f023 5380 	bic.w	r3, r3, #268435456	; 0x10000000
 8002806:	6023      	str	r3, [r4, #0]

    /* Get Start Tick*/
    tickstart = HAL_GetTick();
 8002808:	f7fd fef0 	bl	80005ec <HAL_GetTick>
 800280c:	4607      	mov	r7, r0

    /* Wait till PLLSAI2 is ready to be updated */
    while(READ_BIT(RCC->CR, RCC_CR_PLLSAI2RDY) != 0U)
 800280e:	6823      	ldr	r3, [r4, #0]
 8002810:	009a      	lsls	r2, r3, #2
 8002812:	d430      	bmi.n	8002876 <RCCEx_PLLSAI2_Config+0xa6>
 8002814:	68a8      	ldr	r0, [r5, #8]
      }
    }

    if(status == HAL_OK)
    {
      if(Divider == DIVIDER_P_UPDATE)
 8002816:	2e00      	cmp	r6, #0
 8002818:	d034      	beq.n	8002884 <RCCEx_PLLSAI2_Config+0xb4>
                   (PllSai2->PLLSAI2N << RCC_PLLSAI2CFGR_PLLSAI2N_Pos) |
                   (((PllSai2->PLLSAI2R >> 1U) - 1U) << RCC_PLLSAI2CFGR_PLLSAI2R_Pos) |
                   ((PllSai2->PLLSAI2M - 1U) << RCC_PLLSAI2CFGR_PLLSAI2M_Pos));
#else
        /* Configure the PLLSAI2 Division factor R and Multiplication factor N*/
        MODIFY_REG(RCC->PLLSAI2CFGR,
 800281a:	6963      	ldr	r3, [r4, #20]
 800281c:	6929      	ldr	r1, [r5, #16]
 800281e:	f023 63c0 	bic.w	r3, r3, #100663296	; 0x6000000
 8002822:	0849      	lsrs	r1, r1, #1
 8002824:	f423 43fe 	bic.w	r3, r3, #32512	; 0x7f00
 8002828:	3901      	subs	r1, #1
 800282a:	ea43 2300 	orr.w	r3, r3, r0, lsl #8
 800282e:	ea43 6341 	orr.w	r3, r3, r1, lsl #25
 8002832:	6163      	str	r3, [r4, #20]
 8002834:	e032      	b.n	800289c <RCCEx_PLLSAI2_Config+0xcc>
    switch(PllSai2->PLLSAI2Source)
 8002836:	2802      	cmp	r0, #2
 8002838:	d010      	beq.n	800285c <RCCEx_PLLSAI2_Config+0x8c>
 800283a:	2803      	cmp	r0, #3
 800283c:	d014      	beq.n	8002868 <RCCEx_PLLSAI2_Config+0x98>
 800283e:	2801      	cmp	r0, #1
 8002840:	d110      	bne.n	8002864 <RCCEx_PLLSAI2_Config+0x94>
      if(HAL_IS_BIT_CLR(RCC->CR, RCC_CR_MSIRDY))
 8002842:	681b      	ldr	r3, [r3, #0]
 8002844:	079f      	lsls	r7, r3, #30
 8002846:	d538      	bpl.n	80028ba <RCCEx_PLLSAI2_Config+0xea>
      MODIFY_REG(RCC->PLLCFGR, RCC_PLLCFGR_PLLSRC | RCC_PLLCFGR_PLLM, PllSai2->PLLSAI2Source | (PllSai2->PLLSAI2M - 1U) << RCC_PLLCFGR_PLLM_Pos);
 8002848:	68e3      	ldr	r3, [r4, #12]
 800284a:	686a      	ldr	r2, [r5, #4]
 800284c:	f023 0373 	bic.w	r3, r3, #115	; 0x73
 8002850:	3a01      	subs	r2, #1
 8002852:	4318      	orrs	r0, r3
 8002854:	ea40 1002 	orr.w	r0, r0, r2, lsl #4
 8002858:	60e0      	str	r0, [r4, #12]
 800285a:	e7d1      	b.n	8002800 <RCCEx_PLLSAI2_Config+0x30>
      if(HAL_IS_BIT_CLR(RCC->CR, RCC_CR_HSIRDY))
 800285c:	681b      	ldr	r3, [r3, #0]
 800285e:	f413 6f80 	tst.w	r3, #1024	; 0x400
        if(HAL_IS_BIT_CLR(RCC->CR, RCC_CR_HSEBYP))
 8002862:	d1f1      	bne.n	8002848 <RCCEx_PLLSAI2_Config+0x78>
 8002864:	2001      	movs	r0, #1
 8002866:	bdf8      	pop	{r3, r4, r5, r6, r7, pc}
      if(HAL_IS_BIT_CLR(RCC->CR, RCC_CR_HSERDY))
 8002868:	681a      	ldr	r2, [r3, #0]
 800286a:	0391      	lsls	r1, r2, #14
 800286c:	d4ec      	bmi.n	8002848 <RCCEx_PLLSAI2_Config+0x78>
        if(HAL_IS_BIT_CLR(RCC->CR, RCC_CR_HSEBYP))
 800286e:	681b      	ldr	r3, [r3, #0]
 8002870:	f413 2f80 	tst.w	r3, #262144	; 0x40000
 8002874:	e7f5      	b.n	8002862 <RCCEx_PLLSAI2_Config+0x92>
      if((HAL_GetTick() - tickstart) > PLLSAI2_TIMEOUT_VALUE)
 8002876:	f7fd feb9 	bl	80005ec <HAL_GetTick>
 800287a:	1bc0      	subs	r0, r0, r7
 800287c:	2802      	cmp	r0, #2
 800287e:	d9c6      	bls.n	800280e <RCCEx_PLLSAI2_Config+0x3e>
        status = HAL_TIMEOUT;
 8002880:	2003      	movs	r0, #3
 8002882:	bdf8      	pop	{r3, r4, r5, r6, r7, pc}
        MODIFY_REG(RCC->PLLSAI2CFGR,
 8002884:	6962      	ldr	r2, [r4, #20]
 8002886:	68eb      	ldr	r3, [r5, #12]
 8002888:	f422 321f 	bic.w	r2, r2, #162816	; 0x27c00
 800288c:	f422 7240 	bic.w	r2, r2, #768	; 0x300
 8002890:	ea42 2200 	orr.w	r2, r2, r0, lsl #8
 8002894:	091b      	lsrs	r3, r3, #4
 8002896:	ea42 4243 	orr.w	r2, r2, r3, lsl #17
 800289a:	6162      	str	r2, [r4, #20]
                   (((PllSai2->PLLSAI2R >> 1U) - 1U) << RCC_PLLSAI2CFGR_PLLSAI2R_Pos));
#endif /* RCC_PLLSAI2M_DIV_1_16_SUPPORT */
      }

      /* Enable the PLLSAI2 again by setting PLLSAI2ON to 1*/
      __HAL_RCC_PLLSAI2_ENABLE();
 800289c:	6823      	ldr	r3, [r4, #0]
 800289e:	f043 5380 	orr.w	r3, r3, #268435456	; 0x10000000
 80028a2:	6023      	str	r3, [r4, #0]

      /* Get Start Tick*/
      tickstart = HAL_GetTick();
 80028a4:	f7fd fea2 	bl	80005ec <HAL_GetTick>
 80028a8:	4606      	mov	r6, r0

      /* Wait till PLLSAI2 is ready */
      while(READ_BIT(RCC->CR, RCC_CR_PLLSAI2RDY) == 0U)
 80028aa:	6823      	ldr	r3, [r4, #0]
 80028ac:	009b      	lsls	r3, r3, #2
 80028ae:	d505      	bpl.n	80028bc <RCCEx_PLLSAI2_Config+0xec>
      }

      if(status == HAL_OK)
      {
        /* Configure the PLLSAI2 Clock output(s) */
        __HAL_RCC_PLLSAI2CLKOUT_ENABLE(PllSai2->PLLSAI2ClockOut);
 80028b0:	6963      	ldr	r3, [r4, #20]
 80028b2:	696a      	ldr	r2, [r5, #20]
 80028b4:	4313      	orrs	r3, r2
 80028b6:	6163      	str	r3, [r4, #20]
 80028b8:	2000      	movs	r0, #0
      }
    }
  }

  return status;
}
 80028ba:	bdf8      	pop	{r3, r4, r5, r6, r7, pc}
        if((HAL_GetTick() - tickstart) > PLLSAI2_TIMEOUT_VALUE)
 80028bc:	f7fd fe96 	bl	80005ec <HAL_GetTick>
 80028c0:	1b80      	subs	r0, r0, r6
 80028c2:	2802      	cmp	r0, #2
 80028c4:	d9f1      	bls.n	80028aa <RCCEx_PLLSAI2_Config+0xda>
 80028c6:	e7db      	b.n	8002880 <RCCEx_PLLSAI2_Config+0xb0>
 80028c8:	40021000 	.word	0x40021000

080028cc <HAL_RCCEx_PeriphCLKConfig>:
{
 80028cc:	e92d 47f3 	stmdb	sp!, {r0, r1, r4, r5, r6, r7, r8, r9, sl, lr}
  if((((PeriphClkInit->PeriphClockSelection) & RCC_PERIPHCLK_SAI1) == RCC_PERIPHCLK_SAI1))
 80028d0:	6806      	ldr	r6, [r0, #0]
 80028d2:	f416 6600 	ands.w	r6, r6, #2048	; 0x800
{
 80028d6:	4604      	mov	r4, r0
  if((((PeriphClkInit->PeriphClockSelection) & RCC_PERIPHCLK_SAI1) == RCC_PERIPHCLK_SAI1))
 80028d8:	d024      	beq.n	8002924 <HAL_RCCEx_PeriphCLKConfig+0x58>
    switch(PeriphClkInit->Sai1ClockSelection)
 80028da:	6e41      	ldr	r1, [r0, #100]	; 0x64
 80028dc:	f5b1 0f80 	cmp.w	r1, #4194304	; 0x400000
 80028e0:	d02c      	beq.n	800293c <HAL_RCCEx_PeriphCLKConfig+0x70>
 80028e2:	d802      	bhi.n	80028ea <HAL_RCCEx_PeriphCLKConfig+0x1e>
 80028e4:	b1c1      	cbz	r1, 8002918 <HAL_RCCEx_PeriphCLKConfig+0x4c>
      ret = HAL_ERROR;
 80028e6:	2601      	movs	r6, #1
 80028e8:	e01c      	b.n	8002924 <HAL_RCCEx_PeriphCLKConfig+0x58>
    switch(PeriphClkInit->Sai1ClockSelection)
 80028ea:	f5b1 0f00 	cmp.w	r1, #8388608	; 0x800000
 80028ee:	d00d      	beq.n	800290c <HAL_RCCEx_PeriphCLKConfig+0x40>
 80028f0:	f5b1 0f40 	cmp.w	r1, #12582912	; 0xc00000
 80028f4:	d1f7      	bne.n	80028e6 <HAL_RCCEx_PeriphCLKConfig+0x1a>
      __HAL_RCC_SAI1_CONFIG(PeriphClkInit->Sai1ClockSelection);
 80028f6:	4a4d      	ldr	r2, [pc, #308]	; (8002a2c <HAL_RCCEx_PeriphCLKConfig+0x160>)
 80028f8:	6e61      	ldr	r1, [r4, #100]	; 0x64
 80028fa:	f8d2 3088 	ldr.w	r3, [r2, #136]	; 0x88
 80028fe:	f423 0340 	bic.w	r3, r3, #12582912	; 0xc00000
 8002902:	430b      	orrs	r3, r1
 8002904:	f8c2 3088 	str.w	r3, [r2, #136]	; 0x88
 8002908:	2600      	movs	r6, #0
 800290a:	e00b      	b.n	8002924 <HAL_RCCEx_PeriphCLKConfig+0x58>
      __HAL_RCC_PLLCLKOUT_ENABLE(RCC_PLL_SAI3CLK);
 800290c:	4a47      	ldr	r2, [pc, #284]	; (8002a2c <HAL_RCCEx_PeriphCLKConfig+0x160>)
 800290e:	68d3      	ldr	r3, [r2, #12]
 8002910:	f443 3380 	orr.w	r3, r3, #65536	; 0x10000
 8002914:	60d3      	str	r3, [r2, #12]
      break;
 8002916:	e7ee      	b.n	80028f6 <HAL_RCCEx_PeriphCLKConfig+0x2a>
      ret = RCCEx_PLLSAI1_Config(&(PeriphClkInit->PLLSAI1), DIVIDER_P_UPDATE);
 8002918:	3004      	adds	r0, #4
 800291a:	f7ff fecb 	bl	80026b4 <RCCEx_PLLSAI1_Config>
      ret = RCCEx_PLLSAI2_Config(&(PeriphClkInit->PLLSAI2), DIVIDER_P_UPDATE);
 800291e:	4606      	mov	r6, r0
    if(ret == HAL_OK)
 8002920:	2800      	cmp	r0, #0
 8002922:	d0e8      	beq.n	80028f6 <HAL_RCCEx_PeriphCLKConfig+0x2a>
  if((((PeriphClkInit->PeriphClockSelection) & RCC_PERIPHCLK_SAI2) == RCC_PERIPHCLK_SAI2))
 8002924:	6823      	ldr	r3, [r4, #0]
 8002926:	04d8      	lsls	r0, r3, #19
 8002928:	d506      	bpl.n	8002938 <HAL_RCCEx_PeriphCLKConfig+0x6c>
    switch(PeriphClkInit->Sai2ClockSelection)
 800292a:	6ea1      	ldr	r1, [r4, #104]	; 0x68
 800292c:	f1b1 7f80 	cmp.w	r1, #16777216	; 0x1000000
 8002930:	d074      	beq.n	8002a1c <HAL_RCCEx_PeriphCLKConfig+0x150>
 8002932:	d808      	bhi.n	8002946 <HAL_RCCEx_PeriphCLKConfig+0x7a>
 8002934:	b1a9      	cbz	r1, 8002962 <HAL_RCCEx_PeriphCLKConfig+0x96>
      ret = HAL_ERROR;
 8002936:	2601      	movs	r6, #1
 8002938:	4635      	mov	r5, r6
 800293a:	e021      	b.n	8002980 <HAL_RCCEx_PeriphCLKConfig+0xb4>
      ret = RCCEx_PLLSAI2_Config(&(PeriphClkInit->PLLSAI2), DIVIDER_P_UPDATE);
 800293c:	2100      	movs	r1, #0
 800293e:	3020      	adds	r0, #32
 8002940:	f7ff ff46 	bl	80027d0 <RCCEx_PLLSAI2_Config>
 8002944:	e7eb      	b.n	800291e <HAL_RCCEx_PeriphCLKConfig+0x52>
    switch(PeriphClkInit->Sai2ClockSelection)
 8002946:	f1b1 7f00 	cmp.w	r1, #33554432	; 0x2000000
 800294a:	d004      	beq.n	8002956 <HAL_RCCEx_PeriphCLKConfig+0x8a>
 800294c:	f1b1 7f40 	cmp.w	r1, #50331648	; 0x3000000
 8002950:	d1f1      	bne.n	8002936 <HAL_RCCEx_PeriphCLKConfig+0x6a>
 8002952:	4635      	mov	r5, r6
 8002954:	e009      	b.n	800296a <HAL_RCCEx_PeriphCLKConfig+0x9e>
      __HAL_RCC_PLLCLKOUT_ENABLE(RCC_PLL_SAI3CLK);
 8002956:	4a35      	ldr	r2, [pc, #212]	; (8002a2c <HAL_RCCEx_PeriphCLKConfig+0x160>)
 8002958:	68d3      	ldr	r3, [r2, #12]
 800295a:	f443 3380 	orr.w	r3, r3, #65536	; 0x10000
 800295e:	60d3      	str	r3, [r2, #12]
 8002960:	e7f7      	b.n	8002952 <HAL_RCCEx_PeriphCLKConfig+0x86>
      ret = RCCEx_PLLSAI1_Config(&(PeriphClkInit->PLLSAI1), DIVIDER_P_UPDATE);
 8002962:	1d20      	adds	r0, r4, #4
 8002964:	f7ff fea6 	bl	80026b4 <RCCEx_PLLSAI1_Config>
      ret = RCCEx_PLLSAI2_Config(&(PeriphClkInit->PLLSAI2), DIVIDER_P_UPDATE);
 8002968:	4605      	mov	r5, r0
    if(ret == HAL_OK)
 800296a:	2d00      	cmp	r5, #0
 800296c:	d15c      	bne.n	8002a28 <HAL_RCCEx_PeriphCLKConfig+0x15c>
      __HAL_RCC_SAI2_CONFIG(PeriphClkInit->Sai2ClockSelection);
 800296e:	4a2f      	ldr	r2, [pc, #188]	; (8002a2c <HAL_RCCEx_PeriphCLKConfig+0x160>)
 8002970:	6ea1      	ldr	r1, [r4, #104]	; 0x68
 8002972:	f8d2 3088 	ldr.w	r3, [r2, #136]	; 0x88
 8002976:	f023 7340 	bic.w	r3, r3, #50331648	; 0x3000000
 800297a:	430b      	orrs	r3, r1
 800297c:	f8c2 3088 	str.w	r3, [r2, #136]	; 0x88
  if((PeriphClkInit->PeriphClockSelection & RCC_PERIPHCLK_RTC) == RCC_PERIPHCLK_RTC)
 8002980:	6823      	ldr	r3, [r4, #0]
 8002982:	0399      	lsls	r1, r3, #14
 8002984:	f140 814f 	bpl.w	8002c26 <HAL_RCCEx_PeriphCLKConfig+0x35a>
    if(__HAL_RCC_PWR_IS_CLK_DISABLED() != 0U)
 8002988:	4f28      	ldr	r7, [pc, #160]	; (8002a2c <HAL_RCCEx_PeriphCLKConfig+0x160>)
 800298a:	6dbb      	ldr	r3, [r7, #88]	; 0x58
 800298c:	00da      	lsls	r2, r3, #3
 800298e:	f140 8176 	bpl.w	8002c7e <HAL_RCCEx_PeriphCLKConfig+0x3b2>
    FlagStatus       pwrclkchanged = RESET;
 8002992:	f04f 0800 	mov.w	r8, #0
    SET_BIT(PWR->CR1, PWR_CR1_DBP);
 8002996:	f8df 9098 	ldr.w	r9, [pc, #152]	; 8002a30 <HAL_RCCEx_PeriphCLKConfig+0x164>
 800299a:	f8d9 3000 	ldr.w	r3, [r9]
 800299e:	f443 7380 	orr.w	r3, r3, #256	; 0x100
 80029a2:	f8c9 3000 	str.w	r3, [r9]
    tickstart = HAL_GetTick();
 80029a6:	f7fd fe21 	bl	80005ec <HAL_GetTick>
 80029aa:	4682      	mov	sl, r0
    while(READ_BIT(PWR->CR1, PWR_CR1_DBP) == 0U)
 80029ac:	f8d9 3000 	ldr.w	r3, [r9]
 80029b0:	05db      	lsls	r3, r3, #23
 80029b2:	d53f      	bpl.n	8002a34 <HAL_RCCEx_PeriphCLKConfig+0x168>
    if(ret == HAL_OK)
 80029b4:	2d00      	cmp	r5, #0
 80029b6:	d144      	bne.n	8002a42 <HAL_RCCEx_PeriphCLKConfig+0x176>
      tmpregister = READ_BIT(RCC->BDCR, RCC_BDCR_RTCSEL);
 80029b8:	f8d7 3090 	ldr.w	r3, [r7, #144]	; 0x90
      if((tmpregister != RCC_RTCCLKSOURCE_NONE) && (tmpregister != PeriphClkInit->RTCClockSelection))
 80029bc:	f413 7340 	ands.w	r3, r3, #768	; 0x300
 80029c0:	d015      	beq.n	80029ee <HAL_RCCEx_PeriphCLKConfig+0x122>
 80029c2:	f8d4 2084 	ldr.w	r2, [r4, #132]	; 0x84
 80029c6:	4293      	cmp	r3, r2
 80029c8:	d011      	beq.n	80029ee <HAL_RCCEx_PeriphCLKConfig+0x122>
        tmpregister = READ_BIT(RCC->BDCR, ~(RCC_BDCR_RTCSEL));
 80029ca:	f8d7 3090 	ldr.w	r3, [r7, #144]	; 0x90
        __HAL_RCC_BACKUPRESET_FORCE();
 80029ce:	f8d7 2090 	ldr.w	r2, [r7, #144]	; 0x90
 80029d2:	f442 3280 	orr.w	r2, r2, #65536	; 0x10000
 80029d6:	f8c7 2090 	str.w	r2, [r7, #144]	; 0x90
        __HAL_RCC_BACKUPRESET_RELEASE();
 80029da:	f8d7 2090 	ldr.w	r2, [r7, #144]	; 0x90
        tmpregister = READ_BIT(RCC->BDCR, ~(RCC_BDCR_RTCSEL));
 80029de:	f423 7340 	bic.w	r3, r3, #768	; 0x300
        __HAL_RCC_BACKUPRESET_RELEASE();
 80029e2:	f422 3280 	bic.w	r2, r2, #65536	; 0x10000
 80029e6:	f8c7 2090 	str.w	r2, [r7, #144]	; 0x90
        RCC->BDCR = tmpregister;
 80029ea:	f8c7 3090 	str.w	r3, [r7, #144]	; 0x90
      if (HAL_IS_BIT_SET(tmpregister, RCC_BDCR_LSEON))
 80029ee:	07d8      	lsls	r0, r3, #31
 80029f0:	d509      	bpl.n	8002a06 <HAL_RCCEx_PeriphCLKConfig+0x13a>
        tickstart = HAL_GetTick();
 80029f2:	f7fd fdfb 	bl	80005ec <HAL_GetTick>
          if((HAL_GetTick() - tickstart) > RCC_LSE_TIMEOUT_VALUE)
 80029f6:	f241 3988 	movw	r9, #5000	; 0x1388
        tickstart = HAL_GetTick();
 80029fa:	4605      	mov	r5, r0
        while(READ_BIT(RCC->BDCR, RCC_BDCR_LSERDY) == 0U)
 80029fc:	f8d7 3090 	ldr.w	r3, [r7, #144]	; 0x90
 8002a00:	0799      	lsls	r1, r3, #30
 8002a02:	f140 8109 	bpl.w	8002c18 <HAL_RCCEx_PeriphCLKConfig+0x34c>
        __HAL_RCC_RTC_CONFIG(PeriphClkInit->RTCClockSelection);
 8002a06:	f8d7 3090 	ldr.w	r3, [r7, #144]	; 0x90
 8002a0a:	f8d4 2084 	ldr.w	r2, [r4, #132]	; 0x84
 8002a0e:	f423 7340 	bic.w	r3, r3, #768	; 0x300
 8002a12:	4313      	orrs	r3, r2
 8002a14:	f8c7 3090 	str.w	r3, [r7, #144]	; 0x90
 8002a18:	4635      	mov	r5, r6
 8002a1a:	e012      	b.n	8002a42 <HAL_RCCEx_PeriphCLKConfig+0x176>
      ret = RCCEx_PLLSAI2_Config(&(PeriphClkInit->PLLSAI2), DIVIDER_P_UPDATE);
 8002a1c:	2100      	movs	r1, #0
 8002a1e:	f104 0020 	add.w	r0, r4, #32
 8002a22:	f7ff fed5 	bl	80027d0 <RCCEx_PLLSAI2_Config>
 8002a26:	e79f      	b.n	8002968 <HAL_RCCEx_PeriphCLKConfig+0x9c>
 8002a28:	462e      	mov	r6, r5
 8002a2a:	e7a9      	b.n	8002980 <HAL_RCCEx_PeriphCLKConfig+0xb4>
 8002a2c:	40021000 	.word	0x40021000
 8002a30:	40007000 	.word	0x40007000
      if((HAL_GetTick() - tickstart) > RCC_DBP_TIMEOUT_VALUE)
 8002a34:	f7fd fdda 	bl	80005ec <HAL_GetTick>
 8002a38:	eba0 000a 	sub.w	r0, r0, sl
 8002a3c:	2802      	cmp	r0, #2
 8002a3e:	d9b5      	bls.n	80029ac <HAL_RCCEx_PeriphCLKConfig+0xe0>
        ret = HAL_TIMEOUT;
 8002a40:	2503      	movs	r5, #3
    if(pwrclkchanged == SET)
 8002a42:	f1b8 0f00 	cmp.w	r8, #0
 8002a46:	d003      	beq.n	8002a50 <HAL_RCCEx_PeriphCLKConfig+0x184>
      __HAL_RCC_PWR_CLK_DISABLE();
 8002a48:	6dbb      	ldr	r3, [r7, #88]	; 0x58
 8002a4a:	f023 5380 	bic.w	r3, r3, #268435456	; 0x10000000
 8002a4e:	65bb      	str	r3, [r7, #88]	; 0x58
  if(((PeriphClkInit->PeriphClockSelection) & RCC_PERIPHCLK_USART1) == RCC_PERIPHCLK_USART1)
 8002a50:	6823      	ldr	r3, [r4, #0]
 8002a52:	07da      	lsls	r2, r3, #31
 8002a54:	d508      	bpl.n	8002a68 <HAL_RCCEx_PeriphCLKConfig+0x19c>
    __HAL_RCC_USART1_CONFIG(PeriphClkInit->Usart1ClockSelection);
 8002a56:	4990      	ldr	r1, [pc, #576]	; (8002c98 <HAL_RCCEx_PeriphCLKConfig+0x3cc>)
 8002a58:	6ba0      	ldr	r0, [r4, #56]	; 0x38
 8002a5a:	f8d1 2088 	ldr.w	r2, [r1, #136]	; 0x88
 8002a5e:	f022 0203 	bic.w	r2, r2, #3
 8002a62:	4302      	orrs	r2, r0
 8002a64:	f8c1 2088 	str.w	r2, [r1, #136]	; 0x88
  if(((PeriphClkInit->PeriphClockSelection) & RCC_PERIPHCLK_USART2) == RCC_PERIPHCLK_USART2)
 8002a68:	079f      	lsls	r7, r3, #30
 8002a6a:	d508      	bpl.n	8002a7e <HAL_RCCEx_PeriphCLKConfig+0x1b2>
    __HAL_RCC_USART2_CONFIG(PeriphClkInit->Usart2ClockSelection);
 8002a6c:	498a      	ldr	r1, [pc, #552]	; (8002c98 <HAL_RCCEx_PeriphCLKConfig+0x3cc>)
 8002a6e:	6be0      	ldr	r0, [r4, #60]	; 0x3c
 8002a70:	f8d1 2088 	ldr.w	r2, [r1, #136]	; 0x88
 8002a74:	f022 020c 	bic.w	r2, r2, #12
 8002a78:	4302      	orrs	r2, r0
 8002a7a:	f8c1 2088 	str.w	r2, [r1, #136]	; 0x88
  if(((PeriphClkInit->PeriphClockSelection) & RCC_PERIPHCLK_USART3) == RCC_PERIPHCLK_USART3)
 8002a7e:	075e      	lsls	r6, r3, #29
 8002a80:	d508      	bpl.n	8002a94 <HAL_RCCEx_PeriphCLKConfig+0x1c8>
    __HAL_RCC_USART3_CONFIG(PeriphClkInit->Usart3ClockSelection);
 8002a82:	4985      	ldr	r1, [pc, #532]	; (8002c98 <HAL_RCCEx_PeriphCLKConfig+0x3cc>)
 8002a84:	6c20      	ldr	r0, [r4, #64]	; 0x40
 8002a86:	f8d1 2088 	ldr.w	r2, [r1, #136]	; 0x88
 8002a8a:	f022 0230 	bic.w	r2, r2, #48	; 0x30
 8002a8e:	4302      	orrs	r2, r0
 8002a90:	f8c1 2088 	str.w	r2, [r1, #136]	; 0x88
  if(((PeriphClkInit->PeriphClockSelection) & RCC_PERIPHCLK_UART4) == RCC_PERIPHCLK_UART4)
 8002a94:	0718      	lsls	r0, r3, #28
 8002a96:	d508      	bpl.n	8002aaa <HAL_RCCEx_PeriphCLKConfig+0x1de>
    __HAL_RCC_UART4_CONFIG(PeriphClkInit->Uart4ClockSelection);
 8002a98:	497f      	ldr	r1, [pc, #508]	; (8002c98 <HAL_RCCEx_PeriphCLKConfig+0x3cc>)
 8002a9a:	6c60      	ldr	r0, [r4, #68]	; 0x44
 8002a9c:	f8d1 2088 	ldr.w	r2, [r1, #136]	; 0x88
 8002aa0:	f022 02c0 	bic.w	r2, r2, #192	; 0xc0
 8002aa4:	4302      	orrs	r2, r0
 8002aa6:	f8c1 2088 	str.w	r2, [r1, #136]	; 0x88
  if(((PeriphClkInit->PeriphClockSelection) & RCC_PERIPHCLK_UART5) == RCC_PERIPHCLK_UART5)
 8002aaa:	06d9      	lsls	r1, r3, #27
 8002aac:	d508      	bpl.n	8002ac0 <HAL_RCCEx_PeriphCLKConfig+0x1f4>
    __HAL_RCC_UART5_CONFIG(PeriphClkInit->Uart5ClockSelection);
 8002aae:	497a      	ldr	r1, [pc, #488]	; (8002c98 <HAL_RCCEx_PeriphCLKConfig+0x3cc>)
 8002ab0:	6ca0      	ldr	r0, [r4, #72]	; 0x48
 8002ab2:	f8d1 2088 	ldr.w	r2, [r1, #136]	; 0x88
 8002ab6:	f422 7240 	bic.w	r2, r2, #768	; 0x300
 8002aba:	4302      	orrs	r2, r0
 8002abc:	f8c1 2088 	str.w	r2, [r1, #136]	; 0x88
  if(((PeriphClkInit->PeriphClockSelection) & RCC_PERIPHCLK_LPUART1) == RCC_PERIPHCLK_LPUART1)
 8002ac0:	069a      	lsls	r2, r3, #26
 8002ac2:	d508      	bpl.n	8002ad6 <HAL_RCCEx_PeriphCLKConfig+0x20a>
    __HAL_RCC_LPUART1_CONFIG(PeriphClkInit->Lpuart1ClockSelection);
 8002ac4:	4974      	ldr	r1, [pc, #464]	; (8002c98 <HAL_RCCEx_PeriphCLKConfig+0x3cc>)
 8002ac6:	6ce0      	ldr	r0, [r4, #76]	; 0x4c
 8002ac8:	f8d1 2088 	ldr.w	r2, [r1, #136]	; 0x88
 8002acc:	f422 6240 	bic.w	r2, r2, #3072	; 0xc00
 8002ad0:	4302      	orrs	r2, r0
 8002ad2:	f8c1 2088 	str.w	r2, [r1, #136]	; 0x88
  if(((PeriphClkInit->PeriphClockSelection) & RCC_PERIPHCLK_LPTIM1) == (RCC_PERIPHCLK_LPTIM1))
 8002ad6:	059f      	lsls	r7, r3, #22
 8002ad8:	d508      	bpl.n	8002aec <HAL_RCCEx_PeriphCLKConfig+0x220>
    __HAL_RCC_LPTIM1_CONFIG(PeriphClkInit->Lptim1ClockSelection);
 8002ada:	496f      	ldr	r1, [pc, #444]	; (8002c98 <HAL_RCCEx_PeriphCLKConfig+0x3cc>)
 8002adc:	6de0      	ldr	r0, [r4, #92]	; 0x5c
 8002ade:	f8d1 2088 	ldr.w	r2, [r1, #136]	; 0x88
 8002ae2:	f422 2240 	bic.w	r2, r2, #786432	; 0xc0000
 8002ae6:	4302      	orrs	r2, r0
 8002ae8:	f8c1 2088 	str.w	r2, [r1, #136]	; 0x88
  if(((PeriphClkInit->PeriphClockSelection) & RCC_PERIPHCLK_LPTIM2) == (RCC_PERIPHCLK_LPTIM2))
 8002aec:	055e      	lsls	r6, r3, #21
 8002aee:	d508      	bpl.n	8002b02 <HAL_RCCEx_PeriphCLKConfig+0x236>
    __HAL_RCC_LPTIM2_CONFIG(PeriphClkInit->Lptim2ClockSelection);
 8002af0:	4969      	ldr	r1, [pc, #420]	; (8002c98 <HAL_RCCEx_PeriphCLKConfig+0x3cc>)
 8002af2:	6e20      	ldr	r0, [r4, #96]	; 0x60
 8002af4:	f8d1 2088 	ldr.w	r2, [r1, #136]	; 0x88
 8002af8:	f422 1240 	bic.w	r2, r2, #3145728	; 0x300000
 8002afc:	4302      	orrs	r2, r0
 8002afe:	f8c1 2088 	str.w	r2, [r1, #136]	; 0x88
  if(((PeriphClkInit->PeriphClockSelection) & RCC_PERIPHCLK_I2C1) == RCC_PERIPHCLK_I2C1)
 8002b02:	0658      	lsls	r0, r3, #25
 8002b04:	d508      	bpl.n	8002b18 <HAL_RCCEx_PeriphCLKConfig+0x24c>
    __HAL_RCC_I2C1_CONFIG(PeriphClkInit->I2c1ClockSelection);
 8002b06:	4964      	ldr	r1, [pc, #400]	; (8002c98 <HAL_RCCEx_PeriphCLKConfig+0x3cc>)
 8002b08:	6d20      	ldr	r0, [r4, #80]	; 0x50
 8002b0a:	f8d1 2088 	ldr.w	r2, [r1, #136]	; 0x88
 8002b0e:	f422 5240 	bic.w	r2, r2, #12288	; 0x3000
 8002b12:	4302      	orrs	r2, r0
 8002b14:	f8c1 2088 	str.w	r2, [r1, #136]	; 0x88
  if(((PeriphClkInit->PeriphClockSelection) & RCC_PERIPHCLK_I2C2) == RCC_PERIPHCLK_I2C2)
 8002b18:	0619      	lsls	r1, r3, #24
 8002b1a:	d508      	bpl.n	8002b2e <HAL_RCCEx_PeriphCLKConfig+0x262>
    __HAL_RCC_I2C2_CONFIG(PeriphClkInit->I2c2ClockSelection);
 8002b1c:	495e      	ldr	r1, [pc, #376]	; (8002c98 <HAL_RCCEx_PeriphCLKConfig+0x3cc>)
 8002b1e:	6d60      	ldr	r0, [r4, #84]	; 0x54
 8002b20:	f8d1 2088 	ldr.w	r2, [r1, #136]	; 0x88
 8002b24:	f422 4240 	bic.w	r2, r2, #49152	; 0xc000
 8002b28:	4302      	orrs	r2, r0
 8002b2a:	f8c1 2088 	str.w	r2, [r1, #136]	; 0x88
  if(((PeriphClkInit->PeriphClockSelection) & RCC_PERIPHCLK_I2C3) == RCC_PERIPHCLK_I2C3)
 8002b2e:	05da      	lsls	r2, r3, #23
 8002b30:	d508      	bpl.n	8002b44 <HAL_RCCEx_PeriphCLKConfig+0x278>
    __HAL_RCC_I2C3_CONFIG(PeriphClkInit->I2c3ClockSelection);
 8002b32:	4959      	ldr	r1, [pc, #356]	; (8002c98 <HAL_RCCEx_PeriphCLKConfig+0x3cc>)
 8002b34:	6da0      	ldr	r0, [r4, #88]	; 0x58
 8002b36:	f8d1 2088 	ldr.w	r2, [r1, #136]	; 0x88
 8002b3a:	f422 3240 	bic.w	r2, r2, #196608	; 0x30000
 8002b3e:	4302      	orrs	r2, r0
 8002b40:	f8c1 2088 	str.w	r2, [r1, #136]	; 0x88
  if(((PeriphClkInit->PeriphClockSelection) & RCC_PERIPHCLK_USB) == (RCC_PERIPHCLK_USB))
 8002b44:	049b      	lsls	r3, r3, #18
 8002b46:	d50f      	bpl.n	8002b68 <HAL_RCCEx_PeriphCLKConfig+0x29c>
    __HAL_RCC_USB_CONFIG(PeriphClkInit->UsbClockSelection);
 8002b48:	4a53      	ldr	r2, [pc, #332]	; (8002c98 <HAL_RCCEx_PeriphCLKConfig+0x3cc>)
 8002b4a:	6ee1      	ldr	r1, [r4, #108]	; 0x6c
 8002b4c:	f8d2 3088 	ldr.w	r3, [r2, #136]	; 0x88
 8002b50:	f023 6340 	bic.w	r3, r3, #201326592	; 0xc000000
 8002b54:	430b      	orrs	r3, r1
    if(PeriphClkInit->UsbClockSelection == RCC_USBCLKSOURCE_PLL)
 8002b56:	f1b1 6f00 	cmp.w	r1, #134217728	; 0x8000000
    __HAL_RCC_USB_CONFIG(PeriphClkInit->UsbClockSelection);
 8002b5a:	f8c2 3088 	str.w	r3, [r2, #136]	; 0x88
    if(PeriphClkInit->UsbClockSelection == RCC_USBCLKSOURCE_PLL)
 8002b5e:	d164      	bne.n	8002c2a <HAL_RCCEx_PeriphCLKConfig+0x35e>
      __HAL_RCC_PLLCLKOUT_ENABLE(RCC_PLL_48M1CLK);
 8002b60:	68d3      	ldr	r3, [r2, #12]
 8002b62:	f443 1380 	orr.w	r3, r3, #1048576	; 0x100000
 8002b66:	60d3      	str	r3, [r2, #12]
  if(((PeriphClkInit->PeriphClockSelection) & RCC_PERIPHCLK_SDMMC1) == (RCC_PERIPHCLK_SDMMC1))
 8002b68:	6823      	ldr	r3, [r4, #0]
 8002b6a:	031f      	lsls	r7, r3, #12
 8002b6c:	d50f      	bpl.n	8002b8e <HAL_RCCEx_PeriphCLKConfig+0x2c2>
    __HAL_RCC_SDMMC1_CONFIG(PeriphClkInit->Sdmmc1ClockSelection);
 8002b6e:	4a4a      	ldr	r2, [pc, #296]	; (8002c98 <HAL_RCCEx_PeriphCLKConfig+0x3cc>)
 8002b70:	6f21      	ldr	r1, [r4, #112]	; 0x70
 8002b72:	f8d2 3088 	ldr.w	r3, [r2, #136]	; 0x88
 8002b76:	f023 6340 	bic.w	r3, r3, #201326592	; 0xc000000
 8002b7a:	430b      	orrs	r3, r1
    if(PeriphClkInit->Sdmmc1ClockSelection == RCC_SDMMC1CLKSOURCE_PLL)   /* PLL "Q" ? */
 8002b7c:	f1b1 6f00 	cmp.w	r1, #134217728	; 0x8000000
    __HAL_RCC_SDMMC1_CONFIG(PeriphClkInit->Sdmmc1ClockSelection);
 8002b80:	f8c2 3088 	str.w	r3, [r2, #136]	; 0x88
    if(PeriphClkInit->Sdmmc1ClockSelection == RCC_SDMMC1CLKSOURCE_PLL)   /* PLL "Q" ? */
 8002b84:	d15c      	bne.n	8002c40 <HAL_RCCEx_PeriphCLKConfig+0x374>
      __HAL_RCC_PLLCLKOUT_ENABLE(RCC_PLL_48M1CLK);
 8002b86:	68d3      	ldr	r3, [r2, #12]
 8002b88:	f443 1380 	orr.w	r3, r3, #1048576	; 0x100000
 8002b8c:	60d3      	str	r3, [r2, #12]
  if(((PeriphClkInit->PeriphClockSelection) & RCC_PERIPHCLK_RNG) == (RCC_PERIPHCLK_RNG))
 8002b8e:	6823      	ldr	r3, [r4, #0]
 8002b90:	035e      	lsls	r6, r3, #13
 8002b92:	d50f      	bpl.n	8002bb4 <HAL_RCCEx_PeriphCLKConfig+0x2e8>
    __HAL_RCC_RNG_CONFIG(PeriphClkInit->RngClockSelection);
 8002b94:	4a40      	ldr	r2, [pc, #256]	; (8002c98 <HAL_RCCEx_PeriphCLKConfig+0x3cc>)
 8002b96:	6f61      	ldr	r1, [r4, #116]	; 0x74
 8002b98:	f8d2 3088 	ldr.w	r3, [r2, #136]	; 0x88
 8002b9c:	f023 6340 	bic.w	r3, r3, #201326592	; 0xc000000
 8002ba0:	430b      	orrs	r3, r1
    if(PeriphClkInit->RngClockSelection == RCC_RNGCLKSOURCE_PLL)
 8002ba2:	f1b1 6f00 	cmp.w	r1, #134217728	; 0x8000000
    __HAL_RCC_RNG_CONFIG(PeriphClkInit->RngClockSelection);
 8002ba6:	f8c2 3088 	str.w	r3, [r2, #136]	; 0x88
    if(PeriphClkInit->RngClockSelection == RCC_RNGCLKSOURCE_PLL)
 8002baa:	d154      	bne.n	8002c56 <HAL_RCCEx_PeriphCLKConfig+0x38a>
      __HAL_RCC_PLLCLKOUT_ENABLE(RCC_PLL_48M1CLK);
 8002bac:	68d3      	ldr	r3, [r2, #12]
 8002bae:	f443 1380 	orr.w	r3, r3, #1048576	; 0x100000
 8002bb2:	60d3      	str	r3, [r2, #12]
  if(((PeriphClkInit->PeriphClockSelection) & RCC_PERIPHCLK_ADC) == RCC_PERIPHCLK_ADC)
 8002bb4:	6823      	ldr	r3, [r4, #0]
 8002bb6:	0458      	lsls	r0, r3, #17
 8002bb8:	d512      	bpl.n	8002be0 <HAL_RCCEx_PeriphCLKConfig+0x314>
    __HAL_RCC_ADC_CONFIG(PeriphClkInit->AdcClockSelection);
 8002bba:	4937      	ldr	r1, [pc, #220]	; (8002c98 <HAL_RCCEx_PeriphCLKConfig+0x3cc>)
 8002bbc:	6fa2      	ldr	r2, [r4, #120]	; 0x78
 8002bbe:	f8d1 3088 	ldr.w	r3, [r1, #136]	; 0x88
 8002bc2:	f023 5340 	bic.w	r3, r3, #805306368	; 0x30000000
 8002bc6:	4313      	orrs	r3, r2
    if(PeriphClkInit->AdcClockSelection == RCC_ADCCLKSOURCE_PLLSAI1)
 8002bc8:	f1b2 5f80 	cmp.w	r2, #268435456	; 0x10000000
    __HAL_RCC_ADC_CONFIG(PeriphClkInit->AdcClockSelection);
 8002bcc:	f8c1 3088 	str.w	r3, [r1, #136]	; 0x88
    if(PeriphClkInit->AdcClockSelection == RCC_ADCCLKSOURCE_PLLSAI1)
 8002bd0:	d14c      	bne.n	8002c6c <HAL_RCCEx_PeriphCLKConfig+0x3a0>
      ret = RCCEx_PLLSAI1_Config(&(PeriphClkInit->PLLSAI1), DIVIDER_R_UPDATE);
 8002bd2:	2102      	movs	r1, #2
 8002bd4:	1d20      	adds	r0, r4, #4
 8002bd6:	f7ff fd6d 	bl	80026b4 <RCCEx_PLLSAI1_Config>
      if(ret != HAL_OK)
 8002bda:	2800      	cmp	r0, #0
 8002bdc:	bf18      	it	ne
 8002bde:	4605      	movne	r5, r0
  if(((PeriphClkInit->PeriphClockSelection) & RCC_PERIPHCLK_SWPMI1) == RCC_PERIPHCLK_SWPMI1)
 8002be0:	6822      	ldr	r2, [r4, #0]
 8002be2:	0411      	lsls	r1, r2, #16
 8002be4:	d508      	bpl.n	8002bf8 <HAL_RCCEx_PeriphCLKConfig+0x32c>
    __HAL_RCC_SWPMI1_CONFIG(PeriphClkInit->Swpmi1ClockSelection);
 8002be6:	492c      	ldr	r1, [pc, #176]	; (8002c98 <HAL_RCCEx_PeriphCLKConfig+0x3cc>)
 8002be8:	6fe0      	ldr	r0, [r4, #124]	; 0x7c
 8002bea:	f8d1 3088 	ldr.w	r3, [r1, #136]	; 0x88
 8002bee:	f023 4380 	bic.w	r3, r3, #1073741824	; 0x40000000
 8002bf2:	4303      	orrs	r3, r0
 8002bf4:	f8c1 3088 	str.w	r3, [r1, #136]	; 0x88
  if(((PeriphClkInit->PeriphClockSelection) & RCC_PERIPHCLK_DFSDM1) == RCC_PERIPHCLK_DFSDM1)
 8002bf8:	03d3      	lsls	r3, r2, #15
 8002bfa:	d509      	bpl.n	8002c10 <HAL_RCCEx_PeriphCLKConfig+0x344>
    __HAL_RCC_DFSDM1_CONFIG(PeriphClkInit->Dfsdm1ClockSelection);
 8002bfc:	4a26      	ldr	r2, [pc, #152]	; (8002c98 <HAL_RCCEx_PeriphCLKConfig+0x3cc>)
 8002bfe:	f8d4 1080 	ldr.w	r1, [r4, #128]	; 0x80
 8002c02:	f8d2 3088 	ldr.w	r3, [r2, #136]	; 0x88
 8002c06:	f023 4300 	bic.w	r3, r3, #2147483648	; 0x80000000
 8002c0a:	430b      	orrs	r3, r1
 8002c0c:	f8c2 3088 	str.w	r3, [r2, #136]	; 0x88
}
 8002c10:	4628      	mov	r0, r5
 8002c12:	b002      	add	sp, #8
 8002c14:	e8bd 87f0 	ldmia.w	sp!, {r4, r5, r6, r7, r8, r9, sl, pc}
          if((HAL_GetTick() - tickstart) > RCC_LSE_TIMEOUT_VALUE)
 8002c18:	f7fd fce8 	bl	80005ec <HAL_GetTick>
 8002c1c:	1b40      	subs	r0, r0, r5
 8002c1e:	4548      	cmp	r0, r9
 8002c20:	f67f aeec 	bls.w	80029fc <HAL_RCCEx_PeriphCLKConfig+0x130>
 8002c24:	e70c      	b.n	8002a40 <HAL_RCCEx_PeriphCLKConfig+0x174>
 8002c26:	4635      	mov	r5, r6
 8002c28:	e712      	b.n	8002a50 <HAL_RCCEx_PeriphCLKConfig+0x184>
      if(PeriphClkInit->UsbClockSelection == RCC_USBCLKSOURCE_PLLSAI1)
 8002c2a:	f1b1 6f80 	cmp.w	r1, #67108864	; 0x4000000
 8002c2e:	d19b      	bne.n	8002b68 <HAL_RCCEx_PeriphCLKConfig+0x29c>
        ret = RCCEx_PLLSAI1_Config(&(PeriphClkInit->PLLSAI1), DIVIDER_Q_UPDATE);
 8002c30:	2101      	movs	r1, #1
 8002c32:	1d20      	adds	r0, r4, #4
 8002c34:	f7ff fd3e 	bl	80026b4 <RCCEx_PLLSAI1_Config>
        if(ret != HAL_OK)
 8002c38:	2800      	cmp	r0, #0
 8002c3a:	bf18      	it	ne
 8002c3c:	4605      	movne	r5, r0
 8002c3e:	e793      	b.n	8002b68 <HAL_RCCEx_PeriphCLKConfig+0x29c>
    else if(PeriphClkInit->Sdmmc1ClockSelection == RCC_SDMMC1CLKSOURCE_PLLSAI1)
 8002c40:	f1b1 6f80 	cmp.w	r1, #67108864	; 0x4000000
 8002c44:	d1a3      	bne.n	8002b8e <HAL_RCCEx_PeriphCLKConfig+0x2c2>
      ret = RCCEx_PLLSAI1_Config(&(PeriphClkInit->PLLSAI1), DIVIDER_Q_UPDATE);
 8002c46:	2101      	movs	r1, #1
 8002c48:	1d20      	adds	r0, r4, #4
 8002c4a:	f7ff fd33 	bl	80026b4 <RCCEx_PLLSAI1_Config>
      if(ret != HAL_OK)
 8002c4e:	2800      	cmp	r0, #0
 8002c50:	bf18      	it	ne
 8002c52:	4605      	movne	r5, r0
 8002c54:	e79b      	b.n	8002b8e <HAL_RCCEx_PeriphCLKConfig+0x2c2>
    else if(PeriphClkInit->RngClockSelection == RCC_RNGCLKSOURCE_PLLSAI1)
 8002c56:	f1b1 6f80 	cmp.w	r1, #67108864	; 0x4000000
 8002c5a:	d1ab      	bne.n	8002bb4 <HAL_RCCEx_PeriphCLKConfig+0x2e8>
      ret = RCCEx_PLLSAI1_Config(&(PeriphClkInit->PLLSAI1), DIVIDER_Q_UPDATE);
 8002c5c:	2101      	movs	r1, #1
 8002c5e:	1d20      	adds	r0, r4, #4
 8002c60:	f7ff fd28 	bl	80026b4 <RCCEx_PLLSAI1_Config>
      if(ret != HAL_OK)
 8002c64:	2800      	cmp	r0, #0
 8002c66:	bf18      	it	ne
 8002c68:	4605      	movne	r5, r0
 8002c6a:	e7a3      	b.n	8002bb4 <HAL_RCCEx_PeriphCLKConfig+0x2e8>
    else if(PeriphClkInit->AdcClockSelection == RCC_ADCCLKSOURCE_PLLSAI2)
 8002c6c:	f1b2 5f00 	cmp.w	r2, #536870912	; 0x20000000
 8002c70:	d1b6      	bne.n	8002be0 <HAL_RCCEx_PeriphCLKConfig+0x314>
      ret = RCCEx_PLLSAI2_Config(&(PeriphClkInit->PLLSAI2), DIVIDER_R_UPDATE);
 8002c72:	2102      	movs	r1, #2
 8002c74:	f104 0020 	add.w	r0, r4, #32
 8002c78:	f7ff fdaa 	bl	80027d0 <RCCEx_PLLSAI2_Config>
 8002c7c:	e7ad      	b.n	8002bda <HAL_RCCEx_PeriphCLKConfig+0x30e>
      __HAL_RCC_PWR_CLK_ENABLE();
 8002c7e:	6dbb      	ldr	r3, [r7, #88]	; 0x58
 8002c80:	f043 5380 	orr.w	r3, r3, #268435456	; 0x10000000
 8002c84:	65bb      	str	r3, [r7, #88]	; 0x58
 8002c86:	6dbb      	ldr	r3, [r7, #88]	; 0x58
 8002c88:	f003 5380 	and.w	r3, r3, #268435456	; 0x10000000
 8002c8c:	9301      	str	r3, [sp, #4]
 8002c8e:	9b01      	ldr	r3, [sp, #4]
      pwrclkchanged = SET;
 8002c90:	f04f 0801 	mov.w	r8, #1
 8002c94:	e67f      	b.n	8002996 <HAL_RCCEx_PeriphCLKConfig+0xca>
 8002c96:	bf00      	nop
 8002c98:	40021000 	.word	0x40021000

08002c9c <HAL_TIM_Base_Start_IT>:
{
  /* Check the parameters */
  assert_param(IS_TIM_INSTANCE(htim->Instance));

  /* Enable the TIM Update interrupt */
  __HAL_TIM_ENABLE_IT(htim, TIM_IT_UPDATE);
 8002c9c:	6803      	ldr	r3, [r0, #0]

  /* Enable the Peripheral, except in trigger mode where enable is automatically done with trigger */
  if (!IS_TIM_SLAVEMODE_TRIGGER_ENABLED(htim))
 8002c9e:	480a      	ldr	r0, [pc, #40]	; (8002cc8 <HAL_TIM_Base_Start_IT+0x2c>)
  __HAL_TIM_ENABLE_IT(htim, TIM_IT_UPDATE);
 8002ca0:	68da      	ldr	r2, [r3, #12]
 8002ca2:	f042 0201 	orr.w	r2, r2, #1
 8002ca6:	60da      	str	r2, [r3, #12]
  if (!IS_TIM_SLAVEMODE_TRIGGER_ENABLED(htim))
 8002ca8:	6899      	ldr	r1, [r3, #8]
 8002caa:	4001      	ands	r1, r0
 8002cac:	2906      	cmp	r1, #6
 8002cae:	d008      	beq.n	8002cc2 <HAL_TIM_Base_Start_IT+0x26>
 8002cb0:	689a      	ldr	r2, [r3, #8]
 8002cb2:	4002      	ands	r2, r0
 8002cb4:	f5b2 3f80 	cmp.w	r2, #65536	; 0x10000
  {
    __HAL_TIM_ENABLE(htim);
 8002cb8:	bf1e      	ittt	ne
 8002cba:	681a      	ldrne	r2, [r3, #0]
 8002cbc:	f042 0201 	orrne.w	r2, r2, #1
 8002cc0:	601a      	strne	r2, [r3, #0]
  }

  /* Return function status */
  return HAL_OK;
}
 8002cc2:	2000      	movs	r0, #0
 8002cc4:	4770      	bx	lr
 8002cc6:	bf00      	nop
 8002cc8:	00010007 	.word	0x00010007

08002ccc <HAL_TIM_OC_DelayElapsedCallback>:
 8002ccc:	4770      	bx	lr

08002cce <HAL_TIM_IC_CaptureCallback>:
 8002cce:	4770      	bx	lr

08002cd0 <HAL_TIM_PWM_PulseFinishedCallback>:
 8002cd0:	4770      	bx	lr

08002cd2 <HAL_TIM_TriggerCallback>:
 8002cd2:	4770      	bx	lr

08002cd4 <HAL_TIM_IRQHandler>:
  * @retval None
  */
void HAL_TIM_IRQHandler(TIM_HandleTypeDef *htim)
{
  /* Capture compare 1 event */
  if (__HAL_TIM_GET_FLAG(htim, TIM_FLAG_CC1) != RESET)
 8002cd4:	6803      	ldr	r3, [r0, #0]
 8002cd6:	691a      	ldr	r2, [r3, #16]
 8002cd8:	0791      	lsls	r1, r2, #30
{
 8002cda:	b510      	push	{r4, lr}
 8002cdc:	4604      	mov	r4, r0
  if (__HAL_TIM_GET_FLAG(htim, TIM_FLAG_CC1) != RESET)
 8002cde:	d50f      	bpl.n	8002d00 <HAL_TIM_IRQHandler+0x2c>
  {
    if (__HAL_TIM_GET_IT_SOURCE(htim, TIM_IT_CC1) != RESET)
 8002ce0:	68da      	ldr	r2, [r3, #12]
 8002ce2:	0792      	lsls	r2, r2, #30
 8002ce4:	d50c      	bpl.n	8002d00 <HAL_TIM_IRQHandler+0x2c>
    {
      {
        __HAL_TIM_CLEAR_IT(htim, TIM_IT_CC1);
 8002ce6:	f06f 0202 	mvn.w	r2, #2
 8002cea:	611a      	str	r2, [r3, #16]
        htim->Channel = HAL_TIM_ACTIVE_CHANNEL_1;

        /* Input capture event */
        if ((htim->Instance->CCMR1 & TIM_CCMR1_CC1S) != 0x00U)
 8002cec:	699b      	ldr	r3, [r3, #24]
        htim->Channel = HAL_TIM_ACTIVE_CHANNEL_1;
 8002cee:	2201      	movs	r2, #1
        if ((htim->Instance->CCMR1 & TIM_CCMR1_CC1S) != 0x00U)
 8002cf0:	0799      	lsls	r1, r3, #30
        htim->Channel = HAL_TIM_ACTIVE_CHANNEL_1;
 8002cf2:	7702      	strb	r2, [r0, #28]
        if ((htim->Instance->CCMR1 & TIM_CCMR1_CC1S) != 0x00U)
 8002cf4:	f000 8085 	beq.w	8002e02 <HAL_TIM_IRQHandler+0x12e>
        {
#if (USE_HAL_TIM_REGISTER_CALLBACKS == 1)
          htim->IC_CaptureCallback(htim);
#else
          HAL_TIM_IC_CaptureCallback(htim);
 8002cf8:	f7ff ffe9 	bl	8002cce <HAL_TIM_IC_CaptureCallback>
#else
          HAL_TIM_OC_DelayElapsedCallback(htim);
          HAL_TIM_PWM_PulseFinishedCallback(htim);
#endif /* USE_HAL_TIM_REGISTER_CALLBACKS */
        }
        htim->Channel = HAL_TIM_ACTIVE_CHANNEL_CLEARED;
 8002cfc:	2300      	movs	r3, #0
 8002cfe:	7723      	strb	r3, [r4, #28]
      }
    }
  }
  /* Capture compare 2 event */
  if (__HAL_TIM_GET_FLAG(htim, TIM_FLAG_CC2) != RESET)
 8002d00:	6823      	ldr	r3, [r4, #0]
 8002d02:	691a      	ldr	r2, [r3, #16]
 8002d04:	0752      	lsls	r2, r2, #29
 8002d06:	d510      	bpl.n	8002d2a <HAL_TIM_IRQHandler+0x56>
  {
    if (__HAL_TIM_GET_IT_SOURCE(htim, TIM_IT_CC2) != RESET)
 8002d08:	68da      	ldr	r2, [r3, #12]
 8002d0a:	0750      	lsls	r0, r2, #29
 8002d0c:	d50d      	bpl.n	8002d2a <HAL_TIM_IRQHandler+0x56>
    {
      __HAL_TIM_CLEAR_IT(htim, TIM_IT_CC2);
 8002d0e:	f06f 0204 	mvn.w	r2, #4
 8002d12:	611a      	str	r2, [r3, #16]
      htim->Channel = HAL_TIM_ACTIVE_CHANNEL_2;
      /* Input capture event */
      if ((htim->Instance->CCMR1 & TIM_CCMR1_CC2S) != 0x00U)
 8002d14:	699b      	ldr	r3, [r3, #24]
      htim->Channel = HAL_TIM_ACTIVE_CHANNEL_2;
 8002d16:	2202      	movs	r2, #2
      if ((htim->Instance->CCMR1 & TIM_CCMR1_CC2S) != 0x00U)
 8002d18:	f413 7f40 	tst.w	r3, #768	; 0x300
      htim->Channel = HAL_TIM_ACTIVE_CHANNEL_2;
 8002d1c:	7722      	strb	r2, [r4, #28]
      {
#if (USE_HAL_TIM_REGISTER_CALLBACKS == 1)
        htim->IC_CaptureCallback(htim);
#else
        HAL_TIM_IC_CaptureCallback(htim);
 8002d1e:	4620      	mov	r0, r4
      if ((htim->Instance->CCMR1 & TIM_CCMR1_CC2S) != 0x00U)
 8002d20:	d075      	beq.n	8002e0e <HAL_TIM_IRQHandler+0x13a>
        HAL_TIM_IC_CaptureCallback(htim);
 8002d22:	f7ff ffd4 	bl	8002cce <HAL_TIM_IC_CaptureCallback>
#else
        HAL_TIM_OC_DelayElapsedCallback(htim);
        HAL_TIM_PWM_PulseFinishedCallback(htim);
#endif /* USE_HAL_TIM_REGISTER_CALLBACKS */
      }
      htim->Channel = HAL_TIM_ACTIVE_CHANNEL_CLEARED;
 8002d26:	2300      	movs	r3, #0
 8002d28:	7723      	strb	r3, [r4, #28]
    }
  }
  /* Capture compare 3 event */
  if (__HAL_TIM_GET_FLAG(htim, TIM_FLAG_CC3) != RESET)
 8002d2a:	6823      	ldr	r3, [r4, #0]
 8002d2c:	691a      	ldr	r2, [r3, #16]
 8002d2e:	0711      	lsls	r1, r2, #28
 8002d30:	d50f      	bpl.n	8002d52 <HAL_TIM_IRQHandler+0x7e>
  {
    if (__HAL_TIM_GET_IT_SOURCE(htim, TIM_IT_CC3) != RESET)
 8002d32:	68da      	ldr	r2, [r3, #12]
 8002d34:	0712      	lsls	r2, r2, #28
 8002d36:	d50c      	bpl.n	8002d52 <HAL_TIM_IRQHandler+0x7e>
    {
      __HAL_TIM_CLEAR_IT(htim, TIM_IT_CC3);
 8002d38:	f06f 0208 	mvn.w	r2, #8
 8002d3c:	611a      	str	r2, [r3, #16]
      htim->Channel = HAL_TIM_ACTIVE_CHANNEL_3;
      /* Input capture event */
      if ((htim->Instance->CCMR2 & TIM_CCMR2_CC3S) != 0x00U)
 8002d3e:	69db      	ldr	r3, [r3, #28]
      htim->Channel = HAL_TIM_ACTIVE_CHANNEL_3;
 8002d40:	2204      	movs	r2, #4
      if ((htim->Instance->CCMR2 & TIM_CCMR2_CC3S) != 0x00U)
 8002d42:	079b      	lsls	r3, r3, #30
      htim->Channel = HAL_TIM_ACTIVE_CHANNEL_3;
 8002d44:	7722      	strb	r2, [r4, #28]
      {
#if (USE_HAL_TIM_REGISTER_CALLBACKS == 1)
        htim->IC_CaptureCallback(htim);
#else
        HAL_TIM_IC_CaptureCallback(htim);
 8002d46:	4620      	mov	r0, r4
      if ((htim->Instance->CCMR2 & TIM_CCMR2_CC3S) != 0x00U)
 8002d48:	d067      	beq.n	8002e1a <HAL_TIM_IRQHandler+0x146>
        HAL_TIM_IC_CaptureCallback(htim);
 8002d4a:	f7ff ffc0 	bl	8002cce <HAL_TIM_IC_CaptureCallback>
#else
        HAL_TIM_OC_DelayElapsedCallback(htim);
        HAL_TIM_PWM_PulseFinishedCallback(htim);
#endif /* USE_HAL_TIM_REGISTER_CALLBACKS */
      }
      htim->Channel = HAL_TIM_ACTIVE_CHANNEL_CLEARED;
 8002d4e:	2300      	movs	r3, #0
 8002d50:	7723      	strb	r3, [r4, #28]
    }
  }
  /* Capture compare 4 event */
  if (__HAL_TIM_GET_FLAG(htim, TIM_FLAG_CC4) != RESET)
 8002d52:	6823      	ldr	r3, [r4, #0]
 8002d54:	691a      	ldr	r2, [r3, #16]
 8002d56:	06d0      	lsls	r0, r2, #27
 8002d58:	d510      	bpl.n	8002d7c <HAL_TIM_IRQHandler+0xa8>
  {
    if (__HAL_TIM_GET_IT_SOURCE(htim, TIM_IT_CC4) != RESET)
 8002d5a:	68da      	ldr	r2, [r3, #12]
 8002d5c:	06d1      	lsls	r1, r2, #27
 8002d5e:	d50d      	bpl.n	8002d7c <HAL_TIM_IRQHandler+0xa8>
    {
      __HAL_TIM_CLEAR_IT(htim, TIM_IT_CC4);
 8002d60:	f06f 0210 	mvn.w	r2, #16
 8002d64:	611a      	str	r2, [r3, #16]
      htim->Channel = HAL_TIM_ACTIVE_CHANNEL_4;
      /* Input capture event */
      if ((htim->Instance->CCMR2 & TIM_CCMR2_CC4S) != 0x00U)
 8002d66:	69db      	ldr	r3, [r3, #28]
      htim->Channel = HAL_TIM_ACTIVE_CHANNEL_4;
 8002d68:	2208      	movs	r2, #8
      if ((htim->Instance->CCMR2 & TIM_CCMR2_CC4S) != 0x00U)
 8002d6a:	f413 7f40 	tst.w	r3, #768	; 0x300
      htim->Channel = HAL_TIM_ACTIVE_CHANNEL_4;
 8002d6e:	7722      	strb	r2, [r4, #28]
      {
#if (USE_HAL_TIM_REGISTER_CALLBACKS == 1)
        htim->IC_CaptureCallback(htim);
#else
        HAL_TIM_IC_CaptureCallback(htim);
 8002d70:	4620      	mov	r0, r4
      if ((htim->Instance->CCMR2 & TIM_CCMR2_CC4S) != 0x00U)
 8002d72:	d058      	beq.n	8002e26 <HAL_TIM_IRQHandler+0x152>
        HAL_TIM_IC_CaptureCallback(htim);
 8002d74:	f7ff ffab 	bl	8002cce <HAL_TIM_IC_CaptureCallback>
#else
        HAL_TIM_OC_DelayElapsedCallback(htim);
        HAL_TIM_PWM_PulseFinishedCallback(htim);
#endif /* USE_HAL_TIM_REGISTER_CALLBACKS */
      }
      htim->Channel = HAL_TIM_ACTIVE_CHANNEL_CLEARED;
 8002d78:	2300      	movs	r3, #0
 8002d7a:	7723      	strb	r3, [r4, #28]
    }
  }
  /* TIM Update event */
  if (__HAL_TIM_GET_FLAG(htim, TIM_FLAG_UPDATE) != RESET)
 8002d7c:	6823      	ldr	r3, [r4, #0]
 8002d7e:	691a      	ldr	r2, [r3, #16]
 8002d80:	07d2      	lsls	r2, r2, #31
 8002d82:	d508      	bpl.n	8002d96 <HAL_TIM_IRQHandler+0xc2>
  {
    if (__HAL_TIM_GET_IT_SOURCE(htim, TIM_IT_UPDATE) != RESET)
 8002d84:	68da      	ldr	r2, [r3, #12]
 8002d86:	07d0      	lsls	r0, r2, #31
 8002d88:	d505      	bpl.n	8002d96 <HAL_TIM_IRQHandler+0xc2>
    {
      __HAL_TIM_CLEAR_IT(htim, TIM_IT_UPDATE);
 8002d8a:	f06f 0201 	mvn.w	r2, #1
 8002d8e:	611a      	str	r2, [r3, #16]
#if (USE_HAL_TIM_REGISTER_CALLBACKS == 1)
      htim->PeriodElapsedCallback(htim);
#else
      HAL_TIM_PeriodElapsedCallback(htim);
 8002d90:	4620      	mov	r0, r4
 8002d92:	f000 fe4f 	bl	8003a34 <HAL_TIM_PeriodElapsedCallback>
#endif /* USE_HAL_TIM_REGISTER_CALLBACKS */
    }
  }
  /* TIM Break input event */
  if (__HAL_TIM_GET_FLAG(htim, TIM_FLAG_BREAK) != RESET)
 8002d96:	6823      	ldr	r3, [r4, #0]
 8002d98:	691a      	ldr	r2, [r3, #16]
 8002d9a:	0611      	lsls	r1, r2, #24
 8002d9c:	d508      	bpl.n	8002db0 <HAL_TIM_IRQHandler+0xdc>
  {
    if (__HAL_TIM_GET_IT_SOURCE(htim, TIM_IT_BREAK) != RESET)
 8002d9e:	68da      	ldr	r2, [r3, #12]
 8002da0:	0612      	lsls	r2, r2, #24
 8002da2:	d505      	bpl.n	8002db0 <HAL_TIM_IRQHandler+0xdc>
    {
      __HAL_TIM_CLEAR_IT(htim, TIM_IT_BREAK);
 8002da4:	f06f 0280 	mvn.w	r2, #128	; 0x80
 8002da8:	611a      	str	r2, [r3, #16]
#if (USE_HAL_TIM_REGISTER_CALLBACKS == 1)
      htim->BreakCallback(htim);
#else
      HAL_TIMEx_BreakCallback(htim);
 8002daa:	4620      	mov	r0, r4
 8002dac:	f000 f99b 	bl	80030e6 <HAL_TIMEx_BreakCallback>
#endif /* USE_HAL_TIM_REGISTER_CALLBACKS */
    }
  }
  /* TIM Break2 input event */
  if (__HAL_TIM_GET_FLAG(htim, TIM_FLAG_BREAK2) != RESET)
 8002db0:	6823      	ldr	r3, [r4, #0]
 8002db2:	691a      	ldr	r2, [r3, #16]
 8002db4:	05d0      	lsls	r0, r2, #23
 8002db6:	d508      	bpl.n	8002dca <HAL_TIM_IRQHandler+0xf6>
  {
    if (__HAL_TIM_GET_IT_SOURCE(htim, TIM_IT_BREAK) != RESET)
 8002db8:	68da      	ldr	r2, [r3, #12]
 8002dba:	0611      	lsls	r1, r2, #24
 8002dbc:	d505      	bpl.n	8002dca <HAL_TIM_IRQHandler+0xf6>
    {
      __HAL_TIM_CLEAR_FLAG(htim, TIM_FLAG_BREAK2);
 8002dbe:	f46f 7280 	mvn.w	r2, #256	; 0x100
 8002dc2:	611a      	str	r2, [r3, #16]
#if (USE_HAL_TIM_REGISTER_CALLBACKS == 1)
      htim->Break2Callback(htim);
#else
      HAL_TIMEx_Break2Callback(htim);
 8002dc4:	4620      	mov	r0, r4
 8002dc6:	f000 f98f 	bl	80030e8 <HAL_TIMEx_Break2Callback>
#endif /* USE_HAL_TIM_REGISTER_CALLBACKS */
    }
  }
  /* TIM Trigger detection event */
  if (__HAL_TIM_GET_FLAG(htim, TIM_FLAG_TRIGGER) != RESET)
 8002dca:	6823      	ldr	r3, [r4, #0]
 8002dcc:	691a      	ldr	r2, [r3, #16]
 8002dce:	0652      	lsls	r2, r2, #25
 8002dd0:	d508      	bpl.n	8002de4 <HAL_TIM_IRQHandler+0x110>
  {
    if (__HAL_TIM_GET_IT_SOURCE(htim, TIM_IT_TRIGGER) != RESET)
 8002dd2:	68da      	ldr	r2, [r3, #12]
 8002dd4:	0650      	lsls	r0, r2, #25
 8002dd6:	d505      	bpl.n	8002de4 <HAL_TIM_IRQHandler+0x110>
    {
      __HAL_TIM_CLEAR_IT(htim, TIM_IT_TRIGGER);
 8002dd8:	f06f 0240 	mvn.w	r2, #64	; 0x40
 8002ddc:	611a      	str	r2, [r3, #16]
#if (USE_HAL_TIM_REGISTER_CALLBACKS == 1)
      htim->TriggerCallback(htim);
#else
      HAL_TIM_TriggerCallback(htim);
 8002dde:	4620      	mov	r0, r4
 8002de0:	f7ff ff77 	bl	8002cd2 <HAL_TIM_TriggerCallback>
#endif /* USE_HAL_TIM_REGISTER_CALLBACKS */
    }
  }
  /* TIM commutation event */
  if (__HAL_TIM_GET_FLAG(htim, TIM_FLAG_COM) != RESET)
 8002de4:	6823      	ldr	r3, [r4, #0]
 8002de6:	691a      	ldr	r2, [r3, #16]
 8002de8:	0691      	lsls	r1, r2, #26
 8002dea:	d522      	bpl.n	8002e32 <HAL_TIM_IRQHandler+0x15e>
  {
    if (__HAL_TIM_GET_IT_SOURCE(htim, TIM_IT_COM) != RESET)
 8002dec:	68da      	ldr	r2, [r3, #12]
 8002dee:	0692      	lsls	r2, r2, #26
 8002df0:	d51f      	bpl.n	8002e32 <HAL_TIM_IRQHandler+0x15e>
    {
      __HAL_TIM_CLEAR_IT(htim, TIM_FLAG_COM);
 8002df2:	f06f 0220 	mvn.w	r2, #32
#if (USE_HAL_TIM_REGISTER_CALLBACKS == 1)
      htim->CommutationCallback(htim);
#else
      HAL_TIMEx_CommutationCallback(htim);
 8002df6:	4620      	mov	r0, r4
      __HAL_TIM_CLEAR_IT(htim, TIM_FLAG_COM);
 8002df8:	611a      	str	r2, [r3, #16]
#endif /* USE_HAL_TIM_REGISTER_CALLBACKS */
    }
  }
}
 8002dfa:	e8bd 4010 	ldmia.w	sp!, {r4, lr}
      HAL_TIMEx_CommutationCallback(htim);
 8002dfe:	f000 b971 	b.w	80030e4 <HAL_TIMEx_CommutationCallback>
          HAL_TIM_OC_DelayElapsedCallback(htim);
 8002e02:	f7ff ff63 	bl	8002ccc <HAL_TIM_OC_DelayElapsedCallback>
          HAL_TIM_PWM_PulseFinishedCallback(htim);
 8002e06:	4620      	mov	r0, r4
 8002e08:	f7ff ff62 	bl	8002cd0 <HAL_TIM_PWM_PulseFinishedCallback>
 8002e0c:	e776      	b.n	8002cfc <HAL_TIM_IRQHandler+0x28>
        HAL_TIM_OC_DelayElapsedCallback(htim);
 8002e0e:	f7ff ff5d 	bl	8002ccc <HAL_TIM_OC_DelayElapsedCallback>
        HAL_TIM_PWM_PulseFinishedCallback(htim);
 8002e12:	4620      	mov	r0, r4
 8002e14:	f7ff ff5c 	bl	8002cd0 <HAL_TIM_PWM_PulseFinishedCallback>
 8002e18:	e785      	b.n	8002d26 <HAL_TIM_IRQHandler+0x52>
        HAL_TIM_OC_DelayElapsedCallback(htim);
 8002e1a:	f7ff ff57 	bl	8002ccc <HAL_TIM_OC_DelayElapsedCallback>
        HAL_TIM_PWM_PulseFinishedCallback(htim);
 8002e1e:	4620      	mov	r0, r4
 8002e20:	f7ff ff56 	bl	8002cd0 <HAL_TIM_PWM_PulseFinishedCallback>
 8002e24:	e793      	b.n	8002d4e <HAL_TIM_IRQHandler+0x7a>
        HAL_TIM_OC_DelayElapsedCallback(htim);
 8002e26:	f7ff ff51 	bl	8002ccc <HAL_TIM_OC_DelayElapsedCallback>
        HAL_TIM_PWM_PulseFinishedCallback(htim);
 8002e2a:	4620      	mov	r0, r4
 8002e2c:	f7ff ff50 	bl	8002cd0 <HAL_TIM_PWM_PulseFinishedCallback>
 8002e30:	e7a2      	b.n	8002d78 <HAL_TIM_IRQHandler+0xa4>
 8002e32:	bd10      	pop	{r4, pc}

08002e34 <TIM_Base_SetConfig>:
{
  uint32_t tmpcr1;
  tmpcr1 = TIMx->CR1;

  /* Set TIM Time Base Unit parameters ---------------------------------------*/
  if (IS_TIM_COUNTER_MODE_SELECT_INSTANCE(TIMx))
 8002e34:	4a30      	ldr	r2, [pc, #192]	; (8002ef8 <TIM_Base_SetConfig+0xc4>)
  tmpcr1 = TIMx->CR1;
 8002e36:	6803      	ldr	r3, [r0, #0]
  if (IS_TIM_COUNTER_MODE_SELECT_INSTANCE(TIMx))
 8002e38:	4290      	cmp	r0, r2
 8002e3a:	d012      	beq.n	8002e62 <TIM_Base_SetConfig+0x2e>
 8002e3c:	f1b0 4f80 	cmp.w	r0, #1073741824	; 0x40000000
 8002e40:	d00f      	beq.n	8002e62 <TIM_Base_SetConfig+0x2e>
 8002e42:	f5a2 3294 	sub.w	r2, r2, #75776	; 0x12800
 8002e46:	4290      	cmp	r0, r2
 8002e48:	d00b      	beq.n	8002e62 <TIM_Base_SetConfig+0x2e>
 8002e4a:	f502 6280 	add.w	r2, r2, #1024	; 0x400
 8002e4e:	4290      	cmp	r0, r2
 8002e50:	d007      	beq.n	8002e62 <TIM_Base_SetConfig+0x2e>
 8002e52:	f502 6280 	add.w	r2, r2, #1024	; 0x400
 8002e56:	4290      	cmp	r0, r2
 8002e58:	d003      	beq.n	8002e62 <TIM_Base_SetConfig+0x2e>
 8002e5a:	f502 3294 	add.w	r2, r2, #75776	; 0x12800
 8002e5e:	4290      	cmp	r0, r2
 8002e60:	d119      	bne.n	8002e96 <TIM_Base_SetConfig+0x62>
  {
    /* Select the Counter Mode */
    tmpcr1 &= ~(TIM_CR1_DIR | TIM_CR1_CMS);
    tmpcr1 |= Structure->CounterMode;
 8002e62:	684a      	ldr	r2, [r1, #4]
    tmpcr1 &= ~(TIM_CR1_DIR | TIM_CR1_CMS);
 8002e64:	f023 0370 	bic.w	r3, r3, #112	; 0x70
    tmpcr1 |= Structure->CounterMode;
 8002e68:	4313      	orrs	r3, r2
  }

  if (IS_TIM_CLOCK_DIVISION_INSTANCE(TIMx))
 8002e6a:	4a23      	ldr	r2, [pc, #140]	; (8002ef8 <TIM_Base_SetConfig+0xc4>)
 8002e6c:	4290      	cmp	r0, r2
 8002e6e:	d01d      	beq.n	8002eac <TIM_Base_SetConfig+0x78>
 8002e70:	f1b0 4f80 	cmp.w	r0, #1073741824	; 0x40000000
 8002e74:	d01a      	beq.n	8002eac <TIM_Base_SetConfig+0x78>
 8002e76:	f5a2 3294 	sub.w	r2, r2, #75776	; 0x12800
 8002e7a:	4290      	cmp	r0, r2
 8002e7c:	d016      	beq.n	8002eac <TIM_Base_SetConfig+0x78>
 8002e7e:	f502 6280 	add.w	r2, r2, #1024	; 0x400
 8002e82:	4290      	cmp	r0, r2
 8002e84:	d012      	beq.n	8002eac <TIM_Base_SetConfig+0x78>
 8002e86:	f502 6280 	add.w	r2, r2, #1024	; 0x400
 8002e8a:	4290      	cmp	r0, r2
 8002e8c:	d00e      	beq.n	8002eac <TIM_Base_SetConfig+0x78>
 8002e8e:	f502 3294 	add.w	r2, r2, #75776	; 0x12800
 8002e92:	4290      	cmp	r0, r2
 8002e94:	d00a      	beq.n	8002eac <TIM_Base_SetConfig+0x78>
 8002e96:	4a19      	ldr	r2, [pc, #100]	; (8002efc <TIM_Base_SetConfig+0xc8>)
 8002e98:	4290      	cmp	r0, r2
 8002e9a:	d007      	beq.n	8002eac <TIM_Base_SetConfig+0x78>
 8002e9c:	f502 6280 	add.w	r2, r2, #1024	; 0x400
 8002ea0:	4290      	cmp	r0, r2
 8002ea2:	d003      	beq.n	8002eac <TIM_Base_SetConfig+0x78>
 8002ea4:	f502 6280 	add.w	r2, r2, #1024	; 0x400
 8002ea8:	4290      	cmp	r0, r2
 8002eaa:	d103      	bne.n	8002eb4 <TIM_Base_SetConfig+0x80>
  {
    /* Set the clock division */
    tmpcr1 &= ~TIM_CR1_CKD;
    tmpcr1 |= (uint32_t)Structure->ClockDivision;
 8002eac:	68ca      	ldr	r2, [r1, #12]
    tmpcr1 &= ~TIM_CR1_CKD;
 8002eae:	f423 7340 	bic.w	r3, r3, #768	; 0x300
    tmpcr1 |= (uint32_t)Structure->ClockDivision;
 8002eb2:	4313      	orrs	r3, r2
  }

  /* Set the auto-reload preload */
  MODIFY_REG(tmpcr1, TIM_CR1_ARPE, Structure->AutoReloadPreload);
 8002eb4:	694a      	ldr	r2, [r1, #20]
 8002eb6:	f023 0380 	bic.w	r3, r3, #128	; 0x80
 8002eba:	4313      	orrs	r3, r2

  TIMx->CR1 = tmpcr1;
 8002ebc:	6003      	str	r3, [r0, #0]

  /* Set the Autoreload value */
  TIMx->ARR = (uint32_t)Structure->Period ;
 8002ebe:	688b      	ldr	r3, [r1, #8]
 8002ec0:	62c3      	str	r3, [r0, #44]	; 0x2c

  /* Set the Prescaler value */
  TIMx->PSC = Structure->Prescaler;
 8002ec2:	680b      	ldr	r3, [r1, #0]
 8002ec4:	6283      	str	r3, [r0, #40]	; 0x28

  if (IS_TIM_REPETITION_COUNTER_INSTANCE(TIMx))
 8002ec6:	4b0c      	ldr	r3, [pc, #48]	; (8002ef8 <TIM_Base_SetConfig+0xc4>)
 8002ec8:	4298      	cmp	r0, r3
 8002eca:	d00f      	beq.n	8002eec <TIM_Base_SetConfig+0xb8>
 8002ecc:	f503 6300 	add.w	r3, r3, #2048	; 0x800
 8002ed0:	4298      	cmp	r0, r3
 8002ed2:	d00b      	beq.n	8002eec <TIM_Base_SetConfig+0xb8>
 8002ed4:	f503 6340 	add.w	r3, r3, #3072	; 0xc00
 8002ed8:	4298      	cmp	r0, r3
 8002eda:	d007      	beq.n	8002eec <TIM_Base_SetConfig+0xb8>
 8002edc:	f503 6380 	add.w	r3, r3, #1024	; 0x400
 8002ee0:	4298      	cmp	r0, r3
 8002ee2:	d003      	beq.n	8002eec <TIM_Base_SetConfig+0xb8>
 8002ee4:	f503 6380 	add.w	r3, r3, #1024	; 0x400
 8002ee8:	4298      	cmp	r0, r3
 8002eea:	d101      	bne.n	8002ef0 <TIM_Base_SetConfig+0xbc>
  {
    /* Set the Repetition Counter value */
    TIMx->RCR = Structure->RepetitionCounter;
 8002eec:	690b      	ldr	r3, [r1, #16]
 8002eee:	6303      	str	r3, [r0, #48]	; 0x30
  }

  /* Generate an update event to reload the Prescaler
     and the repetition counter (only for advanced timer) value immediately */
  TIMx->EGR = TIM_EGR_UG;
 8002ef0:	2301      	movs	r3, #1
 8002ef2:	6143      	str	r3, [r0, #20]
 8002ef4:	4770      	bx	lr
 8002ef6:	bf00      	nop
 8002ef8:	40012c00 	.word	0x40012c00
 8002efc:	40014000 	.word	0x40014000

08002f00 <HAL_TIM_Base_Init>:
{
 8002f00:	b510      	push	{r4, lr}
  if (htim == NULL)
 8002f02:	4604      	mov	r4, r0
 8002f04:	b1a0      	cbz	r0, 8002f30 <HAL_TIM_Base_Init+0x30>
  if (htim->State == HAL_TIM_STATE_RESET)
 8002f06:	f890 303d 	ldrb.w	r3, [r0, #61]	; 0x3d
 8002f0a:	f003 02ff 	and.w	r2, r3, #255	; 0xff
 8002f0e:	b91b      	cbnz	r3, 8002f18 <HAL_TIM_Base_Init+0x18>
    htim->Lock = HAL_UNLOCKED;
 8002f10:	f880 203c 	strb.w	r2, [r0, #60]	; 0x3c
    HAL_TIM_Base_MspInit(htim);
 8002f14:	f001 f936 	bl	8004184 <HAL_TIM_Base_MspInit>
  htim->State = HAL_TIM_STATE_BUSY;
 8002f18:	2302      	movs	r3, #2
 8002f1a:	f884 303d 	strb.w	r3, [r4, #61]	; 0x3d
  TIM_Base_SetConfig(htim->Instance, &htim->Init);
 8002f1e:	6820      	ldr	r0, [r4, #0]
 8002f20:	1d21      	adds	r1, r4, #4
 8002f22:	f7ff ff87 	bl	8002e34 <TIM_Base_SetConfig>
  htim->State = HAL_TIM_STATE_READY;
 8002f26:	2301      	movs	r3, #1
 8002f28:	f884 303d 	strb.w	r3, [r4, #61]	; 0x3d
  return HAL_OK;
 8002f2c:	2000      	movs	r0, #0
 8002f2e:	bd10      	pop	{r4, pc}
    return HAL_ERROR;
 8002f30:	2001      	movs	r0, #1
}
 8002f32:	bd10      	pop	{r4, pc}

08002f34 <TIM_ETR_SetConfig>:
  *          This parameter must be a value between 0x00 and 0x0F
  * @retval None
  */
void TIM_ETR_SetConfig(TIM_TypeDef *TIMx, uint32_t TIM_ExtTRGPrescaler,
                       uint32_t TIM_ExtTRGPolarity, uint32_t ExtTRGFilter)
{
 8002f34:	b510      	push	{r4, lr}
  uint32_t tmpsmcr;

  tmpsmcr = TIMx->SMCR;
 8002f36:	6884      	ldr	r4, [r0, #8]

  /* Reset the ETR Bits */
  tmpsmcr &= ~(TIM_SMCR_ETF | TIM_SMCR_ETPS | TIM_SMCR_ECE | TIM_SMCR_ETP);

  /* Set the Prescaler, the Filter value and the Polarity */
  tmpsmcr |= (uint32_t)(TIM_ExtTRGPrescaler | (TIM_ExtTRGPolarity | (ExtTRGFilter << 8U)));
 8002f38:	430a      	orrs	r2, r1
  tmpsmcr &= ~(TIM_SMCR_ETF | TIM_SMCR_ETPS | TIM_SMCR_ECE | TIM_SMCR_ETP);
 8002f3a:	f424 447f 	bic.w	r4, r4, #65280	; 0xff00
  tmpsmcr |= (uint32_t)(TIM_ExtTRGPrescaler | (TIM_ExtTRGPolarity | (ExtTRGFilter << 8U)));
 8002f3e:	ea42 2303 	orr.w	r3, r2, r3, lsl #8
 8002f42:	4323      	orrs	r3, r4

  /* Write to TIMx SMCR */
  TIMx->SMCR = tmpsmcr;
 8002f44:	6083      	str	r3, [r0, #8]
 8002f46:	bd10      	pop	{r4, pc}

08002f48 <HAL_TIM_ConfigClockSource>:
  __HAL_LOCK(htim);
 8002f48:	f890 303c 	ldrb.w	r3, [r0, #60]	; 0x3c
 8002f4c:	2b01      	cmp	r3, #1
{
 8002f4e:	b570      	push	{r4, r5, r6, lr}
 8002f50:	4604      	mov	r4, r0
 8002f52:	f04f 0002 	mov.w	r0, #2
  __HAL_LOCK(htim);
 8002f56:	d017      	beq.n	8002f88 <HAL_TIM_ConfigClockSource+0x40>
  htim->State = HAL_TIM_STATE_BUSY;
 8002f58:	f884 003d 	strb.w	r0, [r4, #61]	; 0x3d
  tmpsmcr = htim->Instance->SMCR;
 8002f5c:	6820      	ldr	r0, [r4, #0]
  __HAL_LOCK(htim);
 8002f5e:	2301      	movs	r3, #1
 8002f60:	f884 303c 	strb.w	r3, [r4, #60]	; 0x3c
  tmpsmcr = htim->Instance->SMCR;
 8002f64:	6882      	ldr	r2, [r0, #8]
  tmpsmcr &= ~(TIM_SMCR_ETF | TIM_SMCR_ETPS | TIM_SMCR_ECE | TIM_SMCR_ETP);
 8002f66:	4b48      	ldr	r3, [pc, #288]	; (8003088 <HAL_TIM_ConfigClockSource+0x140>)
 8002f68:	4013      	ands	r3, r2
  htim->Instance->SMCR = tmpsmcr;
 8002f6a:	6083      	str	r3, [r0, #8]
  switch (sClockSourceConfig->ClockSource)
 8002f6c:	680b      	ldr	r3, [r1, #0]
 8002f6e:	2b40      	cmp	r3, #64	; 0x40
 8002f70:	d072      	beq.n	8003058 <HAL_TIM_ConfigClockSource+0x110>
 8002f72:	d815      	bhi.n	8002fa0 <HAL_TIM_ConfigClockSource+0x58>
 8002f74:	2b10      	cmp	r3, #16
 8002f76:	d00c      	beq.n	8002f92 <HAL_TIM_ConfigClockSource+0x4a>
 8002f78:	d807      	bhi.n	8002f8a <HAL_TIM_ConfigClockSource+0x42>
 8002f7a:	b153      	cbz	r3, 8002f92 <HAL_TIM_ConfigClockSource+0x4a>
  htim->State = HAL_TIM_STATE_READY;
 8002f7c:	2301      	movs	r3, #1
  __HAL_UNLOCK(htim);
 8002f7e:	2000      	movs	r0, #0
  htim->State = HAL_TIM_STATE_READY;
 8002f80:	f884 303d 	strb.w	r3, [r4, #61]	; 0x3d
  __HAL_UNLOCK(htim);
 8002f84:	f884 003c 	strb.w	r0, [r4, #60]	; 0x3c
}
 8002f88:	bd70      	pop	{r4, r5, r6, pc}
  switch (sClockSourceConfig->ClockSource)
 8002f8a:	2b20      	cmp	r3, #32
 8002f8c:	d001      	beq.n	8002f92 <HAL_TIM_ConfigClockSource+0x4a>
 8002f8e:	2b30      	cmp	r3, #48	; 0x30
 8002f90:	d1f4      	bne.n	8002f7c <HAL_TIM_ConfigClockSource+0x34>
  tmpsmcr = TIMx->SMCR;
 8002f92:	6882      	ldr	r2, [r0, #8]
  tmpsmcr |= (InputTriggerSource | TIM_SLAVEMODE_EXTERNAL1);
 8002f94:	f043 0307 	orr.w	r3, r3, #7
  tmpsmcr &= ~TIM_SMCR_TS;
 8002f98:	f022 0270 	bic.w	r2, r2, #112	; 0x70
  tmpsmcr |= (InputTriggerSource | TIM_SLAVEMODE_EXTERNAL1);
 8002f9c:	4313      	orrs	r3, r2
 8002f9e:	e033      	b.n	8003008 <HAL_TIM_ConfigClockSource+0xc0>
  switch (sClockSourceConfig->ClockSource)
 8002fa0:	2b70      	cmp	r3, #112	; 0x70
 8002fa2:	d033      	beq.n	800300c <HAL_TIM_ConfigClockSource+0xc4>
 8002fa4:	d81b      	bhi.n	8002fde <HAL_TIM_ConfigClockSource+0x96>
 8002fa6:	2b50      	cmp	r3, #80	; 0x50
 8002fa8:	d03f      	beq.n	800302a <HAL_TIM_ConfigClockSource+0xe2>
 8002faa:	2b60      	cmp	r3, #96	; 0x60
 8002fac:	d1e6      	bne.n	8002f7c <HAL_TIM_ConfigClockSource+0x34>
      TIM_TI2_ConfigInputStage(htim->Instance,
 8002fae:	684d      	ldr	r5, [r1, #4]
 8002fb0:	68ce      	ldr	r6, [r1, #12]
  TIMx->CCER &= ~TIM_CCER_CC2E;
 8002fb2:	6a01      	ldr	r1, [r0, #32]
 8002fb4:	f021 0110 	bic.w	r1, r1, #16
 8002fb8:	6201      	str	r1, [r0, #32]
  tmpccmr1 = TIMx->CCMR1;
 8002fba:	6982      	ldr	r2, [r0, #24]
  tmpccer = TIMx->CCER;
 8002fbc:	6a03      	ldr	r3, [r0, #32]
  tmpccmr1 &= ~TIM_CCMR1_IC2F;
 8002fbe:	f422 4270 	bic.w	r2, r2, #61440	; 0xf000
  tmpccer &= ~(TIM_CCER_CC2P | TIM_CCER_CC2NP);
 8002fc2:	f023 03a0 	bic.w	r3, r3, #160	; 0xa0
  tmpccer |= (TIM_ICPolarity << 4U);
 8002fc6:	ea43 1305 	orr.w	r3, r3, r5, lsl #4
  tmpccmr1 |= (TIM_ICFilter << 12U);
 8002fca:	ea42 3206 	orr.w	r2, r2, r6, lsl #12
  TIMx->CCMR1 = tmpccmr1 ;
 8002fce:	6182      	str	r2, [r0, #24]
  TIMx->CCER = tmpccer;
 8002fd0:	6203      	str	r3, [r0, #32]
  tmpsmcr = TIMx->SMCR;
 8002fd2:	6883      	ldr	r3, [r0, #8]
  tmpsmcr &= ~TIM_SMCR_TS;
 8002fd4:	f023 0370 	bic.w	r3, r3, #112	; 0x70
  tmpsmcr |= (InputTriggerSource | TIM_SLAVEMODE_EXTERNAL1);
 8002fd8:	f043 0367 	orr.w	r3, r3, #103	; 0x67
 8002fdc:	e014      	b.n	8003008 <HAL_TIM_ConfigClockSource+0xc0>
  switch (sClockSourceConfig->ClockSource)
 8002fde:	f5b3 5f80 	cmp.w	r3, #4096	; 0x1000
 8002fe2:	d00c      	beq.n	8002ffe <HAL_TIM_ConfigClockSource+0xb6>
 8002fe4:	f5b3 5f00 	cmp.w	r3, #8192	; 0x2000
 8002fe8:	d1c8      	bne.n	8002f7c <HAL_TIM_ConfigClockSource+0x34>
      TIM_ETR_SetConfig(htim->Instance,
 8002fea:	68cb      	ldr	r3, [r1, #12]
 8002fec:	684a      	ldr	r2, [r1, #4]
 8002fee:	6889      	ldr	r1, [r1, #8]
 8002ff0:	f7ff ffa0 	bl	8002f34 <TIM_ETR_SetConfig>
      htim->Instance->SMCR |= TIM_SMCR_ECE;
 8002ff4:	6822      	ldr	r2, [r4, #0]
 8002ff6:	6893      	ldr	r3, [r2, #8]
 8002ff8:	f443 4380 	orr.w	r3, r3, #16384	; 0x4000
 8002ffc:	e013      	b.n	8003026 <HAL_TIM_ConfigClockSource+0xde>
      htim->Instance->SMCR &= ~TIM_SMCR_SMS;
 8002ffe:	6883      	ldr	r3, [r0, #8]
 8003000:	f423 3380 	bic.w	r3, r3, #65536	; 0x10000
 8003004:	f023 0307 	bic.w	r3, r3, #7
  TIMx->SMCR = tmpsmcr;
 8003008:	6083      	str	r3, [r0, #8]
 800300a:	e7b7      	b.n	8002f7c <HAL_TIM_ConfigClockSource+0x34>
      TIM_ETR_SetConfig(htim->Instance,
 800300c:	68cb      	ldr	r3, [r1, #12]
 800300e:	684a      	ldr	r2, [r1, #4]
 8003010:	6889      	ldr	r1, [r1, #8]
 8003012:	f7ff ff8f 	bl	8002f34 <TIM_ETR_SetConfig>
      tmpsmcr = htim->Instance->SMCR;
 8003016:	6822      	ldr	r2, [r4, #0]
 8003018:	6893      	ldr	r3, [r2, #8]
      tmpsmcr &= ~(TIM_SMCR_SMS | TIM_SMCR_TS);
 800301a:	f423 3380 	bic.w	r3, r3, #65536	; 0x10000
 800301e:	f023 0377 	bic.w	r3, r3, #119	; 0x77
      tmpsmcr |= (TIM_SLAVEMODE_EXTERNAL1 | TIM_CLOCKSOURCE_ETRMODE1);
 8003022:	f043 0377 	orr.w	r3, r3, #119	; 0x77
      htim->Instance->SMCR |= TIM_SMCR_ECE;
 8003026:	6093      	str	r3, [r2, #8]
      break;
 8003028:	e7a8      	b.n	8002f7c <HAL_TIM_ConfigClockSource+0x34>
      TIM_TI1_ConfigInputStage(htim->Instance,
 800302a:	684a      	ldr	r2, [r1, #4]
 800302c:	68ce      	ldr	r6, [r1, #12]
  tmpccer = TIMx->CCER;
 800302e:	6a01      	ldr	r1, [r0, #32]
  TIMx->CCER &= ~TIM_CCER_CC1E;
 8003030:	6a05      	ldr	r5, [r0, #32]
 8003032:	f025 0501 	bic.w	r5, r5, #1
 8003036:	6205      	str	r5, [r0, #32]
  tmpccmr1 = TIMx->CCMR1;
 8003038:	6983      	ldr	r3, [r0, #24]
  tmpccer &= ~(TIM_CCER_CC1P | TIM_CCER_CC1NP);
 800303a:	f021 010a 	bic.w	r1, r1, #10
  tmpccmr1 &= ~TIM_CCMR1_IC1F;
 800303e:	f023 03f0 	bic.w	r3, r3, #240	; 0xf0
  tmpccmr1 |= (TIM_ICFilter << 4U);
 8003042:	ea43 1306 	orr.w	r3, r3, r6, lsl #4
  tmpccer |= TIM_ICPolarity;
 8003046:	430a      	orrs	r2, r1
  TIMx->CCMR1 = tmpccmr1;
 8003048:	6183      	str	r3, [r0, #24]
  TIMx->CCER = tmpccer;
 800304a:	6202      	str	r2, [r0, #32]
  tmpsmcr = TIMx->SMCR;
 800304c:	6883      	ldr	r3, [r0, #8]
  tmpsmcr &= ~TIM_SMCR_TS;
 800304e:	f023 0370 	bic.w	r3, r3, #112	; 0x70
  tmpsmcr |= (InputTriggerSource | TIM_SLAVEMODE_EXTERNAL1);
 8003052:	f043 0357 	orr.w	r3, r3, #87	; 0x57
 8003056:	e7d7      	b.n	8003008 <HAL_TIM_ConfigClockSource+0xc0>
      TIM_TI1_ConfigInputStage(htim->Instance,
 8003058:	684a      	ldr	r2, [r1, #4]
 800305a:	68ce      	ldr	r6, [r1, #12]
  tmpccer = TIMx->CCER;
 800305c:	6a01      	ldr	r1, [r0, #32]
  TIMx->CCER &= ~TIM_CCER_CC1E;
 800305e:	6a05      	ldr	r5, [r0, #32]
 8003060:	f025 0501 	bic.w	r5, r5, #1
 8003064:	6205      	str	r5, [r0, #32]
  tmpccmr1 = TIMx->CCMR1;
 8003066:	6983      	ldr	r3, [r0, #24]
  tmpccer &= ~(TIM_CCER_CC1P | TIM_CCER_CC1NP);
 8003068:	f021 010a 	bic.w	r1, r1, #10
  tmpccmr1 &= ~TIM_CCMR1_IC1F;
 800306c:	f023 03f0 	bic.w	r3, r3, #240	; 0xf0
  tmpccmr1 |= (TIM_ICFilter << 4U);
 8003070:	ea43 1306 	orr.w	r3, r3, r6, lsl #4
  tmpccer |= TIM_ICPolarity;
 8003074:	430a      	orrs	r2, r1
  TIMx->CCMR1 = tmpccmr1;
 8003076:	6183      	str	r3, [r0, #24]
  TIMx->CCER = tmpccer;
 8003078:	6202      	str	r2, [r0, #32]
  tmpsmcr = TIMx->SMCR;
 800307a:	6883      	ldr	r3, [r0, #8]
  tmpsmcr &= ~TIM_SMCR_TS;
 800307c:	f023 0370 	bic.w	r3, r3, #112	; 0x70
  tmpsmcr |= (InputTriggerSource | TIM_SLAVEMODE_EXTERNAL1);
 8003080:	f043 0347 	orr.w	r3, r3, #71	; 0x47
 8003084:	e7c0      	b.n	8003008 <HAL_TIM_ConfigClockSource+0xc0>
 8003086:	bf00      	nop
 8003088:	fffe0088 	.word	0xfffe0088

0800308c <HAL_TIMEx_MasterConfigSynchronization>:
  assert_param(IS_TIM_SYNCHRO_INSTANCE(htim->Instance));
  assert_param(IS_TIM_TRGO_SOURCE(sMasterConfig->MasterOutputTrigger));
  assert_param(IS_TIM_MSM_STATE(sMasterConfig->MasterSlaveMode));

  /* Check input state */
  __HAL_LOCK(htim);
 800308c:	f890 303c 	ldrb.w	r3, [r0, #60]	; 0x3c
 8003090:	2b01      	cmp	r3, #1
{
 8003092:	b530      	push	{r4, r5, lr}
 8003094:	f04f 0302 	mov.w	r3, #2
  __HAL_LOCK(htim);
 8003098:	d01f      	beq.n	80030da <HAL_TIMEx_MasterConfigSynchronization+0x4e>

  /* Change the handler state */
  htim->State = HAL_TIM_STATE_BUSY;

  /* Get the TIMx CR2 register value */
  tmpcr2 = htim->Instance->CR2;
 800309a:	6802      	ldr	r2, [r0, #0]

  /* Get the TIMx SMCR register value */
  tmpsmcr = htim->Instance->SMCR;

  /* If the timer supports ADC synchronization through TRGO2, set the master mode selection 2 */
  if (IS_TIM_TRGO2_INSTANCE(htim->Instance))
 800309c:	4d10      	ldr	r5, [pc, #64]	; (80030e0 <HAL_TIMEx_MasterConfigSynchronization+0x54>)
  htim->State = HAL_TIM_STATE_BUSY;
 800309e:	f880 303d 	strb.w	r3, [r0, #61]	; 0x3d
  if (IS_TIM_TRGO2_INSTANCE(htim->Instance))
 80030a2:	42aa      	cmp	r2, r5
  tmpcr2 = htim->Instance->CR2;
 80030a4:	6853      	ldr	r3, [r2, #4]
  tmpsmcr = htim->Instance->SMCR;
 80030a6:	6894      	ldr	r4, [r2, #8]
  if (IS_TIM_TRGO2_INSTANCE(htim->Instance))
 80030a8:	d003      	beq.n	80030b2 <HAL_TIMEx_MasterConfigSynchronization+0x26>
 80030aa:	f505 6500 	add.w	r5, r5, #2048	; 0x800
 80030ae:	42aa      	cmp	r2, r5
 80030b0:	d103      	bne.n	80030ba <HAL_TIMEx_MasterConfigSynchronization+0x2e>
    assert_param(IS_TIM_TRGO2_SOURCE(sMasterConfig->MasterOutputTrigger2));

    /* Clear the MMS2 bits */
    tmpcr2 &= ~TIM_CR2_MMS2;
    /* Select the TRGO2 source*/
    tmpcr2 |= sMasterConfig->MasterOutputTrigger2;
 80030b2:	684d      	ldr	r5, [r1, #4]
    tmpcr2 &= ~TIM_CR2_MMS2;
 80030b4:	f423 0370 	bic.w	r3, r3, #15728640	; 0xf00000
    tmpcr2 |= sMasterConfig->MasterOutputTrigger2;
 80030b8:	432b      	orrs	r3, r5
  }

  /* Reset the MMS Bits */
  tmpcr2 &= ~TIM_CR2_MMS;
  /* Select the TRGO source */
  tmpcr2 |=  sMasterConfig->MasterOutputTrigger;
 80030ba:	680d      	ldr	r5, [r1, #0]

  /* Reset the MSM Bit */
  tmpsmcr &= ~TIM_SMCR_MSM;
  /* Set master mode */
  tmpsmcr |= sMasterConfig->MasterSlaveMode;
 80030bc:	6889      	ldr	r1, [r1, #8]
  tmpcr2 &= ~TIM_CR2_MMS;
 80030be:	f023 0370 	bic.w	r3, r3, #112	; 0x70
  tmpcr2 |=  sMasterConfig->MasterOutputTrigger;
 80030c2:	432b      	orrs	r3, r5
  tmpsmcr &= ~TIM_SMCR_MSM;
 80030c4:	f024 0480 	bic.w	r4, r4, #128	; 0x80

  /* Update TIMx CR2 */
  htim->Instance->CR2 = tmpcr2;
 80030c8:	6053      	str	r3, [r2, #4]
  tmpsmcr |= sMasterConfig->MasterSlaveMode;
 80030ca:	4321      	orrs	r1, r4

  /* Update TIMx SMCR */
  htim->Instance->SMCR = tmpsmcr;

  /* Change the htim state */
  htim->State = HAL_TIM_STATE_READY;
 80030cc:	2301      	movs	r3, #1
  htim->Instance->SMCR = tmpsmcr;
 80030ce:	6091      	str	r1, [r2, #8]
  htim->State = HAL_TIM_STATE_READY;
 80030d0:	f880 303d 	strb.w	r3, [r0, #61]	; 0x3d

  __HAL_UNLOCK(htim);
 80030d4:	2300      	movs	r3, #0
 80030d6:	f880 303c 	strb.w	r3, [r0, #60]	; 0x3c
  __HAL_LOCK(htim);
 80030da:	4618      	mov	r0, r3

  return HAL_OK;
}
 80030dc:	bd30      	pop	{r4, r5, pc}
 80030de:	bf00      	nop
 80030e0:	40012c00 	.word	0x40012c00

080030e4 <HAL_TIMEx_CommutationCallback>:
 80030e4:	4770      	bx	lr

080030e6 <HAL_TIMEx_BreakCallback>:
 80030e6:	4770      	bx	lr

080030e8 <HAL_TIMEx_Break2Callback>:
  * @brief  Hall Break2 detection callback in non blocking mode
  * @param  htim: TIM handle
  * @retval None
  */
__weak void HAL_TIMEx_Break2Callback(TIM_HandleTypeDef *htim)
{
 80030e8:	4770      	bx	lr
	...

080030ec <UART_SetConfig>:
  uint32_t lpuart_ker_ck_pres         = 0x00000000U;

  /* Check the parameters */
  assert_param(IS_UART_BAUDRATE(huart->Init.BaudRate));
  assert_param(IS_UART_WORD_LENGTH(huart->Init.WordLength));
  if (UART_INSTANCE_LOWPOWER(huart))
 80030ec:	6802      	ldr	r2, [r0, #0]
  *  the UART Word Length, Parity, Mode and oversampling:
  *  set the M bits according to huart->Init.WordLength value
  *  set PCE and PS bits according to huart->Init.Parity value
  *  set TE and RE bits according to huart->Init.Mode value
  *  set OVER8 bit according to huart->Init.OverSampling value */
  tmpreg = (uint32_t)huart->Init.WordLength | huart->Init.Parity | huart->Init.Mode | huart->Init.OverSampling ;
 80030ee:	69c1      	ldr	r1, [r0, #28]
{
 80030f0:	b5f8      	push	{r3, r4, r5, r6, r7, lr}
 80030f2:	4604      	mov	r4, r0
  tmpreg = (uint32_t)huart->Init.WordLength | huart->Init.Parity | huart->Init.Mode | huart->Init.OverSampling ;
 80030f4:	6883      	ldr	r3, [r0, #8]
 80030f6:	6900      	ldr	r0, [r0, #16]
#if defined(USART_CR1_FIFOEN)
  tmpreg |= (uint32_t)huart->FifoMode;
#endif
  MODIFY_REG(huart->Instance->CR1, USART_CR1_FIELDS, tmpreg);
 80030f8:	6815      	ldr	r5, [r2, #0]
  tmpreg = (uint32_t)huart->Init.WordLength | huart->Init.Parity | huart->Init.Mode | huart->Init.OverSampling ;
 80030fa:	4303      	orrs	r3, r0
 80030fc:	6960      	ldr	r0, [r4, #20]
 80030fe:	4303      	orrs	r3, r0
  MODIFY_REG(huart->Instance->CR1, USART_CR1_FIELDS, tmpreg);
 8003100:	48ba      	ldr	r0, [pc, #744]	; (80033ec <UART_SetConfig+0x300>)
  tmpreg = (uint32_t)huart->Init.WordLength | huart->Init.Parity | huart->Init.Mode | huart->Init.OverSampling ;
 8003102:	430b      	orrs	r3, r1
  MODIFY_REG(huart->Instance->CR1, USART_CR1_FIELDS, tmpreg);
 8003104:	4028      	ands	r0, r5
 8003106:	4303      	orrs	r3, r0
 8003108:	6013      	str	r3, [r2, #0]

  /*-------------------------- USART CR2 Configuration -----------------------*/
  /* Configure the UART Stop Bits: Set STOP[13:12] bits according
  * to huart->Init.StopBits value */
  MODIFY_REG(huart->Instance->CR2, USART_CR2_STOP, huart->Init.StopBits);
 800310a:	6853      	ldr	r3, [r2, #4]
 800310c:	68e0      	ldr	r0, [r4, #12]
 800310e:	f423 5340 	bic.w	r3, r3, #12288	; 0x3000
 8003112:	4303      	orrs	r3, r0
 8003114:	6053      	str	r3, [r2, #4]
  *   to huart->Init.HwFlowCtl value
  * - one-bit sampling method versus three samples' majority rule according
  *   to huart->Init.OneBitSampling (not applicable to LPUART) */
  tmpreg = (uint32_t)huart->Init.HwFlowCtl;

  if (!(UART_INSTANCE_LOWPOWER(huart)))
 8003116:	4bb6      	ldr	r3, [pc, #728]	; (80033f0 <UART_SetConfig+0x304>)
  tmpreg = (uint32_t)huart->Init.HwFlowCtl;
 8003118:	69a0      	ldr	r0, [r4, #24]
  if (!(UART_INSTANCE_LOWPOWER(huart)))
 800311a:	429a      	cmp	r2, r3
  {
    tmpreg |= huart->Init.OneBitSampling;
 800311c:	bf1c      	itt	ne
 800311e:	6a23      	ldrne	r3, [r4, #32]
 8003120:	4318      	orrne	r0, r3
  }
  MODIFY_REG(huart->Instance->CR3, USART_CR3_FIELDS, tmpreg);
 8003122:	6893      	ldr	r3, [r2, #8]
 8003124:	f423 6330 	bic.w	r3, r3, #2816	; 0xb00
 8003128:	4303      	orrs	r3, r0
 800312a:	6093      	str	r3, [r2, #8]
  * - UART Clock Prescaler : set PRESCALER according to huart->Init.ClockPrescaler value */
  MODIFY_REG(huart->Instance->PRESC, USART_PRESC_PRESCALER, huart->Init.ClockPrescaler);
#endif

  /*-------------------------- USART BRR Configuration -----------------------*/
  UART_GETCLOCKSOURCE(huart, clocksource);
 800312c:	4bb1      	ldr	r3, [pc, #708]	; (80033f4 <UART_SetConfig+0x308>)
 800312e:	429a      	cmp	r2, r3
 8003130:	d119      	bne.n	8003166 <UART_SetConfig+0x7a>
 8003132:	f503 4358 	add.w	r3, r3, #55296	; 0xd800
 8003136:	4ab0      	ldr	r2, [pc, #704]	; (80033f8 <UART_SetConfig+0x30c>)
 8003138:	f8d3 3088 	ldr.w	r3, [r3, #136]	; 0x88
 800313c:	f003 0303 	and.w	r3, r3, #3
        }
      }  /*   if ( (tmpreg < (3 * huart->Init.BaudRate) ) || (tmpreg > (4096 * huart->Init.BaudRate) )) */
    } /* if (tmpreg != 0) */
  }
  /* Check UART Over Sampling to set Baud Rate Register */
  else if (huart->Init.OverSampling == UART_OVERSAMPLING_8)
 8003140:	f5b1 4f00 	cmp.w	r1, #32768	; 0x8000
 8003144:	5cd3      	ldrb	r3, [r2, r3]
 8003146:	f040 8138 	bne.w	80033ba <UART_SetConfig+0x2ce>
  {
    switch (clocksource)
 800314a:	2b08      	cmp	r3, #8
 800314c:	f200 808f 	bhi.w	800326e <UART_SetConfig+0x182>
 8003150:	e8df f013 	tbh	[pc, r3, lsl #1]
 8003154:	00ca011a 	.word	0x00ca011a
 8003158:	008d00f9 	.word	0x008d00f9
 800315c:	008d0114 	.word	0x008d0114
 8003160:	008d008d 	.word	0x008d008d
 8003164:	0036      	.short	0x0036
  UART_GETCLOCKSOURCE(huart, clocksource);
 8003166:	4ba5      	ldr	r3, [pc, #660]	; (80033fc <UART_SetConfig+0x310>)
 8003168:	429a      	cmp	r2, r3
 800316a:	d107      	bne.n	800317c <UART_SetConfig+0x90>
 800316c:	f503 33e6 	add.w	r3, r3, #117760	; 0x1cc00
 8003170:	4aa3      	ldr	r2, [pc, #652]	; (8003400 <UART_SetConfig+0x314>)
 8003172:	f8d3 3088 	ldr.w	r3, [r3, #136]	; 0x88
 8003176:	f003 030c 	and.w	r3, r3, #12
 800317a:	e7e1      	b.n	8003140 <UART_SetConfig+0x54>
 800317c:	4ba1      	ldr	r3, [pc, #644]	; (8003404 <UART_SetConfig+0x318>)
 800317e:	429a      	cmp	r2, r3
 8003180:	d123      	bne.n	80031ca <UART_SetConfig+0xde>
 8003182:	f503 33e4 	add.w	r3, r3, #116736	; 0x1c800
 8003186:	f8d3 3088 	ldr.w	r3, [r3, #136]	; 0x88
 800318a:	f003 0330 	and.w	r3, r3, #48	; 0x30
 800318e:	2b10      	cmp	r3, #16
 8003190:	f000 80f1 	beq.w	8003376 <UART_SetConfig+0x28a>
 8003194:	d80b      	bhi.n	80031ae <UART_SetConfig+0xc2>
 8003196:	2b00      	cmp	r3, #0
 8003198:	f000 80f3 	beq.w	8003382 <UART_SetConfig+0x296>
  else if (huart->Init.OverSampling == UART_OVERSAMPLING_8)
 800319c:	f5b1 4f00 	cmp.w	r1, #32768	; 0x8000
        usartdiv = (uint16_t)(UART_DIV_SAMPLING8(LSE_VALUE, huart->Init.BaudRate));
#endif
        break;
      case UART_CLOCKSOURCE_UNDEFINED:
      default:
        ret = HAL_ERROR;
 80031a0:	f04f 0201 	mov.w	r2, #1
  uint32_t usartdiv                   = 0x00000000U;
 80031a4:	f04f 0300 	mov.w	r3, #0
  else if (huart->Init.OverSampling == UART_OVERSAMPLING_8)
 80031a8:	f000 80f8 	beq.w	800339c <UART_SetConfig+0x2b0>
 80031ac:	e0a8      	b.n	8003300 <UART_SetConfig+0x214>
  UART_GETCLOCKSOURCE(huart, clocksource);
 80031ae:	2b20      	cmp	r3, #32
 80031b0:	f000 80c6 	beq.w	8003340 <UART_SetConfig+0x254>
 80031b4:	2b30      	cmp	r3, #48	; 0x30
 80031b6:	d1f1      	bne.n	800319c <UART_SetConfig+0xb0>
  else if (huart->Init.OverSampling == UART_OVERSAMPLING_8)
 80031b8:	f5b1 4f00 	cmp.w	r1, #32768	; 0x8000
 80031bc:	f040 80b8 	bne.w	8003330 <UART_SetConfig+0x244>
        usartdiv = (uint16_t)(UART_DIV_SAMPLING8(LSE_VALUE, huart->Init.BaudRate));
 80031c0:	6860      	ldr	r0, [r4, #4]
 80031c2:	0843      	lsrs	r3, r0, #1
 80031c4:	f503 3380 	add.w	r3, r3, #65536	; 0x10000
 80031c8:	e0c3      	b.n	8003352 <UART_SetConfig+0x266>
  UART_GETCLOCKSOURCE(huart, clocksource);
 80031ca:	4b8f      	ldr	r3, [pc, #572]	; (8003408 <UART_SetConfig+0x31c>)
 80031cc:	429a      	cmp	r2, r3
 80031ce:	d11e      	bne.n	800320e <UART_SetConfig+0x122>
 80031d0:	f503 33e2 	add.w	r3, r3, #115712	; 0x1c400
 80031d4:	f8d3 3088 	ldr.w	r3, [r3, #136]	; 0x88
 80031d8:	f003 03c0 	and.w	r3, r3, #192	; 0xc0
 80031dc:	2b40      	cmp	r3, #64	; 0x40
 80031de:	f000 80bb 	beq.w	8003358 <UART_SetConfig+0x26c>
 80031e2:	d80a      	bhi.n	80031fa <UART_SetConfig+0x10e>
 80031e4:	b97b      	cbnz	r3, 8003206 <UART_SetConfig+0x11a>
  if (UART_INSTANCE_LOWPOWER(huart))
 80031e6:	4b82      	ldr	r3, [pc, #520]	; (80033f0 <UART_SetConfig+0x304>)
 80031e8:	429a      	cmp	r2, r3
 80031ea:	f040 80ca 	bne.w	8003382 <UART_SetConfig+0x296>
        lpuart_ker_ck_pres = HAL_RCC_GetPCLK1Freq();
 80031ee:	f7ff fa3d 	bl	800266c <HAL_RCC_GetPCLK1Freq>
        break;
 80031f2:	2300      	movs	r3, #0
    if (lpuart_ker_ck_pres != 0U)
 80031f4:	bbb0      	cbnz	r0, 8003264 <UART_SetConfig+0x178>
 80031f6:	4602      	mov	r2, r0
 80031f8:	e03a      	b.n	8003270 <UART_SetConfig+0x184>
  UART_GETCLOCKSOURCE(huart, clocksource);
 80031fa:	2b80      	cmp	r3, #128	; 0x80
 80031fc:	f000 809d 	beq.w	800333a <UART_SetConfig+0x24e>
 8003200:	2bc0      	cmp	r3, #192	; 0xc0
 8003202:	f000 80b0 	beq.w	8003366 <UART_SetConfig+0x27a>
  if (UART_INSTANCE_LOWPOWER(huart))
 8003206:	4b7a      	ldr	r3, [pc, #488]	; (80033f0 <UART_SetConfig+0x304>)
 8003208:	429a      	cmp	r2, r3
 800320a:	d1c7      	bne.n	800319c <UART_SetConfig+0xb0>
 800320c:	e02f      	b.n	800326e <UART_SetConfig+0x182>
  UART_GETCLOCKSOURCE(huart, clocksource);
 800320e:	4b7f      	ldr	r3, [pc, #508]	; (800340c <UART_SetConfig+0x320>)
 8003210:	429a      	cmp	r2, r3
 8003212:	d111      	bne.n	8003238 <UART_SetConfig+0x14c>
 8003214:	f503 33e0 	add.w	r3, r3, #114688	; 0x1c000
 8003218:	f8d3 3088 	ldr.w	r3, [r3, #136]	; 0x88
 800321c:	f403 7340 	and.w	r3, r3, #768	; 0x300
 8003220:	f5b3 7f80 	cmp.w	r3, #256	; 0x100
 8003224:	f000 8098 	beq.w	8003358 <UART_SetConfig+0x26c>
 8003228:	d9dc      	bls.n	80031e4 <UART_SetConfig+0xf8>
 800322a:	f5b3 7f00 	cmp.w	r3, #512	; 0x200
 800322e:	f000 8084 	beq.w	800333a <UART_SetConfig+0x24e>
 8003232:	f5b3 7f40 	cmp.w	r3, #768	; 0x300
 8003236:	e7e4      	b.n	8003202 <UART_SetConfig+0x116>
 8003238:	4b6d      	ldr	r3, [pc, #436]	; (80033f0 <UART_SetConfig+0x304>)
 800323a:	429a      	cmp	r2, r3
 800323c:	d1ae      	bne.n	800319c <UART_SetConfig+0xb0>
 800323e:	f503 33c8 	add.w	r3, r3, #102400	; 0x19000
 8003242:	f8d3 3088 	ldr.w	r3, [r3, #136]	; 0x88
 8003246:	f403 6340 	and.w	r3, r3, #3072	; 0xc00
 800324a:	f5b3 6f80 	cmp.w	r3, #1024	; 0x400
 800324e:	f000 8083 	beq.w	8003358 <UART_SetConfig+0x26c>
 8003252:	d9c7      	bls.n	80031e4 <UART_SetConfig+0xf8>
 8003254:	f5b3 6f00 	cmp.w	r3, #2048	; 0x800
 8003258:	d06f      	beq.n	800333a <UART_SetConfig+0x24e>
 800325a:	f5b3 6f40 	cmp.w	r3, #3072	; 0xc00
 800325e:	e7d0      	b.n	8003202 <UART_SetConfig+0x116>
        lpuart_ker_ck_pres = (uint32_t)HSI_VALUE;
 8003260:	486b      	ldr	r0, [pc, #428]	; (8003410 <UART_SetConfig+0x324>)
  if (UART_INSTANCE_LOWPOWER(huart))
 8003262:	2302      	movs	r3, #2
      if ((lpuart_ker_ck_pres < (3 * huart->Init.BaudRate)) ||
 8003264:	6862      	ldr	r2, [r4, #4]
 8003266:	eb02 0142 	add.w	r1, r2, r2, lsl #1
 800326a:	4281      	cmp	r1, r0
 800326c:	d905      	bls.n	800327a <UART_SetConfig+0x18e>
        ret = HAL_ERROR;
 800326e:	2201      	movs	r2, #1
  huart->NbTxDataToProcess = 1;
  huart->NbRxDataToProcess = 1;
#endif

  /* Clear ISR function pointers */
  huart->RxISR = NULL;
 8003270:	2300      	movs	r3, #0
 8003272:	6623      	str	r3, [r4, #96]	; 0x60
  huart->TxISR = NULL;
 8003274:	6663      	str	r3, [r4, #100]	; 0x64

  return ret;
}
 8003276:	4610      	mov	r0, r2
 8003278:	bdf8      	pop	{r3, r4, r5, r6, r7, pc}
      if ((lpuart_ker_ck_pres < (3 * huart->Init.BaudRate)) ||
 800327a:	ebb0 3f02 	cmp.w	r0, r2, lsl #12
 800327e:	d8f6      	bhi.n	800326e <UART_SetConfig+0x182>
        switch (clocksource)
 8003280:	2b08      	cmp	r3, #8
 8003282:	d82e      	bhi.n	80032e2 <UART_SetConfig+0x1f6>
 8003284:	e8df f003 	tbb	[pc, r3]
 8003288:	2d1c2d05 	.word	0x2d1c2d05
 800328c:	2d2d2d24 	.word	0x2d2d2d24
 8003290:	27          	.byte	0x27
 8003291:	00          	.byte	0x00
            usartdiv = (uint32_t)(UART_DIV_LPUART(HAL_RCC_GetPCLK1Freq(), huart->Init.BaudRate));
 8003292:	f7ff f9eb 	bl	800266c <HAL_RCC_GetPCLK1Freq>
            usartdiv = (uint32_t)(UART_DIV_LPUART(HAL_RCC_GetSysClockFreq(), huart->Init.BaudRate));
 8003296:	6862      	ldr	r2, [r4, #4]
 8003298:	f44f 7180 	mov.w	r1, #256	; 0x100
 800329c:	0856      	lsrs	r6, r2, #1
 800329e:	2700      	movs	r7, #0
 80032a0:	fbe1 6700 	umlal	r6, r7, r1, r0
 80032a4:	2300      	movs	r3, #0
 80032a6:	4630      	mov	r0, r6
 80032a8:	4639      	mov	r1, r7
            usartdiv = (uint32_t)(UART_DIV_LPUART(LSE_VALUE, huart->Init.BaudRate));
 80032aa:	f7fc ffe1 	bl	8000270 <__aeabi_uldivmod>
            break;
 80032ae:	2200      	movs	r2, #0
        if ((usartdiv >= LPUART_BRR_MIN) && (usartdiv <= LPUART_BRR_MAX))
 80032b0:	4b58      	ldr	r3, [pc, #352]	; (8003414 <UART_SetConfig+0x328>)
 80032b2:	f5a0 7140 	sub.w	r1, r0, #768	; 0x300
 80032b6:	4299      	cmp	r1, r3
 80032b8:	d8d9      	bhi.n	800326e <UART_SetConfig+0x182>
          huart->Instance->BRR = usartdiv;
 80032ba:	6823      	ldr	r3, [r4, #0]
 80032bc:	60d8      	str	r0, [r3, #12]
 80032be:	e7d7      	b.n	8003270 <UART_SetConfig+0x184>
            usartdiv = (uint32_t)(UART_DIV_LPUART(HSI_VALUE, huart->Init.BaudRate));
 80032c0:	4855      	ldr	r0, [pc, #340]	; (8003418 <UART_SetConfig+0x32c>)
 80032c2:	0855      	lsrs	r5, r2, #1
 80032c4:	2300      	movs	r3, #0
 80032c6:	2100      	movs	r1, #0
 80032c8:	1940      	adds	r0, r0, r5
            usartdiv = (uint32_t)(UART_DIV_LPUART(LSE_VALUE, huart->Init.BaudRate));
 80032ca:	f141 0100 	adc.w	r1, r1, #0
 80032ce:	e7ec      	b.n	80032aa <UART_SetConfig+0x1be>
            usartdiv = (uint32_t)(UART_DIV_LPUART(HAL_RCC_GetSysClockFreq(), huart->Init.BaudRate));
 80032d0:	f7fe fec0 	bl	8002054 <HAL_RCC_GetSysClockFreq>
 80032d4:	e7df      	b.n	8003296 <UART_SetConfig+0x1aa>
            usartdiv = (uint32_t)(UART_DIV_LPUART(LSE_VALUE, huart->Init.BaudRate));
 80032d6:	0850      	lsrs	r0, r2, #1
 80032d8:	2100      	movs	r1, #0
 80032da:	2300      	movs	r3, #0
 80032dc:	f510 0000 	adds.w	r0, r0, #8388608	; 0x800000
 80032e0:	e7f3      	b.n	80032ca <UART_SetConfig+0x1de>
            ret = HAL_ERROR;
 80032e2:	2201      	movs	r2, #1
  uint32_t usartdiv                   = 0x00000000U;
 80032e4:	2000      	movs	r0, #0
 80032e6:	e7e3      	b.n	80032b0 <UART_SetConfig+0x1c4>
        usartdiv = (uint16_t)(UART_DIV_SAMPLING8(HAL_RCC_GetPCLK2Freq(), huart->Init.BaudRate));
 80032e8:	f7ff f9d2 	bl	8002690 <HAL_RCC_GetPCLK2Freq>
 80032ec:	e04e      	b.n	800338c <UART_SetConfig+0x2a0>
        usartdiv = (uint16_t)(UART_DIV_SAMPLING16(HAL_RCC_GetPCLK1Freq(), huart->Init.BaudRate));
 80032ee:	f7ff f9bd 	bl	800266c <HAL_RCC_GetPCLK1Freq>
        usartdiv = (uint16_t)(UART_DIV_SAMPLING16(HAL_RCC_GetSysClockFreq(), huart->Init.BaudRate));
 80032f2:	6862      	ldr	r2, [r4, #4]
 80032f4:	eb00 0352 	add.w	r3, r0, r2, lsr #1
 80032f8:	fbb3 f3f2 	udiv	r3, r3, r2
 80032fc:	b29b      	uxth	r3, r3
  HAL_StatusTypeDef ret               = HAL_OK;
 80032fe:	2200      	movs	r2, #0
    if ((usartdiv >= UART_BRR_MIN) && (usartdiv <= UART_BRR_MAX))
 8003300:	f1a3 0010 	sub.w	r0, r3, #16
 8003304:	f64f 71ef 	movw	r1, #65519	; 0xffef
 8003308:	4288      	cmp	r0, r1
 800330a:	d8b0      	bhi.n	800326e <UART_SetConfig+0x182>
      huart->Instance->BRR = usartdiv;
 800330c:	6821      	ldr	r1, [r4, #0]
 800330e:	60cb      	str	r3, [r1, #12]
 8003310:	e7ae      	b.n	8003270 <UART_SetConfig+0x184>
        usartdiv = (uint16_t)(UART_DIV_SAMPLING16(HAL_RCC_GetPCLK2Freq(), huart->Init.BaudRate));
 8003312:	f7ff f9bd 	bl	8002690 <HAL_RCC_GetPCLK2Freq>
 8003316:	e7ec      	b.n	80032f2 <UART_SetConfig+0x206>
        usartdiv = (uint16_t)(UART_DIV_SAMPLING16(HSI_VALUE, huart->Init.BaudRate));
 8003318:	6860      	ldr	r0, [r4, #4]
 800331a:	0843      	lsrs	r3, r0, #1
 800331c:	f503 0374 	add.w	r3, r3, #15990784	; 0xf40000
 8003320:	f503 5310 	add.w	r3, r3, #9216	; 0x2400
        usartdiv = (uint16_t)(UART_DIV_SAMPLING16(LSE_VALUE, huart->Init.BaudRate));
 8003324:	fbb3 f3f0 	udiv	r3, r3, r0
 8003328:	e7e8      	b.n	80032fc <UART_SetConfig+0x210>
        usartdiv = (uint16_t)(UART_DIV_SAMPLING16(HAL_RCC_GetSysClockFreq(), huart->Init.BaudRate));
 800332a:	f7fe fe93 	bl	8002054 <HAL_RCC_GetSysClockFreq>
 800332e:	e7e0      	b.n	80032f2 <UART_SetConfig+0x206>
        usartdiv = (uint16_t)(UART_DIV_SAMPLING16(LSE_VALUE, huart->Init.BaudRate));
 8003330:	6860      	ldr	r0, [r4, #4]
 8003332:	0843      	lsrs	r3, r0, #1
 8003334:	f503 4300 	add.w	r3, r3, #32768	; 0x8000
 8003338:	e7f4      	b.n	8003324 <UART_SetConfig+0x238>
  if (UART_INSTANCE_LOWPOWER(huart))
 800333a:	4b2d      	ldr	r3, [pc, #180]	; (80033f0 <UART_SetConfig+0x304>)
 800333c:	429a      	cmp	r2, r3
 800333e:	d08f      	beq.n	8003260 <UART_SetConfig+0x174>
  else if (huart->Init.OverSampling == UART_OVERSAMPLING_8)
 8003340:	f5b1 4f00 	cmp.w	r1, #32768	; 0x8000
 8003344:	d1e8      	bne.n	8003318 <UART_SetConfig+0x22c>
        usartdiv = (uint16_t)(UART_DIV_SAMPLING8(HSI_VALUE, huart->Init.BaudRate));
 8003346:	6860      	ldr	r0, [r4, #4]
 8003348:	0843      	lsrs	r3, r0, #1
 800334a:	f103 73f4 	add.w	r3, r3, #31981568	; 0x1e80000
 800334e:	f503 4390 	add.w	r3, r3, #18432	; 0x4800
        usartdiv = (uint16_t)(UART_DIV_SAMPLING8(LSE_VALUE, huart->Init.BaudRate));
 8003352:	fbb3 f3f0 	udiv	r3, r3, r0
 8003356:	e01f      	b.n	8003398 <UART_SetConfig+0x2ac>
  if (UART_INSTANCE_LOWPOWER(huart))
 8003358:	4b25      	ldr	r3, [pc, #148]	; (80033f0 <UART_SetConfig+0x304>)
 800335a:	429a      	cmp	r2, r3
 800335c:	d10b      	bne.n	8003376 <UART_SetConfig+0x28a>
        lpuart_ker_ck_pres = HAL_RCC_GetSysClockFreq();
 800335e:	f7fe fe79 	bl	8002054 <HAL_RCC_GetSysClockFreq>
        break;
 8003362:	2304      	movs	r3, #4
 8003364:	e746      	b.n	80031f4 <UART_SetConfig+0x108>
  if (UART_INSTANCE_LOWPOWER(huart))
 8003366:	4b22      	ldr	r3, [pc, #136]	; (80033f0 <UART_SetConfig+0x304>)
 8003368:	429a      	cmp	r2, r3
 800336a:	f47f af25 	bne.w	80031b8 <UART_SetConfig+0xcc>
        lpuart_ker_ck_pres = (uint32_t)LSE_VALUE;
 800336e:	f44f 4000 	mov.w	r0, #32768	; 0x8000
  if (UART_INSTANCE_LOWPOWER(huart))
 8003372:	2308      	movs	r3, #8
 8003374:	e776      	b.n	8003264 <UART_SetConfig+0x178>
  else if (huart->Init.OverSampling == UART_OVERSAMPLING_8)
 8003376:	f5b1 4f00 	cmp.w	r1, #32768	; 0x8000
 800337a:	d1d6      	bne.n	800332a <UART_SetConfig+0x23e>
        usartdiv = (uint16_t)(UART_DIV_SAMPLING8(HAL_RCC_GetSysClockFreq(), huart->Init.BaudRate));
 800337c:	f7fe fe6a 	bl	8002054 <HAL_RCC_GetSysClockFreq>
 8003380:	e004      	b.n	800338c <UART_SetConfig+0x2a0>
  else if (huart->Init.OverSampling == UART_OVERSAMPLING_8)
 8003382:	f5b1 4f00 	cmp.w	r1, #32768	; 0x8000
 8003386:	d1b2      	bne.n	80032ee <UART_SetConfig+0x202>
        usartdiv = (uint16_t)(UART_DIV_SAMPLING8(HAL_RCC_GetPCLK1Freq(), huart->Init.BaudRate));
 8003388:	f7ff f970 	bl	800266c <HAL_RCC_GetPCLK1Freq>
        usartdiv = (uint16_t)(UART_DIV_SAMPLING8(HAL_RCC_GetSysClockFreq(), huart->Init.BaudRate));
 800338c:	6861      	ldr	r1, [r4, #4]
 800338e:	084a      	lsrs	r2, r1, #1
 8003390:	eb02 0340 	add.w	r3, r2, r0, lsl #1
 8003394:	fbb3 f3f1 	udiv	r3, r3, r1
 8003398:	b29b      	uxth	r3, r3
  HAL_StatusTypeDef ret               = HAL_OK;
 800339a:	2200      	movs	r2, #0
    if ((usartdiv >= UART_BRR_MIN) && (usartdiv <= UART_BRR_MAX))
 800339c:	f1a3 0010 	sub.w	r0, r3, #16
 80033a0:	f64f 71ef 	movw	r1, #65519	; 0xffef
 80033a4:	4288      	cmp	r0, r1
 80033a6:	f63f af62 	bhi.w	800326e <UART_SetConfig+0x182>
      brrtemp = usartdiv & 0xFFF0U;
 80033aa:	f023 010f 	bic.w	r1, r3, #15
      huart->Instance->BRR = brrtemp;
 80033ae:	6820      	ldr	r0, [r4, #0]
      brrtemp |= (uint16_t)((usartdiv & (uint16_t)0x000FU) >> 1U);
 80033b0:	f3c3 0342 	ubfx	r3, r3, #1, #3
      huart->Instance->BRR = brrtemp;
 80033b4:	430b      	orrs	r3, r1
 80033b6:	60c3      	str	r3, [r0, #12]
 80033b8:	e75a      	b.n	8003270 <UART_SetConfig+0x184>
    switch (clocksource)
 80033ba:	2b08      	cmp	r3, #8
 80033bc:	f63f af57 	bhi.w	800326e <UART_SetConfig+0x182>
 80033c0:	a201      	add	r2, pc, #4	; (adr r2, 80033c8 <UART_SetConfig+0x2dc>)
 80033c2:	f852 f023 	ldr.w	pc, [r2, r3, lsl #2]
 80033c6:	bf00      	nop
 80033c8:	080032ef 	.word	0x080032ef
 80033cc:	08003313 	.word	0x08003313
 80033d0:	08003319 	.word	0x08003319
 80033d4:	0800326f 	.word	0x0800326f
 80033d8:	0800332b 	.word	0x0800332b
 80033dc:	0800326f 	.word	0x0800326f
 80033e0:	0800326f 	.word	0x0800326f
 80033e4:	0800326f 	.word	0x0800326f
 80033e8:	08003331 	.word	0x08003331
 80033ec:	efff69f3 	.word	0xefff69f3
 80033f0:	40008000 	.word	0x40008000
 80033f4:	40013800 	.word	0x40013800
 80033f8:	08005248 	.word	0x08005248
 80033fc:	40004400 	.word	0x40004400
 8003400:	0800524c 	.word	0x0800524c
 8003404:	40004800 	.word	0x40004800
 8003408:	40004c00 	.word	0x40004c00
 800340c:	40005000 	.word	0x40005000
 8003410:	00f42400 	.word	0x00f42400
 8003414:	000ffcff 	.word	0x000ffcff
 8003418:	f4240000 	.word	0xf4240000

0800341c <UART_AdvFeatureConfig>:
{
  /* Check whether the set of advanced features to configure is properly set */
  assert_param(IS_UART_ADVFEATURE_INIT(huart->AdvancedInit.AdvFeatureInit));

  /* if required, configure TX pin active level inversion */
  if (HAL_IS_BIT_SET(huart->AdvancedInit.AdvFeatureInit, UART_ADVFEATURE_TXINVERT_INIT))
 800341c:	6a43      	ldr	r3, [r0, #36]	; 0x24
 800341e:	07da      	lsls	r2, r3, #31
{
 8003420:	b510      	push	{r4, lr}
  if (HAL_IS_BIT_SET(huart->AdvancedInit.AdvFeatureInit, UART_ADVFEATURE_TXINVERT_INIT))
 8003422:	d506      	bpl.n	8003432 <UART_AdvFeatureConfig+0x16>
  {
    assert_param(IS_UART_ADVFEATURE_TXINV(huart->AdvancedInit.TxPinLevelInvert));
    MODIFY_REG(huart->Instance->CR2, USART_CR2_TXINV, huart->AdvancedInit.TxPinLevelInvert);
 8003424:	6801      	ldr	r1, [r0, #0]
 8003426:	6a84      	ldr	r4, [r0, #40]	; 0x28
 8003428:	684a      	ldr	r2, [r1, #4]
 800342a:	f422 3200 	bic.w	r2, r2, #131072	; 0x20000
 800342e:	4322      	orrs	r2, r4
 8003430:	604a      	str	r2, [r1, #4]
  }

  /* if required, configure RX pin active level inversion */
  if (HAL_IS_BIT_SET(huart->AdvancedInit.AdvFeatureInit, UART_ADVFEATURE_RXINVERT_INIT))
 8003432:	079c      	lsls	r4, r3, #30
 8003434:	d506      	bpl.n	8003444 <UART_AdvFeatureConfig+0x28>
  {
    assert_param(IS_UART_ADVFEATURE_RXINV(huart->AdvancedInit.RxPinLevelInvert));
    MODIFY_REG(huart->Instance->CR2, USART_CR2_RXINV, huart->AdvancedInit.RxPinLevelInvert);
 8003436:	6801      	ldr	r1, [r0, #0]
 8003438:	6ac4      	ldr	r4, [r0, #44]	; 0x2c
 800343a:	684a      	ldr	r2, [r1, #4]
 800343c:	f422 3280 	bic.w	r2, r2, #65536	; 0x10000
 8003440:	4322      	orrs	r2, r4
 8003442:	604a      	str	r2, [r1, #4]
  }

  /* if required, configure data inversion */
  if (HAL_IS_BIT_SET(huart->AdvancedInit.AdvFeatureInit, UART_ADVFEATURE_DATAINVERT_INIT))
 8003444:	0759      	lsls	r1, r3, #29
 8003446:	d506      	bpl.n	8003456 <UART_AdvFeatureConfig+0x3a>
  {
    assert_param(IS_UART_ADVFEATURE_DATAINV(huart->AdvancedInit.DataInvert));
    MODIFY_REG(huart->Instance->CR2, USART_CR2_DATAINV, huart->AdvancedInit.DataInvert);
 8003448:	6801      	ldr	r1, [r0, #0]
 800344a:	6b04      	ldr	r4, [r0, #48]	; 0x30
 800344c:	684a      	ldr	r2, [r1, #4]
 800344e:	f422 2280 	bic.w	r2, r2, #262144	; 0x40000
 8003452:	4322      	orrs	r2, r4
 8003454:	604a      	str	r2, [r1, #4]
  }

  /* if required, configure RX/TX pins swap */
  if (HAL_IS_BIT_SET(huart->AdvancedInit.AdvFeatureInit, UART_ADVFEATURE_SWAP_INIT))
 8003456:	071a      	lsls	r2, r3, #28
 8003458:	d506      	bpl.n	8003468 <UART_AdvFeatureConfig+0x4c>
  {
    assert_param(IS_UART_ADVFEATURE_SWAP(huart->AdvancedInit.Swap));
    MODIFY_REG(huart->Instance->CR2, USART_CR2_SWAP, huart->AdvancedInit.Swap);
 800345a:	6801      	ldr	r1, [r0, #0]
 800345c:	6b44      	ldr	r4, [r0, #52]	; 0x34
 800345e:	684a      	ldr	r2, [r1, #4]
 8003460:	f422 4200 	bic.w	r2, r2, #32768	; 0x8000
 8003464:	4322      	orrs	r2, r4
 8003466:	604a      	str	r2, [r1, #4]
  }

  /* if required, configure RX overrun detection disabling */
  if (HAL_IS_BIT_SET(huart->AdvancedInit.AdvFeatureInit, UART_ADVFEATURE_RXOVERRUNDISABLE_INIT))
 8003468:	06dc      	lsls	r4, r3, #27
 800346a:	d506      	bpl.n	800347a <UART_AdvFeatureConfig+0x5e>
  {
    assert_param(IS_UART_OVERRUN(huart->AdvancedInit.OverrunDisable));
    MODIFY_REG(huart->Instance->CR3, USART_CR3_OVRDIS, huart->AdvancedInit.OverrunDisable);
 800346c:	6801      	ldr	r1, [r0, #0]
 800346e:	6b84      	ldr	r4, [r0, #56]	; 0x38
 8003470:	688a      	ldr	r2, [r1, #8]
 8003472:	f422 5280 	bic.w	r2, r2, #4096	; 0x1000
 8003476:	4322      	orrs	r2, r4
 8003478:	608a      	str	r2, [r1, #8]
  }

  /* if required, configure DMA disabling on reception error */
  if (HAL_IS_BIT_SET(huart->AdvancedInit.AdvFeatureInit, UART_ADVFEATURE_DMADISABLEONERROR_INIT))
 800347a:	0699      	lsls	r1, r3, #26
 800347c:	d506      	bpl.n	800348c <UART_AdvFeatureConfig+0x70>
  {
    assert_param(IS_UART_ADVFEATURE_DMAONRXERROR(huart->AdvancedInit.DMADisableonRxError));
    MODIFY_REG(huart->Instance->CR3, USART_CR3_DDRE, huart->AdvancedInit.DMADisableonRxError);
 800347e:	6801      	ldr	r1, [r0, #0]
 8003480:	6bc4      	ldr	r4, [r0, #60]	; 0x3c
 8003482:	688a      	ldr	r2, [r1, #8]
 8003484:	f422 5200 	bic.w	r2, r2, #8192	; 0x2000
 8003488:	4322      	orrs	r2, r4
 800348a:	608a      	str	r2, [r1, #8]
  }

  /* if required, configure auto Baud rate detection scheme */
  if (HAL_IS_BIT_SET(huart->AdvancedInit.AdvFeatureInit, UART_ADVFEATURE_AUTOBAUDRATE_INIT))
 800348c:	065a      	lsls	r2, r3, #25
 800348e:	d50f      	bpl.n	80034b0 <UART_AdvFeatureConfig+0x94>
  {
    assert_param(IS_USART_AUTOBAUDRATE_DETECTION_INSTANCE(huart->Instance));
    assert_param(IS_UART_ADVFEATURE_AUTOBAUDRATE(huart->AdvancedInit.AutoBaudRateEnable));
    MODIFY_REG(huart->Instance->CR2, USART_CR2_ABREN, huart->AdvancedInit.AutoBaudRateEnable);
 8003490:	6801      	ldr	r1, [r0, #0]
 8003492:	6c04      	ldr	r4, [r0, #64]	; 0x40
 8003494:	684a      	ldr	r2, [r1, #4]
 8003496:	f422 1280 	bic.w	r2, r2, #1048576	; 0x100000
 800349a:	4322      	orrs	r2, r4
    /* set auto Baudrate detection parameters if detection is enabled */
    if (huart->AdvancedInit.AutoBaudRateEnable == UART_ADVFEATURE_AUTOBAUDRATE_ENABLE)
 800349c:	f5b4 1f80 	cmp.w	r4, #1048576	; 0x100000
    MODIFY_REG(huart->Instance->CR2, USART_CR2_ABREN, huart->AdvancedInit.AutoBaudRateEnable);
 80034a0:	604a      	str	r2, [r1, #4]
    if (huart->AdvancedInit.AutoBaudRateEnable == UART_ADVFEATURE_AUTOBAUDRATE_ENABLE)
 80034a2:	d105      	bne.n	80034b0 <UART_AdvFeatureConfig+0x94>
    {
      assert_param(IS_UART_ADVFEATURE_AUTOBAUDRATEMODE(huart->AdvancedInit.AutoBaudRateMode));
      MODIFY_REG(huart->Instance->CR2, USART_CR2_ABRMODE, huart->AdvancedInit.AutoBaudRateMode);
 80034a4:	684a      	ldr	r2, [r1, #4]
 80034a6:	6c44      	ldr	r4, [r0, #68]	; 0x44
 80034a8:	f422 02c0 	bic.w	r2, r2, #6291456	; 0x600000
 80034ac:	4322      	orrs	r2, r4
 80034ae:	604a      	str	r2, [r1, #4]
    }
  }

  /* if required, configure MSB first on communication line */
  if (HAL_IS_BIT_SET(huart->AdvancedInit.AdvFeatureInit, UART_ADVFEATURE_MSBFIRST_INIT))
 80034b0:	061b      	lsls	r3, r3, #24
 80034b2:	d506      	bpl.n	80034c2 <UART_AdvFeatureConfig+0xa6>
  {
    assert_param(IS_UART_ADVFEATURE_MSBFIRST(huart->AdvancedInit.MSBFirst));
    MODIFY_REG(huart->Instance->CR2, USART_CR2_MSBFIRST, huart->AdvancedInit.MSBFirst);
 80034b4:	6802      	ldr	r2, [r0, #0]
 80034b6:	6c81      	ldr	r1, [r0, #72]	; 0x48
 80034b8:	6853      	ldr	r3, [r2, #4]
 80034ba:	f423 2300 	bic.w	r3, r3, #524288	; 0x80000
 80034be:	430b      	orrs	r3, r1
 80034c0:	6053      	str	r3, [r2, #4]
 80034c2:	bd10      	pop	{r4, pc}

080034c4 <UART_WaitOnFlagUntilTimeout>:
  * @param Tickstart Tick start value
  * @param Timeout   Timeout duration
  * @retval HAL status
  */
HAL_StatusTypeDef UART_WaitOnFlagUntilTimeout(UART_HandleTypeDef *huart, uint32_t Flag, FlagStatus Status, uint32_t Tickstart, uint32_t Timeout)
{
 80034c4:	e92d 41f0 	stmdb	sp!, {r4, r5, r6, r7, r8, lr}
 80034c8:	9d06      	ldr	r5, [sp, #24]
 80034ca:	4604      	mov	r4, r0
 80034cc:	460f      	mov	r7, r1
 80034ce:	4616      	mov	r6, r2
 80034d0:	4698      	mov	r8, r3
  /* Wait until flag is set */
  while ((__HAL_UART_GET_FLAG(huart, Flag) ? SET : RESET) == Status)
 80034d2:	6821      	ldr	r1, [r4, #0]
 80034d4:	69ca      	ldr	r2, [r1, #28]
 80034d6:	ea37 0302 	bics.w	r3, r7, r2
 80034da:	bf0c      	ite	eq
 80034dc:	2201      	moveq	r2, #1
 80034de:	2200      	movne	r2, #0
 80034e0:	42b2      	cmp	r2, r6
 80034e2:	d002      	beq.n	80034ea <UART_WaitOnFlagUntilTimeout+0x26>

        return HAL_TIMEOUT;
      }
    }
  }
  return HAL_OK;
 80034e4:	2000      	movs	r0, #0
}
 80034e6:	e8bd 81f0 	ldmia.w	sp!, {r4, r5, r6, r7, r8, pc}
    if (Timeout != HAL_MAX_DELAY)
 80034ea:	1c6b      	adds	r3, r5, #1
 80034ec:	d0f2      	beq.n	80034d4 <UART_WaitOnFlagUntilTimeout+0x10>
      if ((Timeout == 0U) || ((HAL_GetTick() - Tickstart) > Timeout))
 80034ee:	b99d      	cbnz	r5, 8003518 <UART_WaitOnFlagUntilTimeout+0x54>
        CLEAR_BIT(huart->Instance->CR1, (USART_CR1_RXNEIE | USART_CR1_PEIE | USART_CR1_TXEIE));
 80034f0:	6823      	ldr	r3, [r4, #0]
 80034f2:	681a      	ldr	r2, [r3, #0]
 80034f4:	f422 72d0 	bic.w	r2, r2, #416	; 0x1a0
 80034f8:	601a      	str	r2, [r3, #0]
        CLEAR_BIT(huart->Instance->CR3, USART_CR3_EIE);
 80034fa:	689a      	ldr	r2, [r3, #8]
 80034fc:	f022 0201 	bic.w	r2, r2, #1
 8003500:	609a      	str	r2, [r3, #8]
        huart->gState = HAL_UART_STATE_READY;
 8003502:	2320      	movs	r3, #32
 8003504:	f884 3071 	strb.w	r3, [r4, #113]	; 0x71
        huart->RxState = HAL_UART_STATE_READY;
 8003508:	f884 3072 	strb.w	r3, [r4, #114]	; 0x72
        __HAL_UNLOCK(huart);
 800350c:	2300      	movs	r3, #0
 800350e:	f884 3070 	strb.w	r3, [r4, #112]	; 0x70
 8003512:	2003      	movs	r0, #3
 8003514:	e8bd 81f0 	ldmia.w	sp!, {r4, r5, r6, r7, r8, pc}
      if ((Timeout == 0U) || ((HAL_GetTick() - Tickstart) > Timeout))
 8003518:	f7fd f868 	bl	80005ec <HAL_GetTick>
 800351c:	eba0 0008 	sub.w	r0, r0, r8
 8003520:	4285      	cmp	r5, r0
 8003522:	d2d6      	bcs.n	80034d2 <UART_WaitOnFlagUntilTimeout+0xe>
 8003524:	e7e4      	b.n	80034f0 <UART_WaitOnFlagUntilTimeout+0x2c>

08003526 <HAL_UART_Transmit>:
{
 8003526:	e92d 41f3 	stmdb	sp!, {r0, r1, r4, r5, r6, r7, r8, lr}
 800352a:	461f      	mov	r7, r3
  if (huart->gState == HAL_UART_STATE_READY)
 800352c:	f890 3071 	ldrb.w	r3, [r0, #113]	; 0x71
 8003530:	2b20      	cmp	r3, #32
{
 8003532:	4604      	mov	r4, r0
 8003534:	460d      	mov	r5, r1
 8003536:	4690      	mov	r8, r2
  if (huart->gState == HAL_UART_STATE_READY)
 8003538:	d14a      	bne.n	80035d0 <HAL_UART_Transmit+0xaa>
    if ((pData == NULL) || (Size == 0U))
 800353a:	2900      	cmp	r1, #0
 800353c:	d046      	beq.n	80035cc <HAL_UART_Transmit+0xa6>
 800353e:	2a00      	cmp	r2, #0
 8003540:	d044      	beq.n	80035cc <HAL_UART_Transmit+0xa6>
    __HAL_LOCK(huart);
 8003542:	f890 3070 	ldrb.w	r3, [r0, #112]	; 0x70
 8003546:	2b01      	cmp	r3, #1
 8003548:	d042      	beq.n	80035d0 <HAL_UART_Transmit+0xaa>
 800354a:	2301      	movs	r3, #1
 800354c:	f880 3070 	strb.w	r3, [r0, #112]	; 0x70
    huart->ErrorCode = HAL_UART_ERROR_NONE;
 8003550:	2300      	movs	r3, #0
 8003552:	6743      	str	r3, [r0, #116]	; 0x74
    huart->gState = HAL_UART_STATE_BUSY_TX;
 8003554:	2321      	movs	r3, #33	; 0x21
 8003556:	f880 3071 	strb.w	r3, [r0, #113]	; 0x71
    tickstart = HAL_GetTick();
 800355a:	f7fd f847 	bl	80005ec <HAL_GetTick>
    huart->TxXferSize  = Size;
 800355e:	f8a4 8050 	strh.w	r8, [r4, #80]	; 0x50
    tickstart = HAL_GetTick();
 8003562:	4606      	mov	r6, r0
    huart->TxXferCount = Size;
 8003564:	f8a4 8052 	strh.w	r8, [r4, #82]	; 0x52
    while (huart->TxXferCount > 0U)
 8003568:	f8b4 2052 	ldrh.w	r2, [r4, #82]	; 0x52
      if (UART_WaitOnFlagUntilTimeout(huart, UART_FLAG_TXE, RESET, tickstart, Timeout) != HAL_OK)
 800356c:	9700      	str	r7, [sp, #0]
    while (huart->TxXferCount > 0U)
 800356e:	b292      	uxth	r2, r2
      if (UART_WaitOnFlagUntilTimeout(huart, UART_FLAG_TXE, RESET, tickstart, Timeout) != HAL_OK)
 8003570:	4633      	mov	r3, r6
    while (huart->TxXferCount > 0U)
 8003572:	b952      	cbnz	r2, 800358a <HAL_UART_Transmit+0x64>
    if (UART_WaitOnFlagUntilTimeout(huart, UART_FLAG_TC, RESET, tickstart, Timeout) != HAL_OK)
 8003574:	2140      	movs	r1, #64	; 0x40
 8003576:	4620      	mov	r0, r4
 8003578:	f7ff ffa4 	bl	80034c4 <UART_WaitOnFlagUntilTimeout>
 800357c:	b958      	cbnz	r0, 8003596 <HAL_UART_Transmit+0x70>
    huart->gState = HAL_UART_STATE_READY;
 800357e:	2320      	movs	r3, #32
 8003580:	f884 3071 	strb.w	r3, [r4, #113]	; 0x71
    __HAL_UNLOCK(huart);
 8003584:	f884 0070 	strb.w	r0, [r4, #112]	; 0x70
    return HAL_OK;
 8003588:	e006      	b.n	8003598 <HAL_UART_Transmit+0x72>
      if (UART_WaitOnFlagUntilTimeout(huart, UART_FLAG_TXE, RESET, tickstart, Timeout) != HAL_OK)
 800358a:	2200      	movs	r2, #0
 800358c:	2180      	movs	r1, #128	; 0x80
 800358e:	4620      	mov	r0, r4
 8003590:	f7ff ff98 	bl	80034c4 <UART_WaitOnFlagUntilTimeout>
 8003594:	b118      	cbz	r0, 800359e <HAL_UART_Transmit+0x78>
        return HAL_TIMEOUT;
 8003596:	2003      	movs	r0, #3
}
 8003598:	b002      	add	sp, #8
 800359a:	e8bd 81f0 	ldmia.w	sp!, {r4, r5, r6, r7, r8, pc}
      if ((huart->Init.WordLength == UART_WORDLENGTH_9B) && (huart->Init.Parity == UART_PARITY_NONE))
 800359e:	68a3      	ldr	r3, [r4, #8]
 80035a0:	6822      	ldr	r2, [r4, #0]
 80035a2:	f5b3 5f80 	cmp.w	r3, #4096	; 0x1000
 80035a6:	d10d      	bne.n	80035c4 <HAL_UART_Transmit+0x9e>
 80035a8:	6923      	ldr	r3, [r4, #16]
 80035aa:	b95b      	cbnz	r3, 80035c4 <HAL_UART_Transmit+0x9e>
        huart->Instance->TDR = (*tmp & (uint16_t)0x01FFU);
 80035ac:	f835 3b02 	ldrh.w	r3, [r5], #2
 80035b0:	f3c3 0308 	ubfx	r3, r3, #0, #9
 80035b4:	8513      	strh	r3, [r2, #40]	; 0x28
      huart->TxXferCount--;
 80035b6:	f8b4 3052 	ldrh.w	r3, [r4, #82]	; 0x52
 80035ba:	3b01      	subs	r3, #1
 80035bc:	b29b      	uxth	r3, r3
 80035be:	f8a4 3052 	strh.w	r3, [r4, #82]	; 0x52
 80035c2:	e7d1      	b.n	8003568 <HAL_UART_Transmit+0x42>
        huart->Instance->TDR = (*pData++ & (uint8_t)0xFFU);
 80035c4:	782b      	ldrb	r3, [r5, #0]
 80035c6:	8513      	strh	r3, [r2, #40]	; 0x28
 80035c8:	3501      	adds	r5, #1
 80035ca:	e7f4      	b.n	80035b6 <HAL_UART_Transmit+0x90>
      return  HAL_ERROR;
 80035cc:	2001      	movs	r0, #1
 80035ce:	e7e3      	b.n	8003598 <HAL_UART_Transmit+0x72>
    return HAL_BUSY;
 80035d0:	2002      	movs	r0, #2
 80035d2:	e7e1      	b.n	8003598 <HAL_UART_Transmit+0x72>

080035d4 <UART_CheckIdleState>:
{
 80035d4:	b573      	push	{r0, r1, r4, r5, r6, lr}
 80035d6:	4604      	mov	r4, r0
  huart->ErrorCode = HAL_UART_ERROR_NONE;
 80035d8:	2600      	movs	r6, #0
 80035da:	6746      	str	r6, [r0, #116]	; 0x74
  tickstart = HAL_GetTick();
 80035dc:	f7fd f806 	bl	80005ec <HAL_GetTick>
  if ((huart->Instance->CR1 & USART_CR1_TE) == USART_CR1_TE)
 80035e0:	6823      	ldr	r3, [r4, #0]
 80035e2:	681b      	ldr	r3, [r3, #0]
 80035e4:	071a      	lsls	r2, r3, #28
  tickstart = HAL_GetTick();
 80035e6:	4605      	mov	r5, r0
  if ((huart->Instance->CR1 & USART_CR1_TE) == USART_CR1_TE)
 80035e8:	d417      	bmi.n	800361a <UART_CheckIdleState+0x46>
  if ((huart->Instance->CR1 & USART_CR1_RE) == USART_CR1_RE)
 80035ea:	6823      	ldr	r3, [r4, #0]
 80035ec:	681b      	ldr	r3, [r3, #0]
 80035ee:	075b      	lsls	r3, r3, #29
 80035f0:	d50a      	bpl.n	8003608 <UART_CheckIdleState+0x34>
    if (UART_WaitOnFlagUntilTimeout(huart, USART_ISR_REACK, RESET, tickstart, HAL_UART_TIMEOUT_VALUE) != HAL_OK)
 80035f2:	f06f 437e 	mvn.w	r3, #4261412864	; 0xfe000000
 80035f6:	9300      	str	r3, [sp, #0]
 80035f8:	2200      	movs	r2, #0
 80035fa:	462b      	mov	r3, r5
 80035fc:	f44f 0180 	mov.w	r1, #4194304	; 0x400000
 8003600:	4620      	mov	r0, r4
 8003602:	f7ff ff5f 	bl	80034c4 <UART_WaitOnFlagUntilTimeout>
 8003606:	b9a0      	cbnz	r0, 8003632 <UART_CheckIdleState+0x5e>
  huart->gState = HAL_UART_STATE_READY;
 8003608:	2320      	movs	r3, #32
  __HAL_UNLOCK(huart);
 800360a:	2000      	movs	r0, #0
  huart->gState = HAL_UART_STATE_READY;
 800360c:	f884 3071 	strb.w	r3, [r4, #113]	; 0x71
  __HAL_UNLOCK(huart);
 8003610:	f884 0070 	strb.w	r0, [r4, #112]	; 0x70
  huart->RxState = HAL_UART_STATE_READY;
 8003614:	f884 3072 	strb.w	r3, [r4, #114]	; 0x72
  return HAL_OK;
 8003618:	e00c      	b.n	8003634 <UART_CheckIdleState+0x60>
    if (UART_WaitOnFlagUntilTimeout(huart, USART_ISR_TEACK, RESET, tickstart, HAL_UART_TIMEOUT_VALUE) != HAL_OK)
 800361a:	f06f 437e 	mvn.w	r3, #4261412864	; 0xfe000000
 800361e:	9300      	str	r3, [sp, #0]
 8003620:	4632      	mov	r2, r6
 8003622:	4603      	mov	r3, r0
 8003624:	f44f 1100 	mov.w	r1, #2097152	; 0x200000
 8003628:	4620      	mov	r0, r4
 800362a:	f7ff ff4b 	bl	80034c4 <UART_WaitOnFlagUntilTimeout>
 800362e:	2800      	cmp	r0, #0
 8003630:	d0db      	beq.n	80035ea <UART_CheckIdleState+0x16>
      return HAL_TIMEOUT;
 8003632:	2003      	movs	r0, #3
}
 8003634:	b002      	add	sp, #8
 8003636:	bd70      	pop	{r4, r5, r6, pc}

08003638 <HAL_UART_Init>:
{
 8003638:	b510      	push	{r4, lr}
  if (huart == NULL)
 800363a:	4604      	mov	r4, r0
 800363c:	b360      	cbz	r0, 8003698 <HAL_UART_Init+0x60>
  if (huart->gState == HAL_UART_STATE_RESET)
 800363e:	f890 3071 	ldrb.w	r3, [r0, #113]	; 0x71
 8003642:	f003 02ff 	and.w	r2, r3, #255	; 0xff
 8003646:	b91b      	cbnz	r3, 8003650 <HAL_UART_Init+0x18>
    huart->Lock = HAL_UNLOCKED;
 8003648:	f880 2070 	strb.w	r2, [r0, #112]	; 0x70
    HAL_UART_MspInit(huart);
 800364c:	f000 fdd6 	bl	80041fc <HAL_UART_MspInit>
  __HAL_UART_DISABLE(huart);
 8003650:	6822      	ldr	r2, [r4, #0]
  huart->gState = HAL_UART_STATE_BUSY;
 8003652:	2324      	movs	r3, #36	; 0x24
 8003654:	f884 3071 	strb.w	r3, [r4, #113]	; 0x71
  __HAL_UART_DISABLE(huart);
 8003658:	6813      	ldr	r3, [r2, #0]
 800365a:	f023 0301 	bic.w	r3, r3, #1
 800365e:	6013      	str	r3, [r2, #0]
  if (UART_SetConfig(huart) == HAL_ERROR)
 8003660:	4620      	mov	r0, r4
 8003662:	f7ff fd43 	bl	80030ec <UART_SetConfig>
 8003666:	2801      	cmp	r0, #1
 8003668:	d016      	beq.n	8003698 <HAL_UART_Init+0x60>
  if (huart->AdvancedInit.AdvFeatureInit != UART_ADVFEATURE_NO_INIT)
 800366a:	6a63      	ldr	r3, [r4, #36]	; 0x24
 800366c:	b113      	cbz	r3, 8003674 <HAL_UART_Init+0x3c>
    UART_AdvFeatureConfig(huart);
 800366e:	4620      	mov	r0, r4
 8003670:	f7ff fed4 	bl	800341c <UART_AdvFeatureConfig>
  CLEAR_BIT(huart->Instance->CR2, (USART_CR2_LINEN | USART_CR2_CLKEN));
 8003674:	6823      	ldr	r3, [r4, #0]
 8003676:	685a      	ldr	r2, [r3, #4]
 8003678:	f422 4290 	bic.w	r2, r2, #18432	; 0x4800
 800367c:	605a      	str	r2, [r3, #4]
  CLEAR_BIT(huart->Instance->CR3, (USART_CR3_SCEN | USART_CR3_HDSEL | USART_CR3_IREN));
 800367e:	689a      	ldr	r2, [r3, #8]
 8003680:	f022 022a 	bic.w	r2, r2, #42	; 0x2a
 8003684:	609a      	str	r2, [r3, #8]
  __HAL_UART_ENABLE(huart);
 8003686:	681a      	ldr	r2, [r3, #0]
 8003688:	f042 0201 	orr.w	r2, r2, #1
  return (UART_CheckIdleState(huart));
 800368c:	4620      	mov	r0, r4
  __HAL_UART_ENABLE(huart);
 800368e:	601a      	str	r2, [r3, #0]
}
 8003690:	e8bd 4010 	ldmia.w	sp!, {r4, lr}
  return (UART_CheckIdleState(huart));
 8003694:	f7ff bf9e 	b.w	80035d4 <UART_CheckIdleState>
}
 8003698:	2001      	movs	r0, #1
 800369a:	bd10      	pop	{r4, pc}

0800369c <MX_ADC1_Init>:

ADC_HandleTypeDef hadc1;

/* ADC1 init function */
void MX_ADC1_Init(void)
{
 800369c:	b510      	push	{r4, lr}
  ADC_MultiModeTypeDef multimode = {0};
 800369e:	2400      	movs	r4, #0
{
 80036a0:	b08a      	sub	sp, #40	; 0x28
  ADC_ChannelConfTypeDef sConfig = {0};
 80036a2:	2218      	movs	r2, #24
 80036a4:	4621      	mov	r1, r4
 80036a6:	a804      	add	r0, sp, #16
  ADC_MultiModeTypeDef multimode = {0};
 80036a8:	9401      	str	r4, [sp, #4]
 80036aa:	9402      	str	r4, [sp, #8]
 80036ac:	9403      	str	r4, [sp, #12]
  ADC_ChannelConfTypeDef sConfig = {0};
 80036ae:	f000 fe25 	bl	80042fc <memset>

  /**Common config 
  */
  hadc1.Instance = ADC1;
 80036b2:	481b      	ldr	r0, [pc, #108]	; (8003720 <MX_ADC1_Init+0x84>)
 80036b4:	4b1b      	ldr	r3, [pc, #108]	; (8003724 <MX_ADC1_Init+0x88>)
  hadc1.Init.ClockPrescaler = ADC_CLOCK_ASYNC_DIV1;
  hadc1.Init.Resolution = ADC_RESOLUTION_12B;
 80036b6:	6084      	str	r4, [r0, #8]
  hadc1.Init.ClockPrescaler = ADC_CLOCK_ASYNC_DIV1;
 80036b8:	e880 0018 	stmia.w	r0, {r3, r4}
  hadc1.Init.DataAlign = ADC_DATAALIGN_RIGHT;
  hadc1.Init.ScanConvMode = ADC_SCAN_DISABLE;
  hadc1.Init.EOCSelection = ADC_EOC_SINGLE_CONV;
 80036bc:	2304      	movs	r3, #4
 80036be:	6143      	str	r3, [r0, #20]
  hadc1.Init.LowPowerAutoWait = DISABLE;
  hadc1.Init.ContinuousConvMode = ENABLE;
 80036c0:	2301      	movs	r3, #1
  hadc1.Init.DataAlign = ADC_DATAALIGN_RIGHT;
 80036c2:	60c4      	str	r4, [r0, #12]
  hadc1.Init.ScanConvMode = ADC_SCAN_DISABLE;
 80036c4:	6104      	str	r4, [r0, #16]
  hadc1.Init.LowPowerAutoWait = DISABLE;
 80036c6:	7604      	strb	r4, [r0, #24]
  hadc1.Init.ContinuousConvMode = ENABLE;
 80036c8:	7643      	strb	r3, [r0, #25]
  hadc1.Init.NbrOfConversion = 1;
 80036ca:	61c3      	str	r3, [r0, #28]
  hadc1.Init.DiscontinuousConvMode = DISABLE;
 80036cc:	f880 4020 	strb.w	r4, [r0, #32]
  hadc1.Init.ExternalTrigConv = ADC_SOFTWARE_START;
 80036d0:	6284      	str	r4, [r0, #40]	; 0x28
  hadc1.Init.ExternalTrigConvEdge = ADC_EXTERNALTRIGCONVEDGE_NONE;
 80036d2:	62c4      	str	r4, [r0, #44]	; 0x2c
  hadc1.Init.DMAContinuousRequests = DISABLE;
 80036d4:	f880 4030 	strb.w	r4, [r0, #48]	; 0x30
  hadc1.Init.Overrun = ADC_OVR_DATA_PRESERVED;
 80036d8:	6344      	str	r4, [r0, #52]	; 0x34
  hadc1.Init.OversamplingMode = DISABLE;
 80036da:	f880 4038 	strb.w	r4, [r0, #56]	; 0x38
  if (HAL_ADC_Init(&hadc1) != HAL_OK)
 80036de:	f7fc ffa5 	bl	800062c <HAL_ADC_Init>
 80036e2:	b108      	cbz	r0, 80036e8 <MX_ADC1_Init+0x4c>
  {
    Error_Handler();
 80036e4:	f000 fcb6 	bl	8004054 <Error_Handler>
  }
  /**Configure the ADC multi-mode 
  */
  multimode.Mode = ADC_MODE_INDEPENDENT;
  if (HAL_ADCEx_MultiModeConfigChannel(&hadc1, &multimode) != HAL_OK)
 80036e8:	a901      	add	r1, sp, #4
 80036ea:	480d      	ldr	r0, [pc, #52]	; (8003720 <MX_ADC1_Init+0x84>)
  multimode.Mode = ADC_MODE_INDEPENDENT;
 80036ec:	9401      	str	r4, [sp, #4]
  if (HAL_ADCEx_MultiModeConfigChannel(&hadc1, &multimode) != HAL_OK)
 80036ee:	f7fd fc75 	bl	8000fdc <HAL_ADCEx_MultiModeConfigChannel>
 80036f2:	b108      	cbz	r0, 80036f8 <MX_ADC1_Init+0x5c>
  {
    Error_Handler();
 80036f4:	f000 fcae 	bl	8004054 <Error_Handler>
  }
  /**Configure Regular Channel 
  */
  sConfig.Channel = ADC_CHANNEL_9;
 80036f8:	4b0b      	ldr	r3, [pc, #44]	; (8003728 <MX_ADC1_Init+0x8c>)
 80036fa:	9304      	str	r3, [sp, #16]
  sConfig.Rank = ADC_REGULAR_RANK_1;
  sConfig.SamplingTime = ADC_SAMPLETIME_2CYCLES_5;
  sConfig.SingleDiff = ADC_SINGLE_ENDED;
 80036fc:	227f      	movs	r2, #127	; 0x7f
  sConfig.Rank = ADC_REGULAR_RANK_1;
 80036fe:	2306      	movs	r3, #6
 8003700:	9305      	str	r3, [sp, #20]
  sConfig.SingleDiff = ADC_SINGLE_ENDED;
 8003702:	9207      	str	r2, [sp, #28]
  sConfig.SamplingTime = ADC_SAMPLETIME_2CYCLES_5;
 8003704:	2300      	movs	r3, #0
  sConfig.OffsetNumber = ADC_OFFSET_NONE;
 8003706:	2204      	movs	r2, #4
  sConfig.Offset = 0;
  if (HAL_ADC_ConfigChannel(&hadc1, &sConfig) != HAL_OK)
 8003708:	a904      	add	r1, sp, #16
 800370a:	4805      	ldr	r0, [pc, #20]	; (8003720 <MX_ADC1_Init+0x84>)
  sConfig.SamplingTime = ADC_SAMPLETIME_2CYCLES_5;
 800370c:	9306      	str	r3, [sp, #24]
  sConfig.OffsetNumber = ADC_OFFSET_NONE;
 800370e:	9208      	str	r2, [sp, #32]
  sConfig.Offset = 0;
 8003710:	9309      	str	r3, [sp, #36]	; 0x24
  if (HAL_ADC_ConfigChannel(&hadc1, &sConfig) != HAL_OK)
 8003712:	f7fd f993 	bl	8000a3c <HAL_ADC_ConfigChannel>
 8003716:	b108      	cbz	r0, 800371c <MX_ADC1_Init+0x80>
  {
    Error_Handler();
 8003718:	f000 fc9c 	bl	8004054 <Error_Handler>
  }

}
 800371c:	b00a      	add	sp, #40	; 0x28
 800371e:	bd10      	pop	{r4, pc}
 8003720:	200000b8 	.word	0x200000b8
 8003724:	50040000 	.word	0x50040000
 8003728:	25b00200 	.word	0x25b00200

0800372c <HAL_ADC_MspInit>:

void HAL_ADC_MspInit(ADC_HandleTypeDef* adcHandle)
{
 800372c:	b510      	push	{r4, lr}
 800372e:	4604      	mov	r4, r0
 8003730:	b088      	sub	sp, #32

  GPIO_InitTypeDef GPIO_InitStruct = {0};
 8003732:	2214      	movs	r2, #20
 8003734:	2100      	movs	r1, #0
 8003736:	a803      	add	r0, sp, #12
 8003738:	f000 fde0 	bl	80042fc <memset>
  if(adcHandle->Instance==ADC1)
 800373c:	6822      	ldr	r2, [r4, #0]
 800373e:	4b16      	ldr	r3, [pc, #88]	; (8003798 <HAL_ADC_MspInit+0x6c>)
 8003740:	429a      	cmp	r2, r3
 8003742:	d126      	bne.n	8003792 <HAL_ADC_MspInit+0x66>
  {
  /* USER CODE BEGIN ADC1_MspInit 0 */

  /* USER CODE END ADC1_MspInit 0 */
    /* ADC1 clock enable */
    __HAL_RCC_ADC_CLK_ENABLE();
 8003744:	f103 4370 	add.w	r3, r3, #4026531840	; 0xf0000000
 8003748:	f5a3 33f8 	sub.w	r3, r3, #126976	; 0x1f000
    PA6     ------> ADC1_IN11 
    */
    GPIO_InitStruct.Pin = GPIO_PIN_4|GPIO_PIN_6;
    GPIO_InitStruct.Mode = GPIO_MODE_ANALOG_ADC_CONTROL;
    GPIO_InitStruct.Pull = GPIO_NOPULL;
    HAL_GPIO_Init(GPIOA, &GPIO_InitStruct);
 800374c:	a903      	add	r1, sp, #12
    __HAL_RCC_ADC_CLK_ENABLE();
 800374e:	6cda      	ldr	r2, [r3, #76]	; 0x4c
 8003750:	f442 5200 	orr.w	r2, r2, #8192	; 0x2000
 8003754:	64da      	str	r2, [r3, #76]	; 0x4c
 8003756:	6cda      	ldr	r2, [r3, #76]	; 0x4c
 8003758:	f402 5200 	and.w	r2, r2, #8192	; 0x2000
 800375c:	9201      	str	r2, [sp, #4]
 800375e:	9a01      	ldr	r2, [sp, #4]
    __HAL_RCC_GPIOA_CLK_ENABLE();
 8003760:	6cda      	ldr	r2, [r3, #76]	; 0x4c
 8003762:	f042 0201 	orr.w	r2, r2, #1
 8003766:	64da      	str	r2, [r3, #76]	; 0x4c
 8003768:	6cdb      	ldr	r3, [r3, #76]	; 0x4c
 800376a:	f003 0301 	and.w	r3, r3, #1
 800376e:	9302      	str	r3, [sp, #8]
 8003770:	9b02      	ldr	r3, [sp, #8]
    GPIO_InitStruct.Pin = GPIO_PIN_4|GPIO_PIN_6;
 8003772:	2350      	movs	r3, #80	; 0x50
 8003774:	9303      	str	r3, [sp, #12]
    HAL_GPIO_Init(GPIOA, &GPIO_InitStruct);
 8003776:	f04f 4090 	mov.w	r0, #1207959552	; 0x48000000
    GPIO_InitStruct.Mode = GPIO_MODE_ANALOG_ADC_CONTROL;
 800377a:	230b      	movs	r3, #11
 800377c:	9304      	str	r3, [sp, #16]
    HAL_GPIO_Init(GPIOA, &GPIO_InitStruct);
 800377e:	f7fd fd33 	bl	80011e8 <HAL_GPIO_Init>

    /* ADC1 interrupt Init */
    HAL_NVIC_SetPriority(ADC1_2_IRQn, 0, 0);
 8003782:	2200      	movs	r2, #0
 8003784:	2012      	movs	r0, #18
 8003786:	4611      	mov	r1, r2
 8003788:	f7fd fcb2 	bl	80010f0 <HAL_NVIC_SetPriority>
    HAL_NVIC_EnableIRQ(ADC1_2_IRQn);
 800378c:	2012      	movs	r0, #18
 800378e:	f7fd fce3 	bl	8001158 <HAL_NVIC_EnableIRQ>
  /* USER CODE BEGIN ADC1_MspInit 1 */

  /* USER CODE END ADC1_MspInit 1 */
  }
}
 8003792:	b008      	add	sp, #32
 8003794:	bd10      	pop	{r4, pc}
 8003796:	bf00      	nop
 8003798:	50040000 	.word	0x50040000

0800379c <MX_GPIO_Init>:
        * EXTI
        * Free pins are configured automatically as Analog (this feature is enabled through 
        * the Code Generation settings)
*/
void MX_GPIO_Init(void)
{
 800379c:	b570      	push	{r4, r5, r6, lr}

  GPIO_InitTypeDef GPIO_InitStruct = {0};
 800379e:	2214      	movs	r2, #20
{
 80037a0:	b08a      	sub	sp, #40	; 0x28
  GPIO_InitTypeDef GPIO_InitStruct = {0};
 80037a2:	eb0d 0002 	add.w	r0, sp, r2
 80037a6:	2100      	movs	r1, #0
 80037a8:	f000 fda8 	bl	80042fc <memset>

  /* GPIO Ports Clock Enable */
  __HAL_RCC_GPIOC_CLK_ENABLE();
 80037ac:	4b2f      	ldr	r3, [pc, #188]	; (800386c <MX_GPIO_Init+0xd0>)

  /*Configure GPIO pin : PtPin */
  GPIO_InitStruct.Pin = B1_Pin;
  GPIO_InitStruct.Mode = GPIO_MODE_IT_FALLING;
  GPIO_InitStruct.Pull = GPIO_NOPULL;
  HAL_GPIO_Init(B1_GPIO_Port, &GPIO_InitStruct);
 80037ae:	4e30      	ldr	r6, [pc, #192]	; (8003870 <MX_GPIO_Init+0xd4>)
  __HAL_RCC_GPIOC_CLK_ENABLE();
 80037b0:	6cda      	ldr	r2, [r3, #76]	; 0x4c
 80037b2:	f042 0204 	orr.w	r2, r2, #4
 80037b6:	64da      	str	r2, [r3, #76]	; 0x4c
 80037b8:	6cda      	ldr	r2, [r3, #76]	; 0x4c
 80037ba:	f002 0204 	and.w	r2, r2, #4
 80037be:	9200      	str	r2, [sp, #0]
 80037c0:	9a00      	ldr	r2, [sp, #0]
  __HAL_RCC_GPIOH_CLK_ENABLE();
 80037c2:	6cda      	ldr	r2, [r3, #76]	; 0x4c
 80037c4:	f042 0280 	orr.w	r2, r2, #128	; 0x80
 80037c8:	64da      	str	r2, [r3, #76]	; 0x4c
 80037ca:	6cda      	ldr	r2, [r3, #76]	; 0x4c
 80037cc:	f002 0280 	and.w	r2, r2, #128	; 0x80
 80037d0:	9201      	str	r2, [sp, #4]
 80037d2:	9a01      	ldr	r2, [sp, #4]
  __HAL_RCC_GPIOA_CLK_ENABLE();
 80037d4:	6cda      	ldr	r2, [r3, #76]	; 0x4c
 80037d6:	f042 0201 	orr.w	r2, r2, #1
 80037da:	64da      	str	r2, [r3, #76]	; 0x4c
 80037dc:	6cda      	ldr	r2, [r3, #76]	; 0x4c
 80037de:	f002 0201 	and.w	r2, r2, #1
 80037e2:	9202      	str	r2, [sp, #8]
 80037e4:	9a02      	ldr	r2, [sp, #8]
  __HAL_RCC_GPIOB_CLK_ENABLE();
 80037e6:	6cda      	ldr	r2, [r3, #76]	; 0x4c
 80037e8:	f042 0202 	orr.w	r2, r2, #2
 80037ec:	64da      	str	r2, [r3, #76]	; 0x4c
 80037ee:	6cda      	ldr	r2, [r3, #76]	; 0x4c
 80037f0:	f002 0202 	and.w	r2, r2, #2
 80037f4:	9203      	str	r2, [sp, #12]
 80037f6:	9a03      	ldr	r2, [sp, #12]
  __HAL_RCC_GPIOD_CLK_ENABLE();
 80037f8:	6cda      	ldr	r2, [r3, #76]	; 0x4c
 80037fa:	f042 0208 	orr.w	r2, r2, #8
 80037fe:	64da      	str	r2, [r3, #76]	; 0x4c
 8003800:	6cdb      	ldr	r3, [r3, #76]	; 0x4c
 8003802:	f003 0308 	and.w	r3, r3, #8
 8003806:	9304      	str	r3, [sp, #16]
 8003808:	9b04      	ldr	r3, [sp, #16]
  GPIO_InitStruct.Pin = B1_Pin;
 800380a:	f44f 5300 	mov.w	r3, #8192	; 0x2000
 800380e:	9305      	str	r3, [sp, #20]
  HAL_GPIO_Init(B1_GPIO_Port, &GPIO_InitStruct);
 8003810:	a905      	add	r1, sp, #20
  GPIO_InitStruct.Mode = GPIO_MODE_IT_FALLING;
 8003812:	4b18      	ldr	r3, [pc, #96]	; (8003874 <MX_GPIO_Init+0xd8>)
 8003814:	9306      	str	r3, [sp, #24]
  HAL_GPIO_Init(B1_GPIO_Port, &GPIO_InitStruct);
 8003816:	4630      	mov	r0, r6
 8003818:	f7fd fce6 	bl	80011e8 <HAL_GPIO_Init>
                           PC12 */
  GPIO_InitStruct.Pin = GPIO_PIN_0|GPIO_PIN_1|GPIO_PIN_2|GPIO_PIN_3 
                          |GPIO_PIN_4|GPIO_PIN_5|GPIO_PIN_6|GPIO_PIN_7 
                          |GPIO_PIN_8|GPIO_PIN_9|GPIO_PIN_10|GPIO_PIN_11 
                          |GPIO_PIN_12;
  GPIO_InitStruct.Mode = GPIO_MODE_ANALOG;
 800381c:	2503      	movs	r5, #3
  GPIO_InitStruct.Pull = GPIO_NOPULL;
 800381e:	2400      	movs	r4, #0
  GPIO_InitStruct.Pin = GPIO_PIN_0|GPIO_PIN_1|GPIO_PIN_2|GPIO_PIN_3 
 8003820:	f641 73ff 	movw	r3, #8191	; 0x1fff
  HAL_GPIO_Init(GPIOC, &GPIO_InitStruct);
 8003824:	a905      	add	r1, sp, #20
 8003826:	4630      	mov	r0, r6
  GPIO_InitStruct.Pin = GPIO_PIN_0|GPIO_PIN_1|GPIO_PIN_2|GPIO_PIN_3 
 8003828:	9305      	str	r3, [sp, #20]
  GPIO_InitStruct.Mode = GPIO_MODE_ANALOG;
 800382a:	9506      	str	r5, [sp, #24]
  GPIO_InitStruct.Pull = GPIO_NOPULL;
 800382c:	9407      	str	r4, [sp, #28]
  HAL_GPIO_Init(GPIOC, &GPIO_InitStruct);
 800382e:	f7fd fcdb 	bl	80011e8 <HAL_GPIO_Init>

  /*Configure GPIO pins : PA0 PA1 PA5 PA7 
                           PA8 PA9 PA10 PA11 
                           PA12 PA15 */
  GPIO_InitStruct.Pin = GPIO_PIN_0|GPIO_PIN_1|GPIO_PIN_5|GPIO_PIN_7 
 8003832:	f649 73a3 	movw	r3, #40867	; 0x9fa3
                          |GPIO_PIN_8|GPIO_PIN_9|GPIO_PIN_10|GPIO_PIN_11 
                          |GPIO_PIN_12|GPIO_PIN_15;
  GPIO_InitStruct.Mode = GPIO_MODE_ANALOG;
  GPIO_InitStruct.Pull = GPIO_NOPULL;
  HAL_GPIO_Init(GPIOA, &GPIO_InitStruct);
 8003836:	a905      	add	r1, sp, #20
 8003838:	f04f 4090 	mov.w	r0, #1207959552	; 0x48000000
  GPIO_InitStruct.Pin = GPIO_PIN_0|GPIO_PIN_1|GPIO_PIN_5|GPIO_PIN_7 
 800383c:	9305      	str	r3, [sp, #20]
  GPIO_InitStruct.Mode = GPIO_MODE_ANALOG;
 800383e:	9506      	str	r5, [sp, #24]
  GPIO_InitStruct.Pull = GPIO_NOPULL;
 8003840:	9407      	str	r4, [sp, #28]
  HAL_GPIO_Init(GPIOA, &GPIO_InitStruct);
 8003842:	f7fd fcd1 	bl	80011e8 <HAL_GPIO_Init>

  /*Configure GPIO pins : PB0 PB1 PB2 PB10 
                           PB11 PB12 PB13 PB14 
                           PB15 PB4 PB5 PB6 
                           PB7 */
  GPIO_InitStruct.Pin = GPIO_PIN_0|GPIO_PIN_1|GPIO_PIN_2|GPIO_PIN_10 
 8003846:	f64f 43f7 	movw	r3, #64759	; 0xfcf7
                          |GPIO_PIN_11|GPIO_PIN_12|GPIO_PIN_13|GPIO_PIN_14 
                          |GPIO_PIN_15|GPIO_PIN_4|GPIO_PIN_5|GPIO_PIN_6 
                          |GPIO_PIN_7;
  GPIO_InitStruct.Mode = GPIO_MODE_ANALOG;
  GPIO_InitStruct.Pull = GPIO_NOPULL;
  HAL_GPIO_Init(GPIOB, &GPIO_InitStruct);
 800384a:	a905      	add	r1, sp, #20
 800384c:	480a      	ldr	r0, [pc, #40]	; (8003878 <MX_GPIO_Init+0xdc>)
  GPIO_InitStruct.Pin = GPIO_PIN_0|GPIO_PIN_1|GPIO_PIN_2|GPIO_PIN_10 
 800384e:	9305      	str	r3, [sp, #20]
  GPIO_InitStruct.Mode = GPIO_MODE_ANALOG;
 8003850:	9506      	str	r5, [sp, #24]
  GPIO_InitStruct.Pull = GPIO_NOPULL;
 8003852:	9407      	str	r4, [sp, #28]
  HAL_GPIO_Init(GPIOB, &GPIO_InitStruct);
 8003854:	f7fd fcc8 	bl	80011e8 <HAL_GPIO_Init>

  /*Configure GPIO pin : PD2 */
  GPIO_InitStruct.Pin = GPIO_PIN_2;
 8003858:	2304      	movs	r3, #4
  GPIO_InitStruct.Mode = GPIO_MODE_ANALOG;
  GPIO_InitStruct.Pull = GPIO_NOPULL;
  HAL_GPIO_Init(GPIOD, &GPIO_InitStruct);
 800385a:	a905      	add	r1, sp, #20
 800385c:	4807      	ldr	r0, [pc, #28]	; (800387c <MX_GPIO_Init+0xe0>)
  GPIO_InitStruct.Pin = GPIO_PIN_2;
 800385e:	9305      	str	r3, [sp, #20]
  GPIO_InitStruct.Mode = GPIO_MODE_ANALOG;
 8003860:	9506      	str	r5, [sp, #24]
  GPIO_InitStruct.Pull = GPIO_NOPULL;
 8003862:	9407      	str	r4, [sp, #28]
  HAL_GPIO_Init(GPIOD, &GPIO_InitStruct);
 8003864:	f7fd fcc0 	bl	80011e8 <HAL_GPIO_Init>

}
 8003868:	b00a      	add	sp, #40	; 0x28
 800386a:	bd70      	pop	{r4, r5, r6, pc}
 800386c:	40021000 	.word	0x40021000
 8003870:	48000800 	.word	0x48000800
 8003874:	10210000 	.word	0x10210000
 8003878:	48000400 	.word	0x48000400
 800387c:	48000c00 	.word	0x48000c00

08003880 <MX_I2C1_Init>:

I2C_HandleTypeDef hi2c1;

/* I2C1 init function */
void MX_I2C1_Init(void)
{
 8003880:	b508      	push	{r3, lr}

  hi2c1.Instance = I2C1;
 8003882:	4812      	ldr	r0, [pc, #72]	; (80038cc <MX_I2C1_Init+0x4c>)
  hi2c1.Init.Timing = 0x10909CEC;
 8003884:	4b12      	ldr	r3, [pc, #72]	; (80038d0 <MX_I2C1_Init+0x50>)
 8003886:	4913      	ldr	r1, [pc, #76]	; (80038d4 <MX_I2C1_Init+0x54>)
  hi2c1.Init.OwnAddress1 = 0;
  hi2c1.Init.AddressingMode = I2C_ADDRESSINGMODE_7BIT;
 8003888:	2201      	movs	r2, #1
  hi2c1.Init.Timing = 0x10909CEC;
 800388a:	e880 000a 	stmia.w	r0, {r1, r3}
  hi2c1.Init.OwnAddress1 = 0;
 800388e:	2300      	movs	r3, #0
 8003890:	6083      	str	r3, [r0, #8]
  hi2c1.Init.AddressingMode = I2C_ADDRESSINGMODE_7BIT;
 8003892:	60c2      	str	r2, [r0, #12]
  hi2c1.Init.DualAddressMode = I2C_DUALADDRESS_DISABLE;
 8003894:	6103      	str	r3, [r0, #16]
  hi2c1.Init.OwnAddress2 = 0;
 8003896:	6143      	str	r3, [r0, #20]
  hi2c1.Init.OwnAddress2Masks = I2C_OA2_NOMASK;
 8003898:	6183      	str	r3, [r0, #24]
  hi2c1.Init.GeneralCallMode = I2C_GENERALCALL_DISABLE;
 800389a:	61c3      	str	r3, [r0, #28]
  hi2c1.Init.NoStretchMode = I2C_NOSTRETCH_DISABLE;
 800389c:	6203      	str	r3, [r0, #32]
  if (HAL_I2C_Init(&hi2c1) != HAL_OK)
 800389e:	f7fd feec 	bl	800167a <HAL_I2C_Init>
 80038a2:	b108      	cbz	r0, 80038a8 <MX_I2C1_Init+0x28>
  {
    Error_Handler();
 80038a4:	f000 fbd6 	bl	8004054 <Error_Handler>
  }
  /**Configure Analogue filter 
  */
  if (HAL_I2CEx_ConfigAnalogFilter(&hi2c1, I2C_ANALOGFILTER_ENABLE) != HAL_OK)
 80038a8:	2100      	movs	r1, #0
 80038aa:	4808      	ldr	r0, [pc, #32]	; (80038cc <MX_I2C1_Init+0x4c>)
 80038ac:	f7fe fb06 	bl	8001ebc <HAL_I2CEx_ConfigAnalogFilter>
 80038b0:	b108      	cbz	r0, 80038b6 <MX_I2C1_Init+0x36>
  {
    Error_Handler();
 80038b2:	f000 fbcf 	bl	8004054 <Error_Handler>
  }
  /**Configure Digital filter 
  */
  if (HAL_I2CEx_ConfigDigitalFilter(&hi2c1, 0) != HAL_OK)
 80038b6:	2100      	movs	r1, #0
 80038b8:	4804      	ldr	r0, [pc, #16]	; (80038cc <MX_I2C1_Init+0x4c>)
 80038ba:	f7fe fb25 	bl	8001f08 <HAL_I2CEx_ConfigDigitalFilter>
 80038be:	b118      	cbz	r0, 80038c8 <MX_I2C1_Init+0x48>
  {
    Error_Handler();
  }

}
 80038c0:	e8bd 4008 	ldmia.w	sp!, {r3, lr}
    Error_Handler();
 80038c4:	f000 bbc6 	b.w	8004054 <Error_Handler>
 80038c8:	bd08      	pop	{r3, pc}
 80038ca:	bf00      	nop
 80038cc:	2000011c 	.word	0x2000011c
 80038d0:	10909cec 	.word	0x10909cec
 80038d4:	40005400 	.word	0x40005400

080038d8 <HAL_I2C_MspInit>:

void HAL_I2C_MspInit(I2C_HandleTypeDef* i2cHandle)
{
 80038d8:	b510      	push	{r4, lr}
 80038da:	4604      	mov	r4, r0
 80038dc:	b088      	sub	sp, #32

  GPIO_InitTypeDef GPIO_InitStruct = {0};
 80038de:	2214      	movs	r2, #20
 80038e0:	2100      	movs	r1, #0
 80038e2:	a803      	add	r0, sp, #12
 80038e4:	f000 fd0a 	bl	80042fc <memset>
  if(i2cHandle->Instance==I2C1)
 80038e8:	6822      	ldr	r2, [r4, #0]
 80038ea:	4b1b      	ldr	r3, [pc, #108]	; (8003958 <HAL_I2C_MspInit+0x80>)
 80038ec:	429a      	cmp	r2, r3
 80038ee:	d131      	bne.n	8003954 <HAL_I2C_MspInit+0x7c>
  {
  /* USER CODE BEGIN I2C1_MspInit 0 */

  /* USER CODE END I2C1_MspInit 0 */
  
    __HAL_RCC_GPIOB_CLK_ENABLE();
 80038f0:	4c1a      	ldr	r4, [pc, #104]	; (800395c <HAL_I2C_MspInit+0x84>)
    GPIO_InitStruct.Pin = GPIO_PIN_8|GPIO_PIN_9;
    GPIO_InitStruct.Mode = GPIO_MODE_AF_OD;
    GPIO_InitStruct.Pull = GPIO_PULLUP;
    GPIO_InitStruct.Speed = GPIO_SPEED_FREQ_VERY_HIGH;
    GPIO_InitStruct.Alternate = GPIO_AF4_I2C1;
    HAL_GPIO_Init(GPIOB, &GPIO_InitStruct);
 80038f2:	481b      	ldr	r0, [pc, #108]	; (8003960 <HAL_I2C_MspInit+0x88>)
    __HAL_RCC_GPIOB_CLK_ENABLE();
 80038f4:	6ce3      	ldr	r3, [r4, #76]	; 0x4c
 80038f6:	f043 0302 	orr.w	r3, r3, #2
 80038fa:	64e3      	str	r3, [r4, #76]	; 0x4c
 80038fc:	6ce3      	ldr	r3, [r4, #76]	; 0x4c
 80038fe:	f003 0302 	and.w	r3, r3, #2
 8003902:	9301      	str	r3, [sp, #4]
 8003904:	9b01      	ldr	r3, [sp, #4]
    GPIO_InitStruct.Pin = GPIO_PIN_8|GPIO_PIN_9;
 8003906:	f44f 7340 	mov.w	r3, #768	; 0x300
 800390a:	9303      	str	r3, [sp, #12]
    GPIO_InitStruct.Mode = GPIO_MODE_AF_OD;
 800390c:	2312      	movs	r3, #18
 800390e:	9304      	str	r3, [sp, #16]
    GPIO_InitStruct.Pull = GPIO_PULLUP;
 8003910:	2301      	movs	r3, #1
 8003912:	9305      	str	r3, [sp, #20]
    GPIO_InitStruct.Speed = GPIO_SPEED_FREQ_VERY_HIGH;
 8003914:	2303      	movs	r3, #3
 8003916:	9306      	str	r3, [sp, #24]
    HAL_GPIO_Init(GPIOB, &GPIO_InitStruct);
 8003918:	a903      	add	r1, sp, #12
    GPIO_InitStruct.Alternate = GPIO_AF4_I2C1;
 800391a:	2304      	movs	r3, #4
 800391c:	9307      	str	r3, [sp, #28]
    HAL_GPIO_Init(GPIOB, &GPIO_InitStruct);
 800391e:	f7fd fc63 	bl	80011e8 <HAL_GPIO_Init>

    /* I2C1 clock enable */
    __HAL_RCC_I2C1_CLK_ENABLE();
 8003922:	6da3      	ldr	r3, [r4, #88]	; 0x58
 8003924:	f443 1300 	orr.w	r3, r3, #2097152	; 0x200000
 8003928:	65a3      	str	r3, [r4, #88]	; 0x58
 800392a:	6da3      	ldr	r3, [r4, #88]	; 0x58

    /* I2C1 interrupt Init */
    HAL_NVIC_SetPriority(I2C1_EV_IRQn, 0, 0);
 800392c:	2200      	movs	r2, #0
    __HAL_RCC_I2C1_CLK_ENABLE();
 800392e:	f403 1300 	and.w	r3, r3, #2097152	; 0x200000
    HAL_NVIC_SetPriority(I2C1_EV_IRQn, 0, 0);
 8003932:	4611      	mov	r1, r2
    __HAL_RCC_I2C1_CLK_ENABLE();
 8003934:	9302      	str	r3, [sp, #8]
    HAL_NVIC_SetPriority(I2C1_EV_IRQn, 0, 0);
 8003936:	201f      	movs	r0, #31
    __HAL_RCC_I2C1_CLK_ENABLE();
 8003938:	9b02      	ldr	r3, [sp, #8]
    HAL_NVIC_SetPriority(I2C1_EV_IRQn, 0, 0);
 800393a:	f7fd fbd9 	bl	80010f0 <HAL_NVIC_SetPriority>
    HAL_NVIC_EnableIRQ(I2C1_EV_IRQn);
 800393e:	201f      	movs	r0, #31
 8003940:	f7fd fc0a 	bl	8001158 <HAL_NVIC_EnableIRQ>
    HAL_NVIC_SetPriority(I2C1_ER_IRQn, 0, 0);
 8003944:	2200      	movs	r2, #0
 8003946:	2020      	movs	r0, #32
 8003948:	4611      	mov	r1, r2
 800394a:	f7fd fbd1 	bl	80010f0 <HAL_NVIC_SetPriority>
    HAL_NVIC_EnableIRQ(I2C1_ER_IRQn);
 800394e:	2020      	movs	r0, #32
 8003950:	f7fd fc02 	bl	8001158 <HAL_NVIC_EnableIRQ>
  /* USER CODE BEGIN I2C1_MspInit 1 */

  /* USER CODE END I2C1_MspInit 1 */
  }
}
 8003954:	b008      	add	sp, #32
 8003956:	bd10      	pop	{r4, pc}
 8003958:	40005400 	.word	0x40005400
 800395c:	40021000 	.word	0x40021000
 8003960:	48000400 	.word	0x48000400

08003964 <SystemClock_Config>:
/**
  * @brief System Clock Configuration
  * @retval None
  */
void SystemClock_Config(void)
{
 8003964:	b5f0      	push	{r4, r5, r6, r7, lr}
 8003966:	b0b9      	sub	sp, #228	; 0xe4
  RCC_OscInitTypeDef RCC_OscInitStruct = {0};
 8003968:	2244      	movs	r2, #68	; 0x44
 800396a:	2100      	movs	r1, #0
 800396c:	a805      	add	r0, sp, #20
 800396e:	f000 fcc5 	bl	80042fc <memset>
  RCC_ClkInitTypeDef RCC_ClkInitStruct = {0};
 8003972:	2214      	movs	r2, #20
 8003974:	2100      	movs	r1, #0
 8003976:	4668      	mov	r0, sp
 8003978:	f000 fcc0 	bl	80042fc <memset>
  RCC_PeriphCLKInitTypeDef PeriphClkInit = {0};
 800397c:	2288      	movs	r2, #136	; 0x88
 800397e:	2100      	movs	r1, #0
 8003980:	a816      	add	r0, sp, #88	; 0x58
 8003982:	f000 fcbb 	bl	80042fc <memset>

  /**Initializes the CPU, AHB and APB busses clocks 
  */
  RCC_OscInitStruct.OscillatorType = RCC_OSCILLATORTYPE_HSI;
  RCC_OscInitStruct.HSIState = RCC_HSI_ON;
 8003986:	f44f 7380 	mov.w	r3, #256	; 0x100
 800398a:	9308      	str	r3, [sp, #32]
  RCC_OscInitStruct.HSICalibrationValue = RCC_HSICALIBRATION_DEFAULT;
 800398c:	2310      	movs	r3, #16
  RCC_OscInitStruct.OscillatorType = RCC_OSCILLATORTYPE_HSI;
 800398e:	2402      	movs	r4, #2
  RCC_OscInitStruct.HSICalibrationValue = RCC_HSICALIBRATION_DEFAULT;
 8003990:	9309      	str	r3, [sp, #36]	; 0x24
  RCC_OscInitStruct.PLL.PLLState = RCC_PLL_ON;
  RCC_OscInitStruct.PLL.PLLSource = RCC_PLLSOURCE_HSI;
  RCC_OscInitStruct.PLL.PLLM = 1;
 8003992:	2701      	movs	r7, #1
  RCC_OscInitStruct.PLL.PLLN = 10;
 8003994:	230a      	movs	r3, #10
  RCC_OscInitStruct.PLL.PLLP = RCC_PLLP_DIV7;
 8003996:	2607      	movs	r6, #7
  RCC_OscInitStruct.PLL.PLLQ = RCC_PLLQ_DIV2;
  RCC_OscInitStruct.PLL.PLLR = RCC_PLLR_DIV2;
  if (HAL_RCC_OscConfig(&RCC_OscInitStruct) != HAL_OK)
 8003998:	a805      	add	r0, sp, #20
  /**Initializes the CPU, AHB and APB busses clocks 
  */
  RCC_ClkInitStruct.ClockType = RCC_CLOCKTYPE_HCLK|RCC_CLOCKTYPE_SYSCLK
                              |RCC_CLOCKTYPE_PCLK1|RCC_CLOCKTYPE_PCLK2;
  RCC_ClkInitStruct.SYSCLKSource = RCC_SYSCLKSOURCE_PLLCLK;
  RCC_ClkInitStruct.AHBCLKDivider = RCC_SYSCLK_DIV1;
 800399a:	2500      	movs	r5, #0
  RCC_OscInitStruct.PLL.PLLN = 10;
 800399c:	9312      	str	r3, [sp, #72]	; 0x48
  RCC_OscInitStruct.OscillatorType = RCC_OSCILLATORTYPE_HSI;
 800399e:	9405      	str	r4, [sp, #20]
  RCC_OscInitStruct.PLL.PLLState = RCC_PLL_ON;
 80039a0:	940f      	str	r4, [sp, #60]	; 0x3c
  RCC_OscInitStruct.PLL.PLLSource = RCC_PLLSOURCE_HSI;
 80039a2:	9410      	str	r4, [sp, #64]	; 0x40
  RCC_OscInitStruct.PLL.PLLM = 1;
 80039a4:	9711      	str	r7, [sp, #68]	; 0x44
  RCC_OscInitStruct.PLL.PLLP = RCC_PLLP_DIV7;
 80039a6:	9613      	str	r6, [sp, #76]	; 0x4c
  RCC_OscInitStruct.PLL.PLLQ = RCC_PLLQ_DIV2;
 80039a8:	9414      	str	r4, [sp, #80]	; 0x50
  RCC_OscInitStruct.PLL.PLLR = RCC_PLLR_DIV2;
 80039aa:	9415      	str	r4, [sp, #84]	; 0x54
  if (HAL_RCC_OscConfig(&RCC_OscInitStruct) != HAL_OK)
 80039ac:	f7fe fba6 	bl	80020fc <HAL_RCC_OscConfig>
  RCC_ClkInitStruct.AHBCLKDivider = RCC_SYSCLK_DIV1;
 80039b0:	220f      	movs	r2, #15
  RCC_ClkInitStruct.APB1CLKDivider = RCC_HCLK_DIV1;
  RCC_ClkInitStruct.APB2CLKDivider = RCC_HCLK_DIV1;

  if (HAL_RCC_ClockConfig(&RCC_ClkInitStruct, FLASH_LATENCY_4) != HAL_OK)
 80039b2:	2104      	movs	r1, #4
  RCC_ClkInitStruct.AHBCLKDivider = RCC_SYSCLK_DIV1;
 80039b4:	2303      	movs	r3, #3
  if (HAL_RCC_ClockConfig(&RCC_ClkInitStruct, FLASH_LATENCY_4) != HAL_OK)
 80039b6:	4668      	mov	r0, sp
  RCC_ClkInitStruct.AHBCLKDivider = RCC_SYSCLK_DIV1;
 80039b8:	e88d 002c 	stmia.w	sp, {r2, r3, r5}
  RCC_ClkInitStruct.APB1CLKDivider = RCC_HCLK_DIV1;
 80039bc:	9503      	str	r5, [sp, #12]
  RCC_ClkInitStruct.APB2CLKDivider = RCC_HCLK_DIV1;
 80039be:	9504      	str	r5, [sp, #16]
  if (HAL_RCC_ClockConfig(&RCC_ClkInitStruct, FLASH_LATENCY_4) != HAL_OK)
 80039c0:	f7fe fdc2 	bl	8002548 <HAL_RCC_ClockConfig>
  {
    Error_Handler();
  }
  PeriphClkInit.PeriphClockSelection = RCC_PERIPHCLK_USART2|RCC_PERIPHCLK_I2C1
 80039c4:	f244 0342 	movw	r3, #16450	; 0x4042
 80039c8:	9316      	str	r3, [sp, #88]	; 0x58
                              |RCC_PERIPHCLK_ADC;
  PeriphClkInit.Usart2ClockSelection = RCC_USART2CLKSOURCE_PCLK1;
  PeriphClkInit.I2c1ClockSelection = RCC_I2C1CLKSOURCE_PCLK1;
  PeriphClkInit.AdcClockSelection = RCC_ADCCLKSOURCE_PLLSAI1;
 80039ca:	f04f 5380 	mov.w	r3, #268435456	; 0x10000000
 80039ce:	9334      	str	r3, [sp, #208]	; 0xd0
  PeriphClkInit.PLLSAI1.PLLSAI1Source = RCC_PLLSOURCE_HSI;
  PeriphClkInit.PLLSAI1.PLLSAI1M = 1;
  PeriphClkInit.PLLSAI1.PLLSAI1N = 8;
 80039d0:	2308      	movs	r3, #8
 80039d2:	9319      	str	r3, [sp, #100]	; 0x64
  PeriphClkInit.PLLSAI1.PLLSAI1P = RCC_PLLP_DIV7;
  PeriphClkInit.PLLSAI1.PLLSAI1Q = RCC_PLLQ_DIV2;
  PeriphClkInit.PLLSAI1.PLLSAI1R = RCC_PLLR_DIV2;
  PeriphClkInit.PLLSAI1.PLLSAI1ClockOut = RCC_PLLSAI1_ADC1CLK;
  if (HAL_RCCEx_PeriphCLKConfig(&PeriphClkInit) != HAL_OK)
 80039d4:	a816      	add	r0, sp, #88	; 0x58
  PeriphClkInit.PLLSAI1.PLLSAI1ClockOut = RCC_PLLSAI1_ADC1CLK;
 80039d6:	f04f 7380 	mov.w	r3, #16777216	; 0x1000000
 80039da:	931d      	str	r3, [sp, #116]	; 0x74
  PeriphClkInit.Usart2ClockSelection = RCC_USART2CLKSOURCE_PCLK1;
 80039dc:	9525      	str	r5, [sp, #148]	; 0x94
  PeriphClkInit.I2c1ClockSelection = RCC_I2C1CLKSOURCE_PCLK1;
 80039de:	952a      	str	r5, [sp, #168]	; 0xa8
  PeriphClkInit.PLLSAI1.PLLSAI1Source = RCC_PLLSOURCE_HSI;
 80039e0:	9417      	str	r4, [sp, #92]	; 0x5c
  PeriphClkInit.PLLSAI1.PLLSAI1M = 1;
 80039e2:	9718      	str	r7, [sp, #96]	; 0x60
  PeriphClkInit.PLLSAI1.PLLSAI1P = RCC_PLLP_DIV7;
 80039e4:	961a      	str	r6, [sp, #104]	; 0x68
  PeriphClkInit.PLLSAI1.PLLSAI1Q = RCC_PLLQ_DIV2;
 80039e6:	941b      	str	r4, [sp, #108]	; 0x6c
  PeriphClkInit.PLLSAI1.PLLSAI1R = RCC_PLLR_DIV2;
 80039e8:	941c      	str	r4, [sp, #112]	; 0x70
  if (HAL_RCCEx_PeriphCLKConfig(&PeriphClkInit) != HAL_OK)
 80039ea:	f7fe ff6f 	bl	80028cc <HAL_RCCEx_PeriphCLKConfig>
  {
    Error_Handler();
  }
  /**Configure the main internal regulator output voltage 
  */
  if (HAL_PWREx_ControlVoltageScaling(PWR_REGULATOR_VOLTAGE_SCALE1) != HAL_OK)
 80039ee:	f44f 7000 	mov.w	r0, #512	; 0x200
 80039f2:	f7fe fab7 	bl	8001f64 <HAL_PWREx_ControlVoltageScaling>
  {
    Error_Handler();
  }
}
 80039f6:	b039      	add	sp, #228	; 0xe4
 80039f8:	bdf0      	pop	{r4, r5, r6, r7, pc}
	...

080039fc <_write>:

/* USER CODE BEGIN 4 */

//printf
int _write(int file,char *ptr, int len)
{
 80039fc:	b510      	push	{r4, lr}
    HAL_UART_Transmit(&huart2,(uint8_t *)ptr,len,10);
 80039fe:	230a      	movs	r3, #10
{
 8003a00:	4614      	mov	r4, r2
    HAL_UART_Transmit(&huart2,(uint8_t *)ptr,len,10);
 8003a02:	4803      	ldr	r0, [pc, #12]	; (8003a10 <_write+0x14>)
 8003a04:	b292      	uxth	r2, r2
 8003a06:	f7ff fd8e 	bl	8003526 <HAL_UART_Transmit>
    return len;
}
 8003a0a:	4620      	mov	r0, r4
 8003a0c:	bd10      	pop	{r4, pc}
 8003a0e:	bf00      	nop
 8003a10:	20000214 	.word	0x20000214

08003a14 <ADC_Init>:
	READ_SENSOR_MQ135();
	HAL_ADC_Start_IT(&hadc1);
}
void ADC_Init() //Lancer l'ADC
{
	if (HAL_ADC_Start_IT(&hadc1)!= HAL_OK)
 8003a14:	4801      	ldr	r0, [pc, #4]	; (8003a1c <ADC_Init+0x8>)
 8003a16:	f7fd ba2b 	b.w	8000e70 <HAL_ADC_Start_IT>
 8003a1a:	bf00      	nop
 8003a1c:	200000b8 	.word	0x200000b8

08003a20 <READ_SENSOR_MQ135>:
		Error_Handler();
	}
}
void READ_SENSOR_MQ135()
{
	printf("SENSOR Gaz : %d\r\n", valeurADC);
 8003a20:	4b02      	ldr	r3, [pc, #8]	; (8003a2c <READ_SENSOR_MQ135+0xc>)
 8003a22:	4803      	ldr	r0, [pc, #12]	; (8003a30 <READ_SENSOR_MQ135+0x10>)
 8003a24:	8819      	ldrh	r1, [r3, #0]
 8003a26:	f000 bc71 	b.w	800430c <iprintf>
 8003a2a:	bf00      	nop
 8003a2c:	200000a6 	.word	0x200000a6
 8003a30:	08005277 	.word	0x08005277

08003a34 <HAL_TIM_PeriodElapsedCallback>:
{
 8003a34:	b508      	push	{r3, lr}
	READ_SENSOR_MQ135();
 8003a36:	f7ff fff3 	bl	8003a20 <READ_SENSOR_MQ135>
	HAL_ADC_Start_IT(&hadc1);
 8003a3a:	4802      	ldr	r0, [pc, #8]	; (8003a44 <HAL_TIM_PeriodElapsedCallback+0x10>)
}
 8003a3c:	e8bd 4008 	ldmia.w	sp!, {r3, lr}
	HAL_ADC_Start_IT(&hadc1);
 8003a40:	f7fd ba16 	b.w	8000e70 <HAL_ADC_Start_IT>
 8003a44:	200000b8 	.word	0x200000b8

08003a48 <Register>:
{
	  HAL_I2C_Mem_Read(&hi2c1,0xBF, sub_addr_who_am_i[0], 1, who_am_i, 1, I2C_TIMEOUT);
	  printf("Who AM I : %d", who_am_i[0]);
}
void Register()
{
 8003a48:	b57f      	push	{r0, r1, r2, r3, r4, r5, r6, lr}
	//Temperature & humidity
	HAL_I2C_Mem_Write(&hi2c1,0xBE, addr_CTRL_REG1_TEMP[0], 1, CTRL_REG1_TEMP, 1, I2C_TIMEOUT);
 8003a4a:	4b19      	ldr	r3, [pc, #100]	; (8003ab0 <Register+0x68>)
 8003a4c:	4d19      	ldr	r5, [pc, #100]	; (8003ab4 <Register+0x6c>)
 8003a4e:	781a      	ldrb	r2, [r3, #0]
 8003a50:	4b19      	ldr	r3, [pc, #100]	; (8003ab8 <Register+0x70>)
 8003a52:	9300      	str	r3, [sp, #0]
 8003a54:	2401      	movs	r4, #1
 8003a56:	f44f 767a 	mov.w	r6, #1000	; 0x3e8
 8003a5a:	4623      	mov	r3, r4
 8003a5c:	9602      	str	r6, [sp, #8]
 8003a5e:	9401      	str	r4, [sp, #4]
 8003a60:	21be      	movs	r1, #190	; 0xbe
 8003a62:	4628      	mov	r0, r5
 8003a64:	f7fd fe5a 	bl	800171c <HAL_I2C_Mem_Write>
	//PRESSURE
	HAL_I2C_Mem_Write(&hi2c1,0xBA, addr_CTRL_REG1_PRES[0], 1, CTRL_REG1_PRES, 1, I2C_TIMEOUT);
 8003a68:	4b14      	ldr	r3, [pc, #80]	; (8003abc <Register+0x74>)
 8003a6a:	781a      	ldrb	r2, [r3, #0]
 8003a6c:	4b14      	ldr	r3, [pc, #80]	; (8003ac0 <Register+0x78>)
 8003a6e:	9300      	str	r3, [sp, #0]
 8003a70:	9602      	str	r6, [sp, #8]
 8003a72:	4623      	mov	r3, r4
 8003a74:	9401      	str	r4, [sp, #4]
 8003a76:	21ba      	movs	r1, #186	; 0xba
 8003a78:	4628      	mov	r0, r5
 8003a7a:	f7fd fe4f 	bl	800171c <HAL_I2C_Mem_Write>

	HAL_I2C_Mem_Write(&hi2c1,0xBA, addr_CTRL_REG2_PRES[0], 1, CTRL_REG2_PRES, 1, I2C_TIMEOUT);
 8003a7e:	4b11      	ldr	r3, [pc, #68]	; (8003ac4 <Register+0x7c>)
 8003a80:	781a      	ldrb	r2, [r3, #0]
 8003a82:	4b11      	ldr	r3, [pc, #68]	; (8003ac8 <Register+0x80>)
 8003a84:	9300      	str	r3, [sp, #0]
 8003a86:	9602      	str	r6, [sp, #8]
 8003a88:	4623      	mov	r3, r4
 8003a8a:	9401      	str	r4, [sp, #4]
 8003a8c:	21ba      	movs	r1, #186	; 0xba
 8003a8e:	4628      	mov	r0, r5
 8003a90:	f7fd fe44 	bl	800171c <HAL_I2C_Mem_Write>

	HAL_I2C_Mem_Write(&hi2c1,0xBA, addr_INTERRUPT_CFG[0], 1, INTERRUPT_CFG, 1, I2C_TIMEOUT);
 8003a94:	4b0d      	ldr	r3, [pc, #52]	; (8003acc <Register+0x84>)
 8003a96:	781a      	ldrb	r2, [r3, #0]
 8003a98:	4b0d      	ldr	r3, [pc, #52]	; (8003ad0 <Register+0x88>)
 8003a9a:	9300      	str	r3, [sp, #0]
 8003a9c:	9602      	str	r6, [sp, #8]
 8003a9e:	9401      	str	r4, [sp, #4]
 8003aa0:	4623      	mov	r3, r4
 8003aa2:	21ba      	movs	r1, #186	; 0xba
 8003aa4:	4628      	mov	r0, r5
 8003aa6:	f7fd fe39 	bl	800171c <HAL_I2C_Mem_Write>

}
 8003aaa:	b004      	add	sp, #16
 8003aac:	bd70      	pop	{r4, r5, r6, pc}
 8003aae:	bf00      	nop
 8003ab0:	20000005 	.word	0x20000005
 8003ab4:	2000011c 	.word	0x2000011c
 8003ab8:	20000001 	.word	0x20000001
 8003abc:	20000004 	.word	0x20000004
 8003ac0:	20000000 	.word	0x20000000
 8003ac4:	20000006 	.word	0x20000006
 8003ac8:	20000002 	.word	0x20000002
 8003acc:	2000000f 	.word	0x2000000f
 8003ad0:	20000003 	.word	0x20000003

08003ad4 <main>:
{
 8003ad4:	b508      	push	{r3, lr}
  HAL_Init();
 8003ad6:	f7fc fd6b 	bl	80005b0 <HAL_Init>
  SystemClock_Config();
 8003ada:	f7ff ff43 	bl	8003964 <SystemClock_Config>
  MX_GPIO_Init();
 8003ade:	f7ff fe5d 	bl	800379c <MX_GPIO_Init>
  MX_USART2_UART_Init();
 8003ae2:	f000 fb6d 	bl	80041c0 <MX_USART2_UART_Init>
  MX_ADC1_Init();
 8003ae6:	f7ff fdd9 	bl	800369c <MX_ADC1_Init>
  MX_TIM3_Init();
 8003aea:	f000 fb13 	bl	8004114 <MX_TIM3_Init>
  MX_I2C1_Init();
 8003aee:	f7ff fec7 	bl	8003880 <MX_I2C1_Init>
  printf("\033[2J\033[1;1H"); //Affiche seulement les nouvelles valeurs  virer pour le final
 8003af2:	4807      	ldr	r0, [pc, #28]	; (8003b10 <main+0x3c>)
 8003af4:	f000 fc0a 	bl	800430c <iprintf>
  printf("Sensors\r\n");
 8003af8:	4806      	ldr	r0, [pc, #24]	; (8003b14 <main+0x40>)
 8003afa:	f000 fc7b 	bl	80043f4 <puts>
  Register();
 8003afe:	f7ff ffa3 	bl	8003a48 <Register>
  ADC_Init();
 8003b02:	f7ff ff87 	bl	8003a14 <ADC_Init>
  HAL_TIM_Base_Start_IT(&htim3);//Donne base temps -> tous les 5 sec
 8003b06:	4804      	ldr	r0, [pc, #16]	; (8003b18 <main+0x44>)
 8003b08:	f7ff f8c8 	bl	8002c9c <HAL_TIM_Base_Start_IT>
 8003b0c:	e7fe      	b.n	8003b0c <main+0x38>
 8003b0e:	bf00      	nop
 8003b10:	08005298 	.word	0x08005298
 8003b14:	080052a3 	.word	0x080052a3
 8003b18:	200001d4 	.word	0x200001d4

08003b1c <temperature_IKSO1A2>:
//Temperature
void temperature_IKSO1A2()
{
 8003b1c:	e92d 4ff0 	stmdb	sp!, {r4, r5, r6, r7, r8, r9, sl, fp, lr}
		HAL_I2C_Mem_Read(&hi2c1,0xBF, addr_T0_degC_x8[0], 1, T0_degC_x8, 1, I2C_TIMEOUT);
 8003b20:	4b68      	ldr	r3, [pc, #416]	; (8003cc4 <temperature_IKSO1A2+0x1a8>)
 8003b22:	4d69      	ldr	r5, [pc, #420]	; (8003cc8 <temperature_IKSO1A2+0x1ac>)
 8003b24:	781a      	ldrb	r2, [r3, #0]
 8003b26:	4b69      	ldr	r3, [pc, #420]	; (8003ccc <temperature_IKSO1A2+0x1b0>)
		HAL_I2C_Mem_Read(&hi2c1,0xBF, addr_T1_degC_x8[0], 1, T1_degC_x8, 1, I2C_TIMEOUT);
		HAL_I2C_Mem_Read(&hi2c1,0xBF, addr_T0_T1_msb[0], 1, T0_T1_msb, 1, I2C_TIMEOUT);
		HAL_I2C_Mem_Read(&hi2c1,0xBF, addr_T0_H[0], 1, T0_H, 1, I2C_TIMEOUT);
 8003b28:	4f69      	ldr	r7, [pc, #420]	; (8003cd0 <temperature_IKSO1A2+0x1b4>)
 8003b2a:	f8df 8200 	ldr.w	r8, [pc, #512]	; 8003d2c <temperature_IKSO1A2+0x210>
		HAL_I2C_Mem_Read(&hi2c1,0xBF, addr_T0_H[0], 1, T0_H, 1, I2C_TIMEOUT);
		HAL_I2C_Mem_Read(&hi2c1,0xBF, addr_T0_L[0], 1, T0_L, 1, I2C_TIMEOUT);
		HAL_I2C_Mem_Read(&hi2c1,0xBF, addr_T1_H[0], 1, T1_H, 1, I2C_TIMEOUT);
		HAL_I2C_Mem_Read(&hi2c1,0xBF, addr_T1_L[0], 1, T1_L, 1, I2C_TIMEOUT);
 8003b2e:	f8df a200 	ldr.w	sl, [pc, #512]	; 8003d30 <temperature_IKSO1A2+0x214>
		HAL_I2C_Mem_Read(&hi2c1,0xBF, addr_T_OUT_H[0], 1, T_OUT_H, 1, I2C_TIMEOUT);
 8003b32:	f8df 9200 	ldr.w	r9, [pc, #512]	; 8003d34 <temperature_IKSO1A2+0x218>
		HAL_I2C_Mem_Read(&hi2c1,0xBF, addr_T_OUT_L[0], 1, T_OUT_L, 1, I2C_TIMEOUT);
 8003b36:	f8df b200 	ldr.w	fp, [pc, #512]	; 8003d38 <temperature_IKSO1A2+0x21c>
{
 8003b3a:	b085      	sub	sp, #20
		HAL_I2C_Mem_Read(&hi2c1,0xBF, addr_T0_degC_x8[0], 1, T0_degC_x8, 1, I2C_TIMEOUT);
 8003b3c:	2401      	movs	r4, #1
 8003b3e:	f44f 767a 	mov.w	r6, #1000	; 0x3e8
 8003b42:	9602      	str	r6, [sp, #8]
 8003b44:	9401      	str	r4, [sp, #4]
 8003b46:	9300      	str	r3, [sp, #0]
 8003b48:	21bf      	movs	r1, #191	; 0xbf
 8003b4a:	4623      	mov	r3, r4
 8003b4c:	4628      	mov	r0, r5
 8003b4e:	f7fd fe9d 	bl	800188c <HAL_I2C_Mem_Read>
		HAL_I2C_Mem_Read(&hi2c1,0xBF, addr_T1_degC_x8[0], 1, T1_degC_x8, 1, I2C_TIMEOUT);
 8003b52:	4b60      	ldr	r3, [pc, #384]	; (8003cd4 <temperature_IKSO1A2+0x1b8>)
 8003b54:	781a      	ldrb	r2, [r3, #0]
 8003b56:	4b60      	ldr	r3, [pc, #384]	; (8003cd8 <temperature_IKSO1A2+0x1bc>)
 8003b58:	9602      	str	r6, [sp, #8]
 8003b5a:	9401      	str	r4, [sp, #4]
 8003b5c:	9300      	str	r3, [sp, #0]
 8003b5e:	21bf      	movs	r1, #191	; 0xbf
 8003b60:	4623      	mov	r3, r4
 8003b62:	4628      	mov	r0, r5
 8003b64:	f7fd fe92 	bl	800188c <HAL_I2C_Mem_Read>
		HAL_I2C_Mem_Read(&hi2c1,0xBF, addr_T0_T1_msb[0], 1, T0_T1_msb, 1, I2C_TIMEOUT);
 8003b68:	4b5c      	ldr	r3, [pc, #368]	; (8003cdc <temperature_IKSO1A2+0x1c0>)
 8003b6a:	781a      	ldrb	r2, [r3, #0]
 8003b6c:	4b5c      	ldr	r3, [pc, #368]	; (8003ce0 <temperature_IKSO1A2+0x1c4>)
 8003b6e:	9602      	str	r6, [sp, #8]
 8003b70:	9401      	str	r4, [sp, #4]
 8003b72:	9300      	str	r3, [sp, #0]
 8003b74:	21bf      	movs	r1, #191	; 0xbf
 8003b76:	4623      	mov	r3, r4
 8003b78:	4628      	mov	r0, r5
 8003b7a:	f7fd fe87 	bl	800188c <HAL_I2C_Mem_Read>
		HAL_I2C_Mem_Read(&hi2c1,0xBF, addr_T0_H[0], 1, T0_H, 1, I2C_TIMEOUT);
 8003b7e:	783a      	ldrb	r2, [r7, #0]
 8003b80:	9602      	str	r6, [sp, #8]
 8003b82:	9401      	str	r4, [sp, #4]
 8003b84:	4623      	mov	r3, r4
 8003b86:	f8cd 8000 	str.w	r8, [sp]
 8003b8a:	21bf      	movs	r1, #191	; 0xbf
 8003b8c:	4628      	mov	r0, r5
 8003b8e:	f7fd fe7d 	bl	800188c <HAL_I2C_Mem_Read>
		HAL_I2C_Mem_Read(&hi2c1,0xBF, addr_T0_H[0], 1, T0_H, 1, I2C_TIMEOUT);
 8003b92:	783a      	ldrb	r2, [r7, #0]
 8003b94:	9602      	str	r6, [sp, #8]
 8003b96:	9401      	str	r4, [sp, #4]
 8003b98:	4623      	mov	r3, r4
 8003b9a:	f8cd 8000 	str.w	r8, [sp]
 8003b9e:	21bf      	movs	r1, #191	; 0xbf
 8003ba0:	4628      	mov	r0, r5
 8003ba2:	f7fd fe73 	bl	800188c <HAL_I2C_Mem_Read>
		HAL_I2C_Mem_Read(&hi2c1,0xBF, addr_T0_L[0], 1, T0_L, 1, I2C_TIMEOUT);
 8003ba6:	4b4f      	ldr	r3, [pc, #316]	; (8003ce4 <temperature_IKSO1A2+0x1c8>)
		HAL_I2C_Mem_Read(&hi2c1,0xBF, addr_T_OUT_L[0], 1, T_OUT_L, 1, I2C_TIMEOUT);
 8003ba8:	4f4f      	ldr	r7, [pc, #316]	; (8003ce8 <temperature_IKSO1A2+0x1cc>)
		HAL_I2C_Mem_Read(&hi2c1,0xBF, addr_T0_L[0], 1, T0_L, 1, I2C_TIMEOUT);
 8003baa:	781a      	ldrb	r2, [r3, #0]
 8003bac:	4b4f      	ldr	r3, [pc, #316]	; (8003cec <temperature_IKSO1A2+0x1d0>)
 8003bae:	9602      	str	r6, [sp, #8]
 8003bb0:	9401      	str	r4, [sp, #4]
 8003bb2:	9300      	str	r3, [sp, #0]
 8003bb4:	21bf      	movs	r1, #191	; 0xbf
 8003bb6:	4623      	mov	r3, r4
 8003bb8:	4628      	mov	r0, r5
 8003bba:	f7fd fe67 	bl	800188c <HAL_I2C_Mem_Read>
		HAL_I2C_Mem_Read(&hi2c1,0xBF, addr_T1_H[0], 1, T1_H, 1, I2C_TIMEOUT);
 8003bbe:	4b4c      	ldr	r3, [pc, #304]	; (8003cf0 <temperature_IKSO1A2+0x1d4>)
 8003bc0:	781a      	ldrb	r2, [r3, #0]
 8003bc2:	4b4c      	ldr	r3, [pc, #304]	; (8003cf4 <temperature_IKSO1A2+0x1d8>)
 8003bc4:	9602      	str	r6, [sp, #8]
 8003bc6:	9401      	str	r4, [sp, #4]
 8003bc8:	9300      	str	r3, [sp, #0]
 8003bca:	21bf      	movs	r1, #191	; 0xbf
 8003bcc:	4623      	mov	r3, r4
 8003bce:	4628      	mov	r0, r5
 8003bd0:	f7fd fe5c 	bl	800188c <HAL_I2C_Mem_Read>
		HAL_I2C_Mem_Read(&hi2c1,0xBF, addr_T1_L[0], 1, T1_L, 1, I2C_TIMEOUT);
 8003bd4:	4b48      	ldr	r3, [pc, #288]	; (8003cf8 <temperature_IKSO1A2+0x1dc>)
 8003bd6:	21bf      	movs	r1, #191	; 0xbf
 8003bd8:	781a      	ldrb	r2, [r3, #0]
 8003bda:	9602      	str	r6, [sp, #8]
 8003bdc:	9401      	str	r4, [sp, #4]
 8003bde:	4623      	mov	r3, r4
 8003be0:	f8cd a000 	str.w	sl, [sp]
 8003be4:	4628      	mov	r0, r5
 8003be6:	f7fd fe51 	bl	800188c <HAL_I2C_Mem_Read>
		HAL_I2C_Mem_Read(&hi2c1,0xBF, addr_T_OUT_H[0], 1, T_OUT_H, 1, I2C_TIMEOUT);
 8003bea:	4b44      	ldr	r3, [pc, #272]	; (8003cfc <temperature_IKSO1A2+0x1e0>)
 8003bec:	21bf      	movs	r1, #191	; 0xbf
 8003bee:	781a      	ldrb	r2, [r3, #0]
 8003bf0:	9602      	str	r6, [sp, #8]
 8003bf2:	9401      	str	r4, [sp, #4]
 8003bf4:	4623      	mov	r3, r4
 8003bf6:	f8cd 9000 	str.w	r9, [sp]
 8003bfa:	4628      	mov	r0, r5
 8003bfc:	f7fd fe46 	bl	800188c <HAL_I2C_Mem_Read>
		HAL_I2C_Mem_Read(&hi2c1,0xBF, addr_T_OUT_L[0], 1, T_OUT_L, 1, I2C_TIMEOUT);
 8003c00:	f89b 2000 	ldrb.w	r2, [fp]
 8003c04:	9602      	str	r6, [sp, #8]
 8003c06:	9401      	str	r4, [sp, #4]
 8003c08:	4623      	mov	r3, r4
 8003c0a:	9700      	str	r7, [sp, #0]
 8003c0c:	21bf      	movs	r1, #191	; 0xbf
 8003c0e:	4628      	mov	r0, r5
 8003c10:	f7fd fe3c 	bl	800188c <HAL_I2C_Mem_Read>
		HAL_I2C_Mem_Read(&hi2c1,0xBF, addr_T_OUT_L[0], 1, T_OUT_L, 1, I2C_TIMEOUT);
 8003c14:	f89b 2000 	ldrb.w	r2, [fp]
 8003c18:	9602      	str	r6, [sp, #8]
 8003c1a:	9401      	str	r4, [sp, #4]
 8003c1c:	4623      	mov	r3, r4
 8003c1e:	9700      	str	r7, [sp, #0]
 8003c20:	21bf      	movs	r1, #191	; 0xbf
 8003c22:	4628      	mov	r0, r5
 8003c24:	f7fd fe32 	bl	800188c <HAL_I2C_Mem_Read>

		//CONCATENATION
		T0_OUT[0]	= (T0_H[0]<<8) + T0_L[0];
 8003c28:	4b30      	ldr	r3, [pc, #192]	; (8003cec <temperature_IKSO1A2+0x1d0>)
 8003c2a:	f898 1000 	ldrb.w	r1, [r8]
 8003c2e:	7818      	ldrb	r0, [r3, #0]
 8003c30:	4b33      	ldr	r3, [pc, #204]	; (8003d00 <temperature_IKSO1A2+0x1e4>)
		T1_OUT[0]	= (T1_H[0]<<8) + T1_L[0];
 8003c32:	f89a 4000 	ldrb.w	r4, [sl]
		T_OUT[0]	= (T_OUT_H[0]<<8) + T_OUT_L[0];
 8003c36:	783a      	ldrb	r2, [r7, #0]
		est_negatif(T0_OUT[0]);
		est_negatif(T1_OUT[0]);
		est_negatif(T_OUT[0]);

		//CALCUL DES T0_degC ET T1_degC FINALES
		T0_msb[0]		= T0_T1_msb[0] & 0x3;
 8003c38:	4d32      	ldr	r5, [pc, #200]	; (8003d04 <temperature_IKSO1A2+0x1e8>)
		T0_OUT[0]	= (T0_H[0]<<8) + T0_L[0];
 8003c3a:	eb00 2001 	add.w	r0, r0, r1, lsl #8
 8003c3e:	b280      	uxth	r0, r0
 8003c40:	8018      	strh	r0, [r3, #0]
		T1_OUT[0]	= (T1_H[0]<<8) + T1_L[0];
 8003c42:	4b2c      	ldr	r3, [pc, #176]	; (8003cf4 <temperature_IKSO1A2+0x1d8>)
 8003c44:	7819      	ldrb	r1, [r3, #0]
 8003c46:	4b30      	ldr	r3, [pc, #192]	; (8003d08 <temperature_IKSO1A2+0x1ec>)
 8003c48:	eb04 2401 	add.w	r4, r4, r1, lsl #8
 8003c4c:	b2a4      	uxth	r4, r4
 8003c4e:	801c      	strh	r4, [r3, #0]
		T_OUT[0]	= (T_OUT_H[0]<<8) + T_OUT_L[0];
 8003c50:	f899 3000 	ldrb.w	r3, [r9]
 8003c54:	eb02 2203 	add.w	r2, r2, r3, lsl #8
 8003c58:	4b2c      	ldr	r3, [pc, #176]	; (8003d0c <temperature_IKSO1A2+0x1f0>)
 8003c5a:	b292      	uxth	r2, r2
 8003c5c:	801a      	strh	r2, [r3, #0]
		T0_msb[0]		= T0_T1_msb[0] & 0x3;
 8003c5e:	4b20      	ldr	r3, [pc, #128]	; (8003ce0 <temperature_IKSO1A2+0x1c4>)
 8003c60:	781b      	ldrb	r3, [r3, #0]
 8003c62:	f003 0103 	and.w	r1, r3, #3
		T1_msb[0]		= (T0_T1_msb[0] & 0xC)>>2;
 8003c66:	f3c3 0681 	ubfx	r6, r3, #2, #2
 8003c6a:	4b29      	ldr	r3, [pc, #164]	; (8003d10 <temperature_IKSO1A2+0x1f4>)
		T0_msb[0]		= T0_T1_msb[0] & 0x3;
 8003c6c:	7029      	strb	r1, [r5, #0]
		T1_msb[0]		= (T0_T1_msb[0] & 0xC)>>2;
 8003c6e:	701e      	strb	r6, [r3, #0]
		T0_degC[0] 		= (T0_msb[0]<<8) + T0_degC_x8[0];
 8003c70:	4b16      	ldr	r3, [pc, #88]	; (8003ccc <temperature_IKSO1A2+0x1b0>)
 8003c72:	781d      	ldrb	r5, [r3, #0]
 8003c74:	4b27      	ldr	r3, [pc, #156]	; (8003d14 <temperature_IKSO1A2+0x1f8>)
 8003c76:	eb05 2501 	add.w	r5, r5, r1, lsl #8
 8003c7a:	801d      	strh	r5, [r3, #0]
		T1_degC[0] 		= (T1_msb[0]<<8) + T1_degC_x8[0];
 8003c7c:	4b16      	ldr	r3, [pc, #88]	; (8003cd8 <temperature_IKSO1A2+0x1bc>)
 8003c7e:	4926      	ldr	r1, [pc, #152]	; (8003d18 <temperature_IKSO1A2+0x1fc>)
 8003c80:	781b      	ldrb	r3, [r3, #0]
 8003c82:	eb03 2306 	add.w	r3, r3, r6, lsl #8
 8003c86:	800b      	strh	r3, [r1, #0]
		T0_degC_DIV8[0]	= T0_degC[0]>>3;
 8003c88:	4924      	ldr	r1, [pc, #144]	; (8003d1c <temperature_IKSO1A2+0x200>)
 8003c8a:	08ed      	lsrs	r5, r5, #3
		T1_degC_DIV8[0]	= T1_degC[0]>>3;

		//CALCUL DE LA TEMPERATURE
		temp16[0] = ((int16_t)(T_OUT[0]-T0_OUT[0]))*10*((int16_t)(T1_degC_DIV8[0]-T0_degC_DIV8[0]))/((int16_t)(T1_OUT[0]-T0_OUT[0]))+(int16_t)(T0_degC_DIV8[0])*10;
 8003c8c:	1a12      	subs	r2, r2, r0
		T0_degC_DIV8[0]	= T0_degC[0]>>3;
 8003c8e:	800d      	strh	r5, [r1, #0]
		temp16[0] = ((int16_t)(T_OUT[0]-T0_OUT[0]))*10*((int16_t)(T1_degC_DIV8[0]-T0_degC_DIV8[0]))/((int16_t)(T1_OUT[0]-T0_OUT[0]))+(int16_t)(T0_degC_DIV8[0])*10;
 8003c90:	b212      	sxth	r2, r2
		T1_degC_DIV8[0]	= T1_degC[0]>>3;
 8003c92:	4923      	ldr	r1, [pc, #140]	; (8003d20 <temperature_IKSO1A2+0x204>)
 8003c94:	08db      	lsrs	r3, r3, #3
		temp16[0] = ((int16_t)(T_OUT[0]-T0_OUT[0]))*10*((int16_t)(T1_degC_DIV8[0]-T0_degC_DIV8[0]))/((int16_t)(T1_OUT[0]-T0_OUT[0]))+(int16_t)(T0_degC_DIV8[0])*10;
 8003c96:	eb02 0282 	add.w	r2, r2, r2, lsl #2
		T1_degC_DIV8[0]	= T1_degC[0]>>3;
 8003c9a:	800b      	strh	r3, [r1, #0]
		temp16[0] = ((int16_t)(T_OUT[0]-T0_OUT[0]))*10*((int16_t)(T1_degC_DIV8[0]-T0_degC_DIV8[0]))/((int16_t)(T1_OUT[0]-T0_OUT[0]))+(int16_t)(T0_degC_DIV8[0])*10;
 8003c9c:	0052      	lsls	r2, r2, #1
 8003c9e:	1b59      	subs	r1, r3, r5
 8003ca0:	1a20      	subs	r0, r4, r0
 8003ca2:	eb05 0585 	add.w	r5, r5, r5, lsl #2
 8003ca6:	4351      	muls	r1, r2
 8003ca8:	b200      	sxth	r0, r0
 8003caa:	4b1e      	ldr	r3, [pc, #120]	; (8003d24 <temperature_IKSO1A2+0x208>)
 8003cac:	fb91 f1f0 	sdiv	r1, r1, r0
		printf("Temperature :%d\r\n", temp16[0]);
 8003cb0:	481d      	ldr	r0, [pc, #116]	; (8003d28 <temperature_IKSO1A2+0x20c>)
		temp16[0] = ((int16_t)(T_OUT[0]-T0_OUT[0]))*10*((int16_t)(T1_degC_DIV8[0]-T0_degC_DIV8[0]))/((int16_t)(T1_OUT[0]-T0_OUT[0]))+(int16_t)(T0_degC_DIV8[0])*10;
 8003cb2:	eb01 0145 	add.w	r1, r1, r5, lsl #1
 8003cb6:	b289      	uxth	r1, r1
 8003cb8:	8019      	strh	r1, [r3, #0]
}
 8003cba:	b005      	add	sp, #20
 8003cbc:	e8bd 4ff0 	ldmia.w	sp!, {r4, r5, r6, r7, r8, r9, sl, fp, lr}
		printf("Temperature :%d\r\n", temp16[0]);
 8003cc0:	f000 bb24 	b.w	800430c <iprintf>
 8003cc4:	20000019 	.word	0x20000019
 8003cc8:	2000011c 	.word	0x2000011c
 8003ccc:	20000195 	.word	0x20000195
 8003cd0:	20000016 	.word	0x20000016
 8003cd4:	2000001c 	.word	0x2000001c
 8003cd8:	20000194 	.word	0x20000194
 8003cdc:	20000018 	.word	0x20000018
 8003ce0:	200001a0 	.word	0x200001a0
 8003ce4:	20000017 	.word	0x20000017
 8003ce8:	20000170 	.word	0x20000170
 8003cec:	2000016c 	.word	0x2000016c
 8003cf0:	2000001a 	.word	0x2000001a
 8003cf4:	20000175 	.word	0x20000175
 8003cf8:	2000001b 	.word	0x2000001b
 8003cfc:	2000001d 	.word	0x2000001d
 8003d00:	2000019e 	.word	0x2000019e
 8003d04:	200001a4 	.word	0x200001a4
 8003d08:	200001b2 	.word	0x200001b2
 8003d0c:	200001bc 	.word	0x200001bc
 8003d10:	2000016a 	.word	0x2000016a
 8003d14:	20000192 	.word	0x20000192
 8003d18:	2000019a 	.word	0x2000019a
 8003d1c:	200001b8 	.word	0x200001b8
 8003d20:	2000017e 	.word	0x2000017e
 8003d24:	200001a2 	.word	0x200001a2
 8003d28:	080052bc 	.word	0x080052bc
 8003d2c:	20000198 	.word	0x20000198
 8003d30:	20000190 	.word	0x20000190
 8003d34:	200001b0 	.word	0x200001b0
 8003d38:	2000001e 	.word	0x2000001e

08003d3c <humidity_IKSO1A2>:
//Humidity
void humidity_IKSO1A2()
{
 8003d3c:	e92d 4ff0 	stmdb	sp!, {r4, r5, r6, r7, r8, r9, sl, fp, lr}
	    HAL_I2C_Mem_Read(&hi2c1,0xBF, addr_HUM_H[0], 1, HUM_H, 1, I2C_TIMEOUT);
 8003d40:	4b4c      	ldr	r3, [pc, #304]	; (8003e74 <humidity_IKSO1A2+0x138>)
 8003d42:	4d4d      	ldr	r5, [pc, #308]	; (8003e78 <humidity_IKSO1A2+0x13c>)
 8003d44:	f8df 817c 	ldr.w	r8, [pc, #380]	; 8003ec4 <humidity_IKSO1A2+0x188>
 8003d48:	781a      	ldrb	r2, [r3, #0]
		HAL_I2C_Mem_Read(&hi2c1,0xBF, addr_HUM_L[0], 1, HUM_L, 1, I2C_TIMEOUT);
		HAL_I2C_Mem_Read(&hi2c1,0xBF, addr_H0_rH_x2[0], 1, H0_rH_x2, 1, I2C_TIMEOUT);
 8003d4a:	4f4c      	ldr	r7, [pc, #304]	; (8003e7c <humidity_IKSO1A2+0x140>)
		HAL_I2C_Mem_Read(&hi2c1,0xBF, addr_H1_rH_x2[0], 1, H0_rH_x2, 1, I2C_TIMEOUT);
		HAL_I2C_Mem_Read(&hi2c1,0xBF, addr_H0_T0_OUT_H[0], 1, H0_T0_OUT_H, 1, I2C_TIMEOUT);
 8003d4c:	f8df b178 	ldr.w	fp, [pc, #376]	; 8003ec8 <humidity_IKSO1A2+0x18c>
		HAL_I2C_Mem_Read(&hi2c1,0xBF, addr_H0_T0_OUT_L[0], 1, H0_T0_OUT_L, 1, I2C_TIMEOUT);
 8003d50:	f8df a178 	ldr.w	sl, [pc, #376]	; 8003ecc <humidity_IKSO1A2+0x190>
		HAL_I2C_Mem_Read(&hi2c1,0xBF, addr_H1_T0_OUT_H[0], 1, H1_T0_OUT_H, 1, I2C_TIMEOUT);
 8003d54:	f8df 9178 	ldr.w	r9, [pc, #376]	; 8003ed0 <humidity_IKSO1A2+0x194>
{
 8003d58:	b085      	sub	sp, #20
	    HAL_I2C_Mem_Read(&hi2c1,0xBF, addr_HUM_H[0], 1, HUM_H, 1, I2C_TIMEOUT);
 8003d5a:	2401      	movs	r4, #1
 8003d5c:	f44f 767a 	mov.w	r6, #1000	; 0x3e8
 8003d60:	9602      	str	r6, [sp, #8]
 8003d62:	9401      	str	r4, [sp, #4]
 8003d64:	4623      	mov	r3, r4
 8003d66:	f8cd 8000 	str.w	r8, [sp]
 8003d6a:	21bf      	movs	r1, #191	; 0xbf
 8003d6c:	4628      	mov	r0, r5
 8003d6e:	f7fd fd8d 	bl	800188c <HAL_I2C_Mem_Read>
		HAL_I2C_Mem_Read(&hi2c1,0xBF, addr_HUM_L[0], 1, HUM_L, 1, I2C_TIMEOUT);
 8003d72:	4b43      	ldr	r3, [pc, #268]	; (8003e80 <humidity_IKSO1A2+0x144>)
 8003d74:	781a      	ldrb	r2, [r3, #0]
 8003d76:	4b43      	ldr	r3, [pc, #268]	; (8003e84 <humidity_IKSO1A2+0x148>)
 8003d78:	9602      	str	r6, [sp, #8]
 8003d7a:	9401      	str	r4, [sp, #4]
 8003d7c:	9300      	str	r3, [sp, #0]
 8003d7e:	21bf      	movs	r1, #191	; 0xbf
 8003d80:	4623      	mov	r3, r4
 8003d82:	4628      	mov	r0, r5
 8003d84:	f7fd fd82 	bl	800188c <HAL_I2C_Mem_Read>
		HAL_I2C_Mem_Read(&hi2c1,0xBF, addr_H0_rH_x2[0], 1, H0_rH_x2, 1, I2C_TIMEOUT);
 8003d88:	4b3f      	ldr	r3, [pc, #252]	; (8003e88 <humidity_IKSO1A2+0x14c>)
 8003d8a:	21bf      	movs	r1, #191	; 0xbf
 8003d8c:	781a      	ldrb	r2, [r3, #0]
 8003d8e:	9602      	str	r6, [sp, #8]
 8003d90:	9401      	str	r4, [sp, #4]
 8003d92:	4623      	mov	r3, r4
 8003d94:	9700      	str	r7, [sp, #0]
 8003d96:	4628      	mov	r0, r5
 8003d98:	f7fd fd78 	bl	800188c <HAL_I2C_Mem_Read>
		HAL_I2C_Mem_Read(&hi2c1,0xBF, addr_H1_rH_x2[0], 1, H0_rH_x2, 1, I2C_TIMEOUT);
 8003d9c:	4b3b      	ldr	r3, [pc, #236]	; (8003e8c <humidity_IKSO1A2+0x150>)
 8003d9e:	21bf      	movs	r1, #191	; 0xbf
 8003da0:	781a      	ldrb	r2, [r3, #0]
 8003da2:	9602      	str	r6, [sp, #8]
 8003da4:	9401      	str	r4, [sp, #4]
 8003da6:	4623      	mov	r3, r4
 8003da8:	9700      	str	r7, [sp, #0]
 8003daa:	4628      	mov	r0, r5
 8003dac:	f7fd fd6e 	bl	800188c <HAL_I2C_Mem_Read>
		HAL_I2C_Mem_Read(&hi2c1,0xBF, addr_H0_T0_OUT_H[0], 1, H0_T0_OUT_H, 1, I2C_TIMEOUT);
 8003db0:	4b37      	ldr	r3, [pc, #220]	; (8003e90 <humidity_IKSO1A2+0x154>)
 8003db2:	21bf      	movs	r1, #191	; 0xbf
 8003db4:	781a      	ldrb	r2, [r3, #0]
 8003db6:	9602      	str	r6, [sp, #8]
 8003db8:	9401      	str	r4, [sp, #4]
 8003dba:	4623      	mov	r3, r4
 8003dbc:	f8cd b000 	str.w	fp, [sp]
 8003dc0:	4628      	mov	r0, r5
 8003dc2:	f7fd fd63 	bl	800188c <HAL_I2C_Mem_Read>
		HAL_I2C_Mem_Read(&hi2c1,0xBF, addr_H0_T0_OUT_L[0], 1, H0_T0_OUT_L, 1, I2C_TIMEOUT);
 8003dc6:	4b33      	ldr	r3, [pc, #204]	; (8003e94 <humidity_IKSO1A2+0x158>)
 8003dc8:	21bf      	movs	r1, #191	; 0xbf
 8003dca:	781a      	ldrb	r2, [r3, #0]
 8003dcc:	9602      	str	r6, [sp, #8]
 8003dce:	9401      	str	r4, [sp, #4]
 8003dd0:	4623      	mov	r3, r4
 8003dd2:	f8cd a000 	str.w	sl, [sp]
 8003dd6:	4628      	mov	r0, r5
 8003dd8:	f7fd fd58 	bl	800188c <HAL_I2C_Mem_Read>
		HAL_I2C_Mem_Read(&hi2c1,0xBF, addr_H1_T0_OUT_H[0], 1, H1_T0_OUT_H, 1, I2C_TIMEOUT);
 8003ddc:	4b2e      	ldr	r3, [pc, #184]	; (8003e98 <humidity_IKSO1A2+0x15c>)
 8003dde:	21bf      	movs	r1, #191	; 0xbf
 8003de0:	781a      	ldrb	r2, [r3, #0]
 8003de2:	9602      	str	r6, [sp, #8]
 8003de4:	9401      	str	r4, [sp, #4]
 8003de6:	4623      	mov	r3, r4
 8003de8:	f8cd 9000 	str.w	r9, [sp]
 8003dec:	4628      	mov	r0, r5
 8003dee:	f7fd fd4d 	bl	800188c <HAL_I2C_Mem_Read>
		HAL_I2C_Mem_Read(&hi2c1,0xBF, addr_H1_T0_OUT_L[0], 1, H1_T0_OUT_L, 1, I2C_TIMEOUT);
 8003df2:	4b2a      	ldr	r3, [pc, #168]	; (8003e9c <humidity_IKSO1A2+0x160>)
 8003df4:	781a      	ldrb	r2, [r3, #0]
 8003df6:	9602      	str	r6, [sp, #8]
 8003df8:	4e29      	ldr	r6, [pc, #164]	; (8003ea0 <humidity_IKSO1A2+0x164>)
 8003dfa:	9401      	str	r4, [sp, #4]
 8003dfc:	4623      	mov	r3, r4
 8003dfe:	9600      	str	r6, [sp, #0]
 8003e00:	21bf      	movs	r1, #191	; 0xbf
 8003e02:	4628      	mov	r0, r5
 8003e04:	f7fd fd42 	bl	800188c <HAL_I2C_Mem_Read>

		H0_rH[0]	= H0_rH_x2[0]>>1;
 8003e08:	7839      	ldrb	r1, [r7, #0]
 8003e0a:	4b26      	ldr	r3, [pc, #152]	; (8003ea4 <humidity_IKSO1A2+0x168>)
		H1_rH[0]	= H1_rH_x2[0]>>1;
 8003e0c:	4a26      	ldr	r2, [pc, #152]	; (8003ea8 <humidity_IKSO1A2+0x16c>)

		H0[0]		= (H0_T0_OUT_H[0]<<8) + H0_T0_OUT_L[0];
		H1[0]		= (H1_T0_OUT_H[0]<<8) + H1_T0_OUT_L[0];
 8003e0e:	f899 0000 	ldrb.w	r0, [r9]
		H_OUT[0]	= (HUM_H[0]<<8) + HUM_L[0];
 8003e12:	f898 5000 	ldrb.w	r5, [r8]
		H0_rH[0]	= H0_rH_x2[0]>>1;
 8003e16:	40e1      	lsrs	r1, r4
 8003e18:	8019      	strh	r1, [r3, #0]
		H1_rH[0]	= H1_rH_x2[0]>>1;
 8003e1a:	4b24      	ldr	r3, [pc, #144]	; (8003eac <humidity_IKSO1A2+0x170>)
 8003e1c:	781b      	ldrb	r3, [r3, #0]
 8003e1e:	40e3      	lsrs	r3, r4
 8003e20:	8013      	strh	r3, [r2, #0]
		H0[0]		= (H0_T0_OUT_H[0]<<8) + H0_T0_OUT_L[0];
 8003e22:	f89b 4000 	ldrb.w	r4, [fp]
 8003e26:	f89a 2000 	ldrb.w	r2, [sl]
 8003e2a:	eb02 2204 	add.w	r2, r2, r4, lsl #8
 8003e2e:	b294      	uxth	r4, r2
 8003e30:	4a1f      	ldr	r2, [pc, #124]	; (8003eb0 <humidity_IKSO1A2+0x174>)
 8003e32:	8014      	strh	r4, [r2, #0]
		H1[0]		= (H1_T0_OUT_H[0]<<8) + H1_T0_OUT_L[0];
 8003e34:	7832      	ldrb	r2, [r6, #0]
 8003e36:	eb02 2200 	add.w	r2, r2, r0, lsl #8
 8003e3a:	481e      	ldr	r0, [pc, #120]	; (8003eb4 <humidity_IKSO1A2+0x178>)
 8003e3c:	b292      	uxth	r2, r2
 8003e3e:	8002      	strh	r2, [r0, #0]
		H_OUT[0]	= (HUM_H[0]<<8) + HUM_L[0];
 8003e40:	4810      	ldr	r0, [pc, #64]	; (8003e84 <humidity_IKSO1A2+0x148>)
 8003e42:	7800      	ldrb	r0, [r0, #0]
 8003e44:	eb00 2005 	add.w	r0, r0, r5, lsl #8
 8003e48:	4d1b      	ldr	r5, [pc, #108]	; (8003eb8 <humidity_IKSO1A2+0x17c>)
 8003e4a:	b280      	uxth	r0, r0
 8003e4c:	8028      	strh	r0, [r5, #0]

		//CALCUL DE L'HUMIDITE
		hum16[0] = ((int16_t)(H1_rH[0]-H0_rH[0]))*((int16_t)(H_OUT[0]-H0[0]))/((int16_t)(H1[0]-H0[0]))+(int16_t)(H0_rH[0]);
 8003e4e:	1a5b      	subs	r3, r3, r1
 8003e50:	1b00      	subs	r0, r0, r4
 8003e52:	1b12      	subs	r2, r2, r4
 8003e54:	fb13 f300 	smulbb	r3, r3, r0
 8003e58:	b212      	sxth	r2, r2
		printf("Humidity :%d\r\n", hum16[0]);
 8003e5a:	4818      	ldr	r0, [pc, #96]	; (8003ebc <humidity_IKSO1A2+0x180>)
		hum16[0] = ((int16_t)(H1_rH[0]-H0_rH[0]))*((int16_t)(H_OUT[0]-H0[0]))/((int16_t)(H1[0]-H0[0]))+(int16_t)(H0_rH[0]);
 8003e5c:	fb93 f3f2 	sdiv	r3, r3, r2
 8003e60:	4419      	add	r1, r3
 8003e62:	4b17      	ldr	r3, [pc, #92]	; (8003ec0 <humidity_IKSO1A2+0x184>)
 8003e64:	b289      	uxth	r1, r1
 8003e66:	8019      	strh	r1, [r3, #0]
}
 8003e68:	b005      	add	sp, #20
 8003e6a:	e8bd 4ff0 	ldmia.w	sp!, {r4, r5, r6, r7, r8, r9, sl, fp, lr}
		printf("Humidity :%d\r\n", hum16[0]);
 8003e6e:	f000 ba4d 	b.w	800430c <iprintf>
 8003e72:	bf00      	nop
 8003e74:	2000000d 	.word	0x2000000d
 8003e78:	2000011c 	.word	0x2000011c
 8003e7c:	200001ba 	.word	0x200001ba
 8003e80:	2000000e 	.word	0x2000000e
 8003e84:	200001cb 	.word	0x200001cb
 8003e88:	20000009 	.word	0x20000009
 8003e8c:	2000000c 	.word	0x2000000c
 8003e90:	20000007 	.word	0x20000007
 8003e94:	20000008 	.word	0x20000008
 8003e98:	2000000a 	.word	0x2000000a
 8003e9c:	2000000b 	.word	0x2000000b
 8003ea0:	2000016b 	.word	0x2000016b
 8003ea4:	20000180 	.word	0x20000180
 8003ea8:	2000016e 	.word	0x2000016e
 8003eac:	200001b4 	.word	0x200001b4
 8003eb0:	200001ac 	.word	0x200001ac
 8003eb4:	200001ce 	.word	0x200001ce
 8003eb8:	20000178 	.word	0x20000178
 8003ebc:	08005289 	.word	0x08005289
 8003ec0:	200001be 	.word	0x200001be
 8003ec4:	200001b5 	.word	0x200001b5
 8003ec8:	200001b7 	.word	0x200001b7
 8003ecc:	2000017a 	.word	0x2000017a
 8003ed0:	20000177 	.word	0x20000177

08003ed4 <pressure_IKSO1A2>:
//PRESSURE
void pressure_IKSO1A2()
{
 8003ed4:	e92d 4ff0 	stmdb	sp!, {r4, r5, r6, r7, r8, r9, sl, fp, lr}
	    HAL_I2C_Mem_Read(&hi2c1,0xBB, addr_REF_P_XL[0], 1, REF_P_XL, 1, I2C_TIMEOUT);
 8003ed8:	4b38      	ldr	r3, [pc, #224]	; (8003fbc <pressure_IKSO1A2+0xe8>)
 8003eda:	f8df 9114 	ldr.w	r9, [pc, #276]	; 8003ff0 <pressure_IKSO1A2+0x11c>
 8003ede:	4d38      	ldr	r5, [pc, #224]	; (8003fc0 <pressure_IKSO1A2+0xec>)
 8003ee0:	781a      	ldrb	r2, [r3, #0]
		HAL_I2C_Mem_Read(&hi2c1,0xBB, addr_REF_P_L[0], 1, REF_P_L, 1, I2C_TIMEOUT);
 8003ee2:	4e38      	ldr	r6, [pc, #224]	; (8003fc4 <pressure_IKSO1A2+0xf0>)
		HAL_I2C_Mem_Read(&hi2c1,0xBB, addr_REF_P_H[0], 1, REF_P_H, 1, I2C_TIMEOUT);
 8003ee4:	4f38      	ldr	r7, [pc, #224]	; (8003fc8 <pressure_IKSO1A2+0xf4>)
		HAL_I2C_Mem_Read(&hi2c1,0xBB, addr_PRES_OUT_XL[0], 1, PRES_OUT_XL, 1, I2C_TIMEOUT);
 8003ee6:	f8df 810c 	ldr.w	r8, [pc, #268]	; 8003ff4 <pressure_IKSO1A2+0x120>
		HAL_I2C_Mem_Read(&hi2c1,0xBB, addr_PRES_OUT_L[0], 1, PRES_OUT_L, 1, I2C_TIMEOUT);
 8003eea:	f8df b10c 	ldr.w	fp, [pc, #268]	; 8003ff8 <pressure_IKSO1A2+0x124>
{
 8003eee:	b085      	sub	sp, #20
	    HAL_I2C_Mem_Read(&hi2c1,0xBB, addr_REF_P_XL[0], 1, REF_P_XL, 1, I2C_TIMEOUT);
 8003ef0:	2401      	movs	r4, #1
 8003ef2:	f44f 7a7a 	mov.w	sl, #1000	; 0x3e8
 8003ef6:	f8cd a008 	str.w	sl, [sp, #8]
 8003efa:	4623      	mov	r3, r4
 8003efc:	9401      	str	r4, [sp, #4]
 8003efe:	9500      	str	r5, [sp, #0]
 8003f00:	21bb      	movs	r1, #187	; 0xbb
 8003f02:	4648      	mov	r0, r9
 8003f04:	f7fd fcc2 	bl	800188c <HAL_I2C_Mem_Read>
		HAL_I2C_Mem_Read(&hi2c1,0xBB, addr_REF_P_L[0], 1, REF_P_L, 1, I2C_TIMEOUT);
 8003f08:	4b30      	ldr	r3, [pc, #192]	; (8003fcc <pressure_IKSO1A2+0xf8>)
 8003f0a:	21bb      	movs	r1, #187	; 0xbb
 8003f0c:	781a      	ldrb	r2, [r3, #0]
 8003f0e:	f8cd a008 	str.w	sl, [sp, #8]
 8003f12:	4623      	mov	r3, r4
 8003f14:	9401      	str	r4, [sp, #4]
 8003f16:	9600      	str	r6, [sp, #0]
 8003f18:	4648      	mov	r0, r9
 8003f1a:	f7fd fcb7 	bl	800188c <HAL_I2C_Mem_Read>
		HAL_I2C_Mem_Read(&hi2c1,0xBB, addr_REF_P_H[0], 1, REF_P_H, 1, I2C_TIMEOUT);
 8003f1e:	4b2c      	ldr	r3, [pc, #176]	; (8003fd0 <pressure_IKSO1A2+0xfc>)
 8003f20:	21bb      	movs	r1, #187	; 0xbb
 8003f22:	781a      	ldrb	r2, [r3, #0]
 8003f24:	f8cd a008 	str.w	sl, [sp, #8]
 8003f28:	4623      	mov	r3, r4
 8003f2a:	9401      	str	r4, [sp, #4]
 8003f2c:	9700      	str	r7, [sp, #0]
 8003f2e:	4648      	mov	r0, r9
 8003f30:	f7fd fcac 	bl	800188c <HAL_I2C_Mem_Read>
		HAL_I2C_Mem_Read(&hi2c1,0xBB, addr_PRES_OUT_XL[0], 1, PRES_OUT_XL, 1, I2C_TIMEOUT);
 8003f34:	4b27      	ldr	r3, [pc, #156]	; (8003fd4 <pressure_IKSO1A2+0x100>)
 8003f36:	21bb      	movs	r1, #187	; 0xbb
 8003f38:	781a      	ldrb	r2, [r3, #0]
 8003f3a:	f8cd a008 	str.w	sl, [sp, #8]
 8003f3e:	4623      	mov	r3, r4
 8003f40:	9401      	str	r4, [sp, #4]
 8003f42:	f8cd 8000 	str.w	r8, [sp]
 8003f46:	4648      	mov	r0, r9
 8003f48:	f7fd fca0 	bl	800188c <HAL_I2C_Mem_Read>
		HAL_I2C_Mem_Read(&hi2c1,0xBB, addr_PRES_OUT_L[0], 1, PRES_OUT_L, 1, I2C_TIMEOUT);
 8003f4c:	4b22      	ldr	r3, [pc, #136]	; (8003fd8 <pressure_IKSO1A2+0x104>)
 8003f4e:	21bb      	movs	r1, #187	; 0xbb
 8003f50:	781a      	ldrb	r2, [r3, #0]
 8003f52:	f8cd a008 	str.w	sl, [sp, #8]
 8003f56:	4623      	mov	r3, r4
 8003f58:	9401      	str	r4, [sp, #4]
 8003f5a:	f8cd b000 	str.w	fp, [sp]
 8003f5e:	4648      	mov	r0, r9
 8003f60:	f7fd fc94 	bl	800188c <HAL_I2C_Mem_Read>
		HAL_I2C_Mem_Read(&hi2c1,0xBB, addr_PRES_OUT_H[0], 1, PRES_OUT_H, 1, I2C_TIMEOUT);
 8003f64:	4b1d      	ldr	r3, [pc, #116]	; (8003fdc <pressure_IKSO1A2+0x108>)
 8003f66:	781a      	ldrb	r2, [r3, #0]
 8003f68:	f8cd a008 	str.w	sl, [sp, #8]
 8003f6c:	f8df a08c 	ldr.w	sl, [pc, #140]	; 8003ffc <pressure_IKSO1A2+0x128>
 8003f70:	9401      	str	r4, [sp, #4]
 8003f72:	4623      	mov	r3, r4
 8003f74:	f8cd a000 	str.w	sl, [sp]
 8003f78:	21bb      	movs	r1, #187	; 0xbb
 8003f7a:	4648      	mov	r0, r9
 8003f7c:	f7fd fc86 	bl	800188c <HAL_I2C_Mem_Read>

		//CONCATENATION

		PRES_x4096[0]	= (PRES_OUT_H[0]<<16) + (PRES_OUT_L[0]<<8) + PRES_OUT_XL[0];
 8003f80:	f89b 3000 	ldrb.w	r3, [fp]
 8003f84:	f89a 2000 	ldrb.w	r2, [sl]
		REF_P_x4096[0]	= (REF_P_H[0]<<16) + (REF_P_L[0]<<8) + REF_P_XL[0];
 8003f88:	7831      	ldrb	r1, [r6, #0]

		//CALCUL DE LA PRESSION
		pres32[0] = (REF_P_x4096[0])>>12;
		printf("Pressure :%"PRIu32"\r\n", pres32[0]);
 8003f8a:	4815      	ldr	r0, [pc, #84]	; (8003fe0 <pressure_IKSO1A2+0x10c>)
		PRES_x4096[0]	= (PRES_OUT_H[0]<<16) + (PRES_OUT_L[0]<<8) + PRES_OUT_XL[0];
 8003f8c:	021b      	lsls	r3, r3, #8
 8003f8e:	eb03 4302 	add.w	r3, r3, r2, lsl #16
 8003f92:	f898 2000 	ldrb.w	r2, [r8]
 8003f96:	4413      	add	r3, r2
 8003f98:	4a12      	ldr	r2, [pc, #72]	; (8003fe4 <pressure_IKSO1A2+0x110>)
 8003f9a:	6013      	str	r3, [r2, #0]
		REF_P_x4096[0]	= (REF_P_H[0]<<16) + (REF_P_L[0]<<8) + REF_P_XL[0];
 8003f9c:	783b      	ldrb	r3, [r7, #0]
 8003f9e:	0209      	lsls	r1, r1, #8
 8003fa0:	eb01 4103 	add.w	r1, r1, r3, lsl #16
 8003fa4:	782b      	ldrb	r3, [r5, #0]
 8003fa6:	4419      	add	r1, r3
 8003fa8:	4b0f      	ldr	r3, [pc, #60]	; (8003fe8 <pressure_IKSO1A2+0x114>)
 8003faa:	6019      	str	r1, [r3, #0]
		pres32[0] = (REF_P_x4096[0])>>12;
 8003fac:	4b0f      	ldr	r3, [pc, #60]	; (8003fec <pressure_IKSO1A2+0x118>)
 8003fae:	0b09      	lsrs	r1, r1, #12
 8003fb0:	6019      	str	r1, [r3, #0]
}
 8003fb2:	b005      	add	sp, #20
 8003fb4:	e8bd 4ff0 	ldmia.w	sp!, {r4, r5, r6, r7, r8, r9, sl, fp, lr}
		printf("Pressure :%"PRIu32"\r\n", pres32[0]);
 8003fb8:	f000 b9a8 	b.w	800430c <iprintf>
 8003fbc:	20000015 	.word	0x20000015
 8003fc0:	20000184 	.word	0x20000184
 8003fc4:	20000199 	.word	0x20000199
 8003fc8:	2000018c 	.word	0x2000018c
 8003fcc:	20000014 	.word	0x20000014
 8003fd0:	20000013 	.word	0x20000013
 8003fd4:	20000012 	.word	0x20000012
 8003fd8:	20000011 	.word	0x20000011
 8003fdc:	20000010 	.word	0x20000010
 8003fe0:	080052ac 	.word	0x080052ac
 8003fe4:	200001a8 	.word	0x200001a8
 8003fe8:	200001c4 	.word	0x200001c4
 8003fec:	20000188 	.word	0x20000188
 8003ff0:	2000011c 	.word	0x2000011c
 8003ff4:	200001cc 	.word	0x200001cc
 8003ff8:	20000196 	.word	0x20000196
 8003ffc:	200001bb 	.word	0x200001bb

08004000 <HAL_ADC_ConvCpltCallback>:
{
 8004000:	b510      	push	{r4, lr}
	if( cpt %4 == 0 )
 8004002:	4c11      	ldr	r4, [pc, #68]	; (8004048 <HAL_ADC_ConvCpltCallback+0x48>)
 8004004:	7823      	ldrb	r3, [r4, #0]
 8004006:	079a      	lsls	r2, r3, #30
 8004008:	d103      	bne.n	8004012 <HAL_ADC_ConvCpltCallback+0x12>
	valeurADC = HAL_ADC_GetValue(AdcHandle);
 800400a:	f7fc fbef 	bl	80007ec <HAL_ADC_GetValue>
 800400e:	4b0f      	ldr	r3, [pc, #60]	; (800404c <HAL_ADC_ConvCpltCallback+0x4c>)
 8004010:	8018      	strh	r0, [r3, #0]
	if (cpt %3 == 0)
 8004012:	7822      	ldrb	r2, [r4, #0]
 8004014:	2303      	movs	r3, #3
 8004016:	fbb2 f3f3 	udiv	r3, r2, r3
 800401a:	eb03 0343 	add.w	r3, r3, r3, lsl #1
 800401e:	1ad3      	subs	r3, r2, r3
 8004020:	f013 0fff 	tst.w	r3, #255	; 0xff
 8004024:	d101      	bne.n	800402a <HAL_ADC_ConvCpltCallback+0x2a>
		temperature_IKSO1A2();
 8004026:	f7ff fd79 	bl	8003b1c <temperature_IKSO1A2>
	if (cpt %2 == 0)
 800402a:	7823      	ldrb	r3, [r4, #0]
 800402c:	07db      	lsls	r3, r3, #31
 800402e:	d401      	bmi.n	8004034 <HAL_ADC_ConvCpltCallback+0x34>
		humidity_IKSO1A2();
 8004030:	f7ff fe84 	bl	8003d3c <humidity_IKSO1A2>
		pressure_IKSO1A2();
 8004034:	f7ff ff4e 	bl	8003ed4 <pressure_IKSO1A2>
	printf("----------------------------\r\n");
 8004038:	4805      	ldr	r0, [pc, #20]	; (8004050 <HAL_ADC_ConvCpltCallback+0x50>)
 800403a:	f000 f9db 	bl	80043f4 <puts>
	cpt++;
 800403e:	7823      	ldrb	r3, [r4, #0]
 8004040:	3301      	adds	r3, #1
 8004042:	7023      	strb	r3, [r4, #0]
 8004044:	bd10      	pop	{r4, pc}
 8004046:	bf00      	nop
 8004048:	200000a4 	.word	0x200000a4
 800404c:	200000a6 	.word	0x200000a6
 8004050:	08005259 	.word	0x08005259

08004054 <Error_Handler>:
/**
  * @brief  This function is executed in case of error occurrence.
  * @retval None
  */
void Error_Handler(void)
{
 8004054:	4770      	bx	lr
	...

08004058 <HAL_MspInit>:
{
  /* USER CODE BEGIN MspInit 0 */

  /* USER CODE END MspInit 0 */

  __HAL_RCC_SYSCFG_CLK_ENABLE();
 8004058:	4b0a      	ldr	r3, [pc, #40]	; (8004084 <HAL_MspInit+0x2c>)
 800405a:	6e1a      	ldr	r2, [r3, #96]	; 0x60
 800405c:	f042 0201 	orr.w	r2, r2, #1
 8004060:	661a      	str	r2, [r3, #96]	; 0x60
 8004062:	6e1a      	ldr	r2, [r3, #96]	; 0x60
{
 8004064:	b082      	sub	sp, #8
  __HAL_RCC_SYSCFG_CLK_ENABLE();
 8004066:	f002 0201 	and.w	r2, r2, #1
 800406a:	9200      	str	r2, [sp, #0]
 800406c:	9a00      	ldr	r2, [sp, #0]
  __HAL_RCC_PWR_CLK_ENABLE();
 800406e:	6d9a      	ldr	r2, [r3, #88]	; 0x58
 8004070:	f042 5280 	orr.w	r2, r2, #268435456	; 0x10000000
 8004074:	659a      	str	r2, [r3, #88]	; 0x58
 8004076:	6d9b      	ldr	r3, [r3, #88]	; 0x58
 8004078:	f003 5380 	and.w	r3, r3, #268435456	; 0x10000000
 800407c:	9301      	str	r3, [sp, #4]
 800407e:	9b01      	ldr	r3, [sp, #4]
  /* System interrupt init*/

  /* USER CODE BEGIN MspInit 1 */

  /* USER CODE END MspInit 1 */
}
 8004080:	b002      	add	sp, #8
 8004082:	4770      	bx	lr
 8004084:	40021000 	.word	0x40021000

08004088 <NMI_Handler>:
 8004088:	4770      	bx	lr

0800408a <HardFault_Handler>:

/**
  * @brief This function handles Hard fault interrupt.
  */
void HardFault_Handler(void)
{
 800408a:	e7fe      	b.n	800408a <HardFault_Handler>

0800408c <MemManage_Handler>:

/**
  * @brief This function handles Memory management fault.
  */
void MemManage_Handler(void)
{
 800408c:	e7fe      	b.n	800408c <MemManage_Handler>

0800408e <BusFault_Handler>:

/**
  * @brief This function handles Prefetch fault, memory access fault.
  */
void BusFault_Handler(void)
{
 800408e:	e7fe      	b.n	800408e <BusFault_Handler>

08004090 <UsageFault_Handler>:

/**
  * @brief This function handles Undefined instruction or illegal state.
  */
void UsageFault_Handler(void)
{
 8004090:	e7fe      	b.n	8004090 <UsageFault_Handler>

08004092 <SVC_Handler>:
 8004092:	4770      	bx	lr

08004094 <DebugMon_Handler>:
 8004094:	4770      	bx	lr

08004096 <PendSV_Handler>:

/**
  * @brief This function handles Pendable request for system service.
  */
void PendSV_Handler(void)
{
 8004096:	4770      	bx	lr

08004098 <SysTick_Handler>:
void SysTick_Handler(void)
{
  /* USER CODE BEGIN SysTick_IRQn 0 */

  /* USER CODE END SysTick_IRQn 0 */
  HAL_IncTick();
 8004098:	f7fc baa0 	b.w	80005dc <HAL_IncTick>

0800409c <ADC1_2_IRQHandler>:
void ADC1_2_IRQHandler(void)
{
  /* USER CODE BEGIN ADC1_2_IRQn 0 */

  /* USER CODE END ADC1_2_IRQn 0 */
  HAL_ADC_IRQHandler(&hadc1);
 800409c:	4801      	ldr	r0, [pc, #4]	; (80040a4 <ADC1_2_IRQHandler+0x8>)
 800409e:	f7fc bbab 	b.w	80007f8 <HAL_ADC_IRQHandler>
 80040a2:	bf00      	nop
 80040a4:	200000b8 	.word	0x200000b8

080040a8 <TIM3_IRQHandler>:
void TIM3_IRQHandler(void)
{
  /* USER CODE BEGIN TIM3_IRQn 0 */

  /* USER CODE END TIM3_IRQn 0 */
  HAL_TIM_IRQHandler(&htim3);
 80040a8:	4801      	ldr	r0, [pc, #4]	; (80040b0 <TIM3_IRQHandler+0x8>)
 80040aa:	f7fe be13 	b.w	8002cd4 <HAL_TIM_IRQHandler>
 80040ae:	bf00      	nop
 80040b0:	200001d4 	.word	0x200001d4

080040b4 <I2C1_EV_IRQHandler>:
void I2C1_EV_IRQHandler(void)
{
  /* USER CODE BEGIN I2C1_EV_IRQn 0 */

  /* USER CODE END I2C1_EV_IRQn 0 */
  HAL_I2C_EV_IRQHandler(&hi2c1);
 80040b4:	4801      	ldr	r0, [pc, #4]	; (80040bc <I2C1_EV_IRQHandler+0x8>)
 80040b6:	f7fd bca7 	b.w	8001a08 <HAL_I2C_EV_IRQHandler>
 80040ba:	bf00      	nop
 80040bc:	2000011c 	.word	0x2000011c

080040c0 <I2C1_ER_IRQHandler>:
void I2C1_ER_IRQHandler(void)
{
  /* USER CODE BEGIN I2C1_ER_IRQn 0 */

  /* USER CODE END I2C1_ER_IRQn 0 */
  HAL_I2C_ER_IRQHandler(&hi2c1);
 80040c0:	4801      	ldr	r0, [pc, #4]	; (80040c8 <I2C1_ER_IRQHandler+0x8>)
 80040c2:	f7fd beb7 	b.w	8001e34 <HAL_I2C_ER_IRQHandler>
 80040c6:	bf00      	nop
 80040c8:	2000011c 	.word	0x2000011c

080040cc <SystemInit>:

void SystemInit(void)
{
  /* FPU settings ------------------------------------------------------------*/
  #if (__FPU_PRESENT == 1) && (__FPU_USED == 1)
    SCB->CPACR |= ((3UL << 10*2)|(3UL << 11*2));  /* set CP10 and CP11 Full Access */
 80040cc:	490f      	ldr	r1, [pc, #60]	; (800410c <SystemInit+0x40>)
 80040ce:	f8d1 3088 	ldr.w	r3, [r1, #136]	; 0x88
 80040d2:	f443 0370 	orr.w	r3, r3, #15728640	; 0xf00000
 80040d6:	f8c1 3088 	str.w	r3, [r1, #136]	; 0x88
  #endif

  /* Reset the RCC clock configuration to the default reset state ------------*/
  /* Set MSION bit */
  RCC->CR |= RCC_CR_MSION;
 80040da:	4b0d      	ldr	r3, [pc, #52]	; (8004110 <SystemInit+0x44>)
 80040dc:	681a      	ldr	r2, [r3, #0]

  /* Reset CFGR register */
  RCC->CFGR = 0x00000000U;
 80040de:	2000      	movs	r0, #0
  RCC->CR |= RCC_CR_MSION;
 80040e0:	f042 0201 	orr.w	r2, r2, #1
 80040e4:	601a      	str	r2, [r3, #0]
  RCC->CFGR = 0x00000000U;
 80040e6:	6098      	str	r0, [r3, #8]

  /* Reset HSEON, CSSON , HSION, and PLLON bits */
  RCC->CR &= 0xEAF6FFFFU;
 80040e8:	681a      	ldr	r2, [r3, #0]
 80040ea:	f022 52a8 	bic.w	r2, r2, #352321536	; 0x15000000
 80040ee:	f422 2210 	bic.w	r2, r2, #589824	; 0x90000
 80040f2:	601a      	str	r2, [r3, #0]

  /* Reset PLLCFGR register */
  RCC->PLLCFGR = 0x00001000U;
 80040f4:	f44f 5280 	mov.w	r2, #4096	; 0x1000
 80040f8:	60da      	str	r2, [r3, #12]

  /* Reset HSEBYP bit */
  RCC->CR &= 0xFFFBFFFFU;
 80040fa:	681a      	ldr	r2, [r3, #0]
 80040fc:	f422 2280 	bic.w	r2, r2, #262144	; 0x40000
 8004100:	601a      	str	r2, [r3, #0]

  /* Disable all interrupts */
  RCC->CIER = 0x00000000U;
 8004102:	6198      	str	r0, [r3, #24]

  /* Configure the Vector Table location add offset address ------------------*/
#ifdef VECT_TAB_SRAM
  SCB->VTOR = SRAM_BASE | VECT_TAB_OFFSET; /* Vector Table Relocation in Internal SRAM */
#else
  SCB->VTOR = FLASH_BASE | VECT_TAB_OFFSET; /* Vector Table Relocation in Internal FLASH */
 8004104:	f04f 6300 	mov.w	r3, #134217728	; 0x8000000
 8004108:	608b      	str	r3, [r1, #8]
 800410a:	4770      	bx	lr
 800410c:	e000ed00 	.word	0xe000ed00
 8004110:	40021000 	.word	0x40021000

08004114 <MX_TIM3_Init>:

TIM_HandleTypeDef htim3;

/* TIM3 init function */
void MX_TIM3_Init(void)
{
 8004114:	b500      	push	{lr}
  TIM_ClockConfigTypeDef sClockSourceConfig = {0};
 8004116:	2210      	movs	r2, #16
{
 8004118:	b089      	sub	sp, #36	; 0x24
  TIM_ClockConfigTypeDef sClockSourceConfig = {0};
 800411a:	2100      	movs	r1, #0
 800411c:	eb0d 0002 	add.w	r0, sp, r2
 8004120:	f000 f8ec 	bl	80042fc <memset>
  TIM_MasterConfigTypeDef sMasterConfig = {0};

  htim3.Instance = TIM3;
 8004124:	4815      	ldr	r0, [pc, #84]	; (800417c <MX_TIM3_Init+0x68>)
  htim3.Init.Prescaler = 63999;
 8004126:	4916      	ldr	r1, [pc, #88]	; (8004180 <MX_TIM3_Init+0x6c>)
 8004128:	f64f 12ff 	movw	r2, #63999	; 0xf9ff
  TIM_MasterConfigTypeDef sMasterConfig = {0};
 800412c:	2300      	movs	r3, #0
  htim3.Init.Prescaler = 63999;
 800412e:	e880 0006 	stmia.w	r0, {r1, r2}
  htim3.Init.CounterMode = TIM_COUNTERMODE_UP;
  htim3.Init.Period = 1000;
 8004132:	f44f 727a 	mov.w	r2, #1000	; 0x3e8
  TIM_MasterConfigTypeDef sMasterConfig = {0};
 8004136:	9301      	str	r3, [sp, #4]
 8004138:	9302      	str	r3, [sp, #8]
 800413a:	9303      	str	r3, [sp, #12]
  htim3.Init.CounterMode = TIM_COUNTERMODE_UP;
 800413c:	6083      	str	r3, [r0, #8]
  htim3.Init.Period = 1000;
 800413e:	60c2      	str	r2, [r0, #12]
  htim3.Init.ClockDivision = TIM_CLOCKDIVISION_DIV1;
 8004140:	6103      	str	r3, [r0, #16]
  htim3.Init.AutoReloadPreload = TIM_AUTORELOAD_PRELOAD_DISABLE;
 8004142:	6183      	str	r3, [r0, #24]
  if (HAL_TIM_Base_Init(&htim3) != HAL_OK)
 8004144:	f7fe fedc 	bl	8002f00 <HAL_TIM_Base_Init>
 8004148:	b108      	cbz	r0, 800414e <MX_TIM3_Init+0x3a>
  {
    Error_Handler();
 800414a:	f7ff ff83 	bl	8004054 <Error_Handler>
  }
  sClockSourceConfig.ClockSource = TIM_CLOCKSOURCE_INTERNAL;
 800414e:	f44f 5380 	mov.w	r3, #4096	; 0x1000
  if (HAL_TIM_ConfigClockSource(&htim3, &sClockSourceConfig) != HAL_OK)
 8004152:	a904      	add	r1, sp, #16
 8004154:	4809      	ldr	r0, [pc, #36]	; (800417c <MX_TIM3_Init+0x68>)
  sClockSourceConfig.ClockSource = TIM_CLOCKSOURCE_INTERNAL;
 8004156:	9304      	str	r3, [sp, #16]
  if (HAL_TIM_ConfigClockSource(&htim3, &sClockSourceConfig) != HAL_OK)
 8004158:	f7fe fef6 	bl	8002f48 <HAL_TIM_ConfigClockSource>
 800415c:	b108      	cbz	r0, 8004162 <MX_TIM3_Init+0x4e>
  {
    Error_Handler();
 800415e:	f7ff ff79 	bl	8004054 <Error_Handler>
  }
  sMasterConfig.MasterOutputTrigger = TIM_TRGO_RESET;
 8004162:	2300      	movs	r3, #0
  sMasterConfig.MasterSlaveMode = TIM_MASTERSLAVEMODE_DISABLE;
  if (HAL_TIMEx_MasterConfigSynchronization(&htim3, &sMasterConfig) != HAL_OK)
 8004164:	a901      	add	r1, sp, #4
 8004166:	4805      	ldr	r0, [pc, #20]	; (800417c <MX_TIM3_Init+0x68>)
  sMasterConfig.MasterOutputTrigger = TIM_TRGO_RESET;
 8004168:	9301      	str	r3, [sp, #4]
  sMasterConfig.MasterSlaveMode = TIM_MASTERSLAVEMODE_DISABLE;
 800416a:	9303      	str	r3, [sp, #12]
  if (HAL_TIMEx_MasterConfigSynchronization(&htim3, &sMasterConfig) != HAL_OK)
 800416c:	f7fe ff8e 	bl	800308c <HAL_TIMEx_MasterConfigSynchronization>
 8004170:	b108      	cbz	r0, 8004176 <MX_TIM3_Init+0x62>
  {
    Error_Handler();
 8004172:	f7ff ff6f 	bl	8004054 <Error_Handler>
  }

}
 8004176:	b009      	add	sp, #36	; 0x24
 8004178:	f85d fb04 	ldr.w	pc, [sp], #4
 800417c:	200001d4 	.word	0x200001d4
 8004180:	40000400 	.word	0x40000400

08004184 <HAL_TIM_Base_MspInit>:

void HAL_TIM_Base_MspInit(TIM_HandleTypeDef* tim_baseHandle)
{
 8004184:	b507      	push	{r0, r1, r2, lr}

  if(tim_baseHandle->Instance==TIM3)
 8004186:	4b0d      	ldr	r3, [pc, #52]	; (80041bc <HAL_TIM_Base_MspInit+0x38>)
 8004188:	6802      	ldr	r2, [r0, #0]
 800418a:	429a      	cmp	r2, r3
 800418c:	d112      	bne.n	80041b4 <HAL_TIM_Base_MspInit+0x30>
  {
  /* USER CODE BEGIN TIM3_MspInit 0 */

  /* USER CODE END TIM3_MspInit 0 */
    /* TIM3 clock enable */
    __HAL_RCC_TIM3_CLK_ENABLE();
 800418e:	f503 3303 	add.w	r3, r3, #134144	; 0x20c00

    /* TIM3 interrupt Init */
    HAL_NVIC_SetPriority(TIM3_IRQn, 0, 0);
 8004192:	201d      	movs	r0, #29
    __HAL_RCC_TIM3_CLK_ENABLE();
 8004194:	6d9a      	ldr	r2, [r3, #88]	; 0x58
 8004196:	f042 0202 	orr.w	r2, r2, #2
 800419a:	659a      	str	r2, [r3, #88]	; 0x58
 800419c:	6d9b      	ldr	r3, [r3, #88]	; 0x58
    HAL_NVIC_SetPriority(TIM3_IRQn, 0, 0);
 800419e:	2200      	movs	r2, #0
    __HAL_RCC_TIM3_CLK_ENABLE();
 80041a0:	f003 0302 	and.w	r3, r3, #2
 80041a4:	9301      	str	r3, [sp, #4]
    HAL_NVIC_SetPriority(TIM3_IRQn, 0, 0);
 80041a6:	4611      	mov	r1, r2
    __HAL_RCC_TIM3_CLK_ENABLE();
 80041a8:	9b01      	ldr	r3, [sp, #4]
    HAL_NVIC_SetPriority(TIM3_IRQn, 0, 0);
 80041aa:	f7fc ffa1 	bl	80010f0 <HAL_NVIC_SetPriority>
    HAL_NVIC_EnableIRQ(TIM3_IRQn);
 80041ae:	201d      	movs	r0, #29
 80041b0:	f7fc ffd2 	bl	8001158 <HAL_NVIC_EnableIRQ>
  /* USER CODE BEGIN TIM3_MspInit 1 */

  /* USER CODE END TIM3_MspInit 1 */
  }
}
 80041b4:	b003      	add	sp, #12
 80041b6:	f85d fb04 	ldr.w	pc, [sp], #4
 80041ba:	bf00      	nop
 80041bc:	40000400 	.word	0x40000400

080041c0 <MX_USART2_UART_Init>:
UART_HandleTypeDef huart2;

/* USART2 init function */

void MX_USART2_UART_Init(void)
{
 80041c0:	b508      	push	{r3, lr}

  huart2.Instance = USART2;
 80041c2:	480c      	ldr	r0, [pc, #48]	; (80041f4 <MX_USART2_UART_Init+0x34>)
  huart2.Init.BaudRate = 115200;
 80041c4:	4b0c      	ldr	r3, [pc, #48]	; (80041f8 <MX_USART2_UART_Init+0x38>)
 80041c6:	f44f 3ee1 	mov.w	lr, #115200	; 0x1c200
 80041ca:	e880 4008 	stmia.w	r0, {r3, lr}
  huart2.Init.WordLength = UART_WORDLENGTH_8B;
  huart2.Init.StopBits = UART_STOPBITS_1;
  huart2.Init.Parity = UART_PARITY_NONE;
  huart2.Init.Mode = UART_MODE_TX_RX;
 80041ce:	220c      	movs	r2, #12
  huart2.Init.WordLength = UART_WORDLENGTH_8B;
 80041d0:	2300      	movs	r3, #0
 80041d2:	6083      	str	r3, [r0, #8]
  huart2.Init.StopBits = UART_STOPBITS_1;
 80041d4:	60c3      	str	r3, [r0, #12]
  huart2.Init.Parity = UART_PARITY_NONE;
 80041d6:	6103      	str	r3, [r0, #16]
  huart2.Init.Mode = UART_MODE_TX_RX;
 80041d8:	6142      	str	r2, [r0, #20]
  huart2.Init.HwFlowCtl = UART_HWCONTROL_NONE;
 80041da:	6183      	str	r3, [r0, #24]
  huart2.Init.OverSampling = UART_OVERSAMPLING_16;
 80041dc:	61c3      	str	r3, [r0, #28]
  huart2.Init.OneBitSampling = UART_ONE_BIT_SAMPLE_DISABLE;
 80041de:	6203      	str	r3, [r0, #32]
  huart2.AdvancedInit.AdvFeatureInit = UART_ADVFEATURE_NO_INIT;
 80041e0:	6243      	str	r3, [r0, #36]	; 0x24
  if (HAL_UART_Init(&huart2) != HAL_OK)
 80041e2:	f7ff fa29 	bl	8003638 <HAL_UART_Init>
 80041e6:	b118      	cbz	r0, 80041f0 <MX_USART2_UART_Init+0x30>
  {
    Error_Handler();
  }

}
 80041e8:	e8bd 4008 	ldmia.w	sp!, {r3, lr}
    Error_Handler();
 80041ec:	f7ff bf32 	b.w	8004054 <Error_Handler>
 80041f0:	bd08      	pop	{r3, pc}
 80041f2:	bf00      	nop
 80041f4:	20000214 	.word	0x20000214
 80041f8:	40004400 	.word	0x40004400

080041fc <HAL_UART_MspInit>:

void HAL_UART_MspInit(UART_HandleTypeDef* uartHandle)
{
 80041fc:	b510      	push	{r4, lr}
 80041fe:	4604      	mov	r4, r0
 8004200:	b088      	sub	sp, #32

  GPIO_InitTypeDef GPIO_InitStruct = {0};
 8004202:	2214      	movs	r2, #20
 8004204:	2100      	movs	r1, #0
 8004206:	a803      	add	r0, sp, #12
 8004208:	f000 f878 	bl	80042fc <memset>
  if(uartHandle->Instance==USART2)
 800420c:	6822      	ldr	r2, [r4, #0]
 800420e:	4b13      	ldr	r3, [pc, #76]	; (800425c <HAL_UART_MspInit+0x60>)
 8004210:	429a      	cmp	r2, r3
 8004212:	d120      	bne.n	8004256 <HAL_UART_MspInit+0x5a>
  {
  /* USER CODE BEGIN USART2_MspInit 0 */

  /* USER CODE END USART2_MspInit 0 */
    /* USART2 clock enable */
    __HAL_RCC_USART2_CLK_ENABLE();
 8004214:	f503 33e6 	add.w	r3, r3, #117760	; 0x1cc00
    GPIO_InitStruct.Pin = USART_TX_Pin|USART_RX_Pin;
    GPIO_InitStruct.Mode = GPIO_MODE_AF_PP;
    GPIO_InitStruct.Pull = GPIO_NOPULL;
    GPIO_InitStruct.Speed = GPIO_SPEED_FREQ_VERY_HIGH;
    GPIO_InitStruct.Alternate = GPIO_AF7_USART2;
    HAL_GPIO_Init(GPIOA, &GPIO_InitStruct);
 8004218:	a903      	add	r1, sp, #12
    __HAL_RCC_USART2_CLK_ENABLE();
 800421a:	6d9a      	ldr	r2, [r3, #88]	; 0x58
 800421c:	f442 3200 	orr.w	r2, r2, #131072	; 0x20000
 8004220:	659a      	str	r2, [r3, #88]	; 0x58
 8004222:	6d9a      	ldr	r2, [r3, #88]	; 0x58
 8004224:	f402 3200 	and.w	r2, r2, #131072	; 0x20000
 8004228:	9201      	str	r2, [sp, #4]
 800422a:	9a01      	ldr	r2, [sp, #4]
    __HAL_RCC_GPIOA_CLK_ENABLE();
 800422c:	6cda      	ldr	r2, [r3, #76]	; 0x4c
 800422e:	f042 0201 	orr.w	r2, r2, #1
 8004232:	64da      	str	r2, [r3, #76]	; 0x4c
 8004234:	6cdb      	ldr	r3, [r3, #76]	; 0x4c
 8004236:	f003 0301 	and.w	r3, r3, #1
 800423a:	9302      	str	r3, [sp, #8]
 800423c:	9b02      	ldr	r3, [sp, #8]
    GPIO_InitStruct.Pin = USART_TX_Pin|USART_RX_Pin;
 800423e:	230c      	movs	r3, #12
 8004240:	9303      	str	r3, [sp, #12]
    GPIO_InitStruct.Mode = GPIO_MODE_AF_PP;
 8004242:	2302      	movs	r3, #2
 8004244:	9304      	str	r3, [sp, #16]
    GPIO_InitStruct.Speed = GPIO_SPEED_FREQ_VERY_HIGH;
 8004246:	2303      	movs	r3, #3
 8004248:	9306      	str	r3, [sp, #24]
    HAL_GPIO_Init(GPIOA, &GPIO_InitStruct);
 800424a:	f04f 4090 	mov.w	r0, #1207959552	; 0x48000000
    GPIO_InitStruct.Alternate = GPIO_AF7_USART2;
 800424e:	2307      	movs	r3, #7
 8004250:	9307      	str	r3, [sp, #28]
    HAL_GPIO_Init(GPIOA, &GPIO_InitStruct);
 8004252:	f7fc ffc9 	bl	80011e8 <HAL_GPIO_Init>

  /* USER CODE BEGIN USART2_MspInit 1 */

  /* USER CODE END USART2_MspInit 1 */
  }
}
 8004256:	b008      	add	sp, #32
 8004258:	bd10      	pop	{r4, pc}
 800425a:	bf00      	nop
 800425c:	40004400 	.word	0x40004400

08004260 <Reset_Handler>:

    .section	.text.Reset_Handler
	.weak	Reset_Handler
	.type	Reset_Handler, %function
Reset_Handler:
  ldr   sp, =_estack    /* Atollic update: set stack pointer */
 8004260:	f8df d034 	ldr.w	sp, [pc, #52]	; 8004298 <LoopForever+0x2>

/* Copy the data segment initializers from flash to SRAM */
  movs	r1, #0
 8004264:	2100      	movs	r1, #0
  b	LoopCopyDataInit
 8004266:	e003      	b.n	8004270 <LoopCopyDataInit>

08004268 <CopyDataInit>:

CopyDataInit:
	ldr	r3, =_sidata
 8004268:	4b0c      	ldr	r3, [pc, #48]	; (800429c <LoopForever+0x6>)
	ldr	r3, [r3, r1]
 800426a:	585b      	ldr	r3, [r3, r1]
	str	r3, [r0, r1]
 800426c:	5043      	str	r3, [r0, r1]
	adds	r1, r1, #4
 800426e:	3104      	adds	r1, #4

08004270 <LoopCopyDataInit>:

LoopCopyDataInit:
	ldr	r0, =_sdata
 8004270:	480b      	ldr	r0, [pc, #44]	; (80042a0 <LoopForever+0xa>)
	ldr	r3, =_edata
 8004272:	4b0c      	ldr	r3, [pc, #48]	; (80042a4 <LoopForever+0xe>)
	adds	r2, r0, r1
 8004274:	1842      	adds	r2, r0, r1
	cmp	r2, r3
 8004276:	429a      	cmp	r2, r3
	bcc	CopyDataInit
 8004278:	d3f6      	bcc.n	8004268 <CopyDataInit>
	ldr	r2, =_sbss
 800427a:	4a0b      	ldr	r2, [pc, #44]	; (80042a8 <LoopForever+0x12>)
	b	LoopFillZerobss
 800427c:	e002      	b.n	8004284 <LoopFillZerobss>

0800427e <FillZerobss>:
/* Zero fill the bss segment. */
FillZerobss:
	movs	r3, #0
 800427e:	2300      	movs	r3, #0
	str	r3, [r2], #4
 8004280:	f842 3b04 	str.w	r3, [r2], #4

08004284 <LoopFillZerobss>:

LoopFillZerobss:
	ldr	r3, = _ebss
 8004284:	4b09      	ldr	r3, [pc, #36]	; (80042ac <LoopForever+0x16>)
	cmp	r2, r3
 8004286:	429a      	cmp	r2, r3
	bcc	FillZerobss
 8004288:	d3f9      	bcc.n	800427e <FillZerobss>

/* Call the clock system intitialization function.*/
    bl  SystemInit
 800428a:	f7ff ff1f 	bl	80040cc <SystemInit>
/* Call static constructors */
    bl __libc_init_array
 800428e:	f000 f811 	bl	80042b4 <__libc_init_array>
/* Call the application's entry point.*/
	bl	main
 8004292:	f7ff fc1f 	bl	8003ad4 <main>

08004296 <LoopForever>:

LoopForever:
    b LoopForever
 8004296:	e7fe      	b.n	8004296 <LoopForever>
  ldr   sp, =_estack    /* Atollic update: set stack pointer */
 8004298:	20018000 	.word	0x20018000
	ldr	r3, =_sidata
 800429c:	080053c0 	.word	0x080053c0
	ldr	r0, =_sdata
 80042a0:	20000000 	.word	0x20000000
	ldr	r3, =_edata
 80042a4:	20000088 	.word	0x20000088
	ldr	r2, =_sbss
 80042a8:	20000088 	.word	0x20000088
	ldr	r3, = _ebss
 80042ac:	20000290 	.word	0x20000290

080042b0 <ADC3_IRQHandler>:
 * @retval : None
*/
    .section	.text.Default_Handler,"ax",%progbits
Default_Handler:
Infinite_Loop:
	b	Infinite_Loop
 80042b0:	e7fe      	b.n	80042b0 <ADC3_IRQHandler>
	...

080042b4 <__libc_init_array>:
 80042b4:	b570      	push	{r4, r5, r6, lr}
 80042b6:	4e0d      	ldr	r6, [pc, #52]	; (80042ec <__libc_init_array+0x38>)
 80042b8:	4c0d      	ldr	r4, [pc, #52]	; (80042f0 <__libc_init_array+0x3c>)
 80042ba:	1ba4      	subs	r4, r4, r6
 80042bc:	10a4      	asrs	r4, r4, #2
 80042be:	2500      	movs	r5, #0
 80042c0:	42a5      	cmp	r5, r4
 80042c2:	d109      	bne.n	80042d8 <__libc_init_array+0x24>
 80042c4:	4e0b      	ldr	r6, [pc, #44]	; (80042f4 <__libc_init_array+0x40>)
 80042c6:	4c0c      	ldr	r4, [pc, #48]	; (80042f8 <__libc_init_array+0x44>)
 80042c8:	f000 ffb2 	bl	8005230 <_init>
 80042cc:	1ba4      	subs	r4, r4, r6
 80042ce:	10a4      	asrs	r4, r4, #2
 80042d0:	2500      	movs	r5, #0
 80042d2:	42a5      	cmp	r5, r4
 80042d4:	d105      	bne.n	80042e2 <__libc_init_array+0x2e>
 80042d6:	bd70      	pop	{r4, r5, r6, pc}
 80042d8:	f856 3025 	ldr.w	r3, [r6, r5, lsl #2]
 80042dc:	4798      	blx	r3
 80042de:	3501      	adds	r5, #1
 80042e0:	e7ee      	b.n	80042c0 <__libc_init_array+0xc>
 80042e2:	f856 3025 	ldr.w	r3, [r6, r5, lsl #2]
 80042e6:	4798      	blx	r3
 80042e8:	3501      	adds	r5, #1
 80042ea:	e7f2      	b.n	80042d2 <__libc_init_array+0x1e>
 80042ec:	080053b8 	.word	0x080053b8
 80042f0:	080053b8 	.word	0x080053b8
 80042f4:	080053b8 	.word	0x080053b8
 80042f8:	080053bc 	.word	0x080053bc

080042fc <memset>:
 80042fc:	4402      	add	r2, r0
 80042fe:	4603      	mov	r3, r0
 8004300:	4293      	cmp	r3, r2
 8004302:	d100      	bne.n	8004306 <memset+0xa>
 8004304:	4770      	bx	lr
 8004306:	f803 1b01 	strb.w	r1, [r3], #1
 800430a:	e7f9      	b.n	8004300 <memset+0x4>

0800430c <iprintf>:
 800430c:	b40f      	push	{r0, r1, r2, r3}
 800430e:	4b0a      	ldr	r3, [pc, #40]	; (8004338 <iprintf+0x2c>)
 8004310:	b513      	push	{r0, r1, r4, lr}
 8004312:	681c      	ldr	r4, [r3, #0]
 8004314:	b124      	cbz	r4, 8004320 <iprintf+0x14>
 8004316:	69a3      	ldr	r3, [r4, #24]
 8004318:	b913      	cbnz	r3, 8004320 <iprintf+0x14>
 800431a:	4620      	mov	r0, r4
 800431c:	f000 fa24 	bl	8004768 <__sinit>
 8004320:	ab05      	add	r3, sp, #20
 8004322:	9a04      	ldr	r2, [sp, #16]
 8004324:	68a1      	ldr	r1, [r4, #8]
 8004326:	9301      	str	r3, [sp, #4]
 8004328:	4620      	mov	r0, r4
 800432a:	f000 fbe1 	bl	8004af0 <_vfiprintf_r>
 800432e:	b002      	add	sp, #8
 8004330:	e8bd 4010 	ldmia.w	sp!, {r4, lr}
 8004334:	b004      	add	sp, #16
 8004336:	4770      	bx	lr
 8004338:	20000024 	.word	0x20000024

0800433c <_puts_r>:
 800433c:	b570      	push	{r4, r5, r6, lr}
 800433e:	460e      	mov	r6, r1
 8004340:	4605      	mov	r5, r0
 8004342:	b118      	cbz	r0, 800434c <_puts_r+0x10>
 8004344:	6983      	ldr	r3, [r0, #24]
 8004346:	b90b      	cbnz	r3, 800434c <_puts_r+0x10>
 8004348:	f000 fa0e 	bl	8004768 <__sinit>
 800434c:	69ab      	ldr	r3, [r5, #24]
 800434e:	68ac      	ldr	r4, [r5, #8]
 8004350:	b913      	cbnz	r3, 8004358 <_puts_r+0x1c>
 8004352:	4628      	mov	r0, r5
 8004354:	f000 fa08 	bl	8004768 <__sinit>
 8004358:	4b23      	ldr	r3, [pc, #140]	; (80043e8 <_puts_r+0xac>)
 800435a:	429c      	cmp	r4, r3
 800435c:	d117      	bne.n	800438e <_puts_r+0x52>
 800435e:	686c      	ldr	r4, [r5, #4]
 8004360:	89a3      	ldrh	r3, [r4, #12]
 8004362:	071b      	lsls	r3, r3, #28
 8004364:	d51d      	bpl.n	80043a2 <_puts_r+0x66>
 8004366:	6923      	ldr	r3, [r4, #16]
 8004368:	b1db      	cbz	r3, 80043a2 <_puts_r+0x66>
 800436a:	3e01      	subs	r6, #1
 800436c:	68a3      	ldr	r3, [r4, #8]
 800436e:	f816 1f01 	ldrb.w	r1, [r6, #1]!
 8004372:	3b01      	subs	r3, #1
 8004374:	60a3      	str	r3, [r4, #8]
 8004376:	b9e9      	cbnz	r1, 80043b4 <_puts_r+0x78>
 8004378:	2b00      	cmp	r3, #0
 800437a:	da2e      	bge.n	80043da <_puts_r+0x9e>
 800437c:	4622      	mov	r2, r4
 800437e:	210a      	movs	r1, #10
 8004380:	4628      	mov	r0, r5
 8004382:	f000 f83f 	bl	8004404 <__swbuf_r>
 8004386:	3001      	adds	r0, #1
 8004388:	d011      	beq.n	80043ae <_puts_r+0x72>
 800438a:	200a      	movs	r0, #10
 800438c:	bd70      	pop	{r4, r5, r6, pc}
 800438e:	4b17      	ldr	r3, [pc, #92]	; (80043ec <_puts_r+0xb0>)
 8004390:	429c      	cmp	r4, r3
 8004392:	d101      	bne.n	8004398 <_puts_r+0x5c>
 8004394:	68ac      	ldr	r4, [r5, #8]
 8004396:	e7e3      	b.n	8004360 <_puts_r+0x24>
 8004398:	4b15      	ldr	r3, [pc, #84]	; (80043f0 <_puts_r+0xb4>)
 800439a:	429c      	cmp	r4, r3
 800439c:	bf08      	it	eq
 800439e:	68ec      	ldreq	r4, [r5, #12]
 80043a0:	e7de      	b.n	8004360 <_puts_r+0x24>
 80043a2:	4621      	mov	r1, r4
 80043a4:	4628      	mov	r0, r5
 80043a6:	f000 f87f 	bl	80044a8 <__swsetup_r>
 80043aa:	2800      	cmp	r0, #0
 80043ac:	d0dd      	beq.n	800436a <_puts_r+0x2e>
 80043ae:	f04f 30ff 	mov.w	r0, #4294967295
 80043b2:	bd70      	pop	{r4, r5, r6, pc}
 80043b4:	2b00      	cmp	r3, #0
 80043b6:	da04      	bge.n	80043c2 <_puts_r+0x86>
 80043b8:	69a2      	ldr	r2, [r4, #24]
 80043ba:	4293      	cmp	r3, r2
 80043bc:	db06      	blt.n	80043cc <_puts_r+0x90>
 80043be:	290a      	cmp	r1, #10
 80043c0:	d004      	beq.n	80043cc <_puts_r+0x90>
 80043c2:	6823      	ldr	r3, [r4, #0]
 80043c4:	1c5a      	adds	r2, r3, #1
 80043c6:	6022      	str	r2, [r4, #0]
 80043c8:	7019      	strb	r1, [r3, #0]
 80043ca:	e7cf      	b.n	800436c <_puts_r+0x30>
 80043cc:	4622      	mov	r2, r4
 80043ce:	4628      	mov	r0, r5
 80043d0:	f000 f818 	bl	8004404 <__swbuf_r>
 80043d4:	3001      	adds	r0, #1
 80043d6:	d1c9      	bne.n	800436c <_puts_r+0x30>
 80043d8:	e7e9      	b.n	80043ae <_puts_r+0x72>
 80043da:	6823      	ldr	r3, [r4, #0]
 80043dc:	200a      	movs	r0, #10
 80043de:	1c5a      	adds	r2, r3, #1
 80043e0:	6022      	str	r2, [r4, #0]
 80043e2:	7018      	strb	r0, [r3, #0]
 80043e4:	bd70      	pop	{r4, r5, r6, pc}
 80043e6:	bf00      	nop
 80043e8:	08005338 	.word	0x08005338
 80043ec:	08005358 	.word	0x08005358
 80043f0:	08005318 	.word	0x08005318

080043f4 <puts>:
 80043f4:	4b02      	ldr	r3, [pc, #8]	; (8004400 <puts+0xc>)
 80043f6:	4601      	mov	r1, r0
 80043f8:	6818      	ldr	r0, [r3, #0]
 80043fa:	f7ff bf9f 	b.w	800433c <_puts_r>
 80043fe:	bf00      	nop
 8004400:	20000024 	.word	0x20000024

08004404 <__swbuf_r>:
 8004404:	b5f8      	push	{r3, r4, r5, r6, r7, lr}
 8004406:	460e      	mov	r6, r1
 8004408:	4614      	mov	r4, r2
 800440a:	4605      	mov	r5, r0
 800440c:	b118      	cbz	r0, 8004416 <__swbuf_r+0x12>
 800440e:	6983      	ldr	r3, [r0, #24]
 8004410:	b90b      	cbnz	r3, 8004416 <__swbuf_r+0x12>
 8004412:	f000 f9a9 	bl	8004768 <__sinit>
 8004416:	4b21      	ldr	r3, [pc, #132]	; (800449c <__swbuf_r+0x98>)
 8004418:	429c      	cmp	r4, r3
 800441a:	d12a      	bne.n	8004472 <__swbuf_r+0x6e>
 800441c:	686c      	ldr	r4, [r5, #4]
 800441e:	69a3      	ldr	r3, [r4, #24]
 8004420:	60a3      	str	r3, [r4, #8]
 8004422:	89a3      	ldrh	r3, [r4, #12]
 8004424:	071a      	lsls	r2, r3, #28
 8004426:	d52e      	bpl.n	8004486 <__swbuf_r+0x82>
 8004428:	6923      	ldr	r3, [r4, #16]
 800442a:	b363      	cbz	r3, 8004486 <__swbuf_r+0x82>
 800442c:	6923      	ldr	r3, [r4, #16]
 800442e:	6820      	ldr	r0, [r4, #0]
 8004430:	1ac0      	subs	r0, r0, r3
 8004432:	6963      	ldr	r3, [r4, #20]
 8004434:	b2f6      	uxtb	r6, r6
 8004436:	4298      	cmp	r0, r3
 8004438:	4637      	mov	r7, r6
 800443a:	db04      	blt.n	8004446 <__swbuf_r+0x42>
 800443c:	4621      	mov	r1, r4
 800443e:	4628      	mov	r0, r5
 8004440:	f000 f928 	bl	8004694 <_fflush_r>
 8004444:	bb28      	cbnz	r0, 8004492 <__swbuf_r+0x8e>
 8004446:	68a3      	ldr	r3, [r4, #8]
 8004448:	3b01      	subs	r3, #1
 800444a:	60a3      	str	r3, [r4, #8]
 800444c:	6823      	ldr	r3, [r4, #0]
 800444e:	1c5a      	adds	r2, r3, #1
 8004450:	6022      	str	r2, [r4, #0]
 8004452:	701e      	strb	r6, [r3, #0]
 8004454:	6963      	ldr	r3, [r4, #20]
 8004456:	3001      	adds	r0, #1
 8004458:	4298      	cmp	r0, r3
 800445a:	d004      	beq.n	8004466 <__swbuf_r+0x62>
 800445c:	89a3      	ldrh	r3, [r4, #12]
 800445e:	07db      	lsls	r3, r3, #31
 8004460:	d519      	bpl.n	8004496 <__swbuf_r+0x92>
 8004462:	2e0a      	cmp	r6, #10
 8004464:	d117      	bne.n	8004496 <__swbuf_r+0x92>
 8004466:	4621      	mov	r1, r4
 8004468:	4628      	mov	r0, r5
 800446a:	f000 f913 	bl	8004694 <_fflush_r>
 800446e:	b190      	cbz	r0, 8004496 <__swbuf_r+0x92>
 8004470:	e00f      	b.n	8004492 <__swbuf_r+0x8e>
 8004472:	4b0b      	ldr	r3, [pc, #44]	; (80044a0 <__swbuf_r+0x9c>)
 8004474:	429c      	cmp	r4, r3
 8004476:	d101      	bne.n	800447c <__swbuf_r+0x78>
 8004478:	68ac      	ldr	r4, [r5, #8]
 800447a:	e7d0      	b.n	800441e <__swbuf_r+0x1a>
 800447c:	4b09      	ldr	r3, [pc, #36]	; (80044a4 <__swbuf_r+0xa0>)
 800447e:	429c      	cmp	r4, r3
 8004480:	bf08      	it	eq
 8004482:	68ec      	ldreq	r4, [r5, #12]
 8004484:	e7cb      	b.n	800441e <__swbuf_r+0x1a>
 8004486:	4621      	mov	r1, r4
 8004488:	4628      	mov	r0, r5
 800448a:	f000 f80d 	bl	80044a8 <__swsetup_r>
 800448e:	2800      	cmp	r0, #0
 8004490:	d0cc      	beq.n	800442c <__swbuf_r+0x28>
 8004492:	f04f 37ff 	mov.w	r7, #4294967295
 8004496:	4638      	mov	r0, r7
 8004498:	bdf8      	pop	{r3, r4, r5, r6, r7, pc}
 800449a:	bf00      	nop
 800449c:	08005338 	.word	0x08005338
 80044a0:	08005358 	.word	0x08005358
 80044a4:	08005318 	.word	0x08005318

080044a8 <__swsetup_r>:
 80044a8:	4b32      	ldr	r3, [pc, #200]	; (8004574 <__swsetup_r+0xcc>)
 80044aa:	b570      	push	{r4, r5, r6, lr}
 80044ac:	681d      	ldr	r5, [r3, #0]
 80044ae:	4606      	mov	r6, r0
 80044b0:	460c      	mov	r4, r1
 80044b2:	b125      	cbz	r5, 80044be <__swsetup_r+0x16>
 80044b4:	69ab      	ldr	r3, [r5, #24]
 80044b6:	b913      	cbnz	r3, 80044be <__swsetup_r+0x16>
 80044b8:	4628      	mov	r0, r5
 80044ba:	f000 f955 	bl	8004768 <__sinit>
 80044be:	4b2e      	ldr	r3, [pc, #184]	; (8004578 <__swsetup_r+0xd0>)
 80044c0:	429c      	cmp	r4, r3
 80044c2:	d10f      	bne.n	80044e4 <__swsetup_r+0x3c>
 80044c4:	686c      	ldr	r4, [r5, #4]
 80044c6:	f9b4 300c 	ldrsh.w	r3, [r4, #12]
 80044ca:	b29a      	uxth	r2, r3
 80044cc:	0715      	lsls	r5, r2, #28
 80044ce:	d42c      	bmi.n	800452a <__swsetup_r+0x82>
 80044d0:	06d0      	lsls	r0, r2, #27
 80044d2:	d411      	bmi.n	80044f8 <__swsetup_r+0x50>
 80044d4:	2209      	movs	r2, #9
 80044d6:	6032      	str	r2, [r6, #0]
 80044d8:	f043 0340 	orr.w	r3, r3, #64	; 0x40
 80044dc:	81a3      	strh	r3, [r4, #12]
 80044de:	f04f 30ff 	mov.w	r0, #4294967295
 80044e2:	bd70      	pop	{r4, r5, r6, pc}
 80044e4:	4b25      	ldr	r3, [pc, #148]	; (800457c <__swsetup_r+0xd4>)
 80044e6:	429c      	cmp	r4, r3
 80044e8:	d101      	bne.n	80044ee <__swsetup_r+0x46>
 80044ea:	68ac      	ldr	r4, [r5, #8]
 80044ec:	e7eb      	b.n	80044c6 <__swsetup_r+0x1e>
 80044ee:	4b24      	ldr	r3, [pc, #144]	; (8004580 <__swsetup_r+0xd8>)
 80044f0:	429c      	cmp	r4, r3
 80044f2:	bf08      	it	eq
 80044f4:	68ec      	ldreq	r4, [r5, #12]
 80044f6:	e7e6      	b.n	80044c6 <__swsetup_r+0x1e>
 80044f8:	0751      	lsls	r1, r2, #29
 80044fa:	d512      	bpl.n	8004522 <__swsetup_r+0x7a>
 80044fc:	6b61      	ldr	r1, [r4, #52]	; 0x34
 80044fe:	b141      	cbz	r1, 8004512 <__swsetup_r+0x6a>
 8004500:	f104 0344 	add.w	r3, r4, #68	; 0x44
 8004504:	4299      	cmp	r1, r3
 8004506:	d002      	beq.n	800450e <__swsetup_r+0x66>
 8004508:	4630      	mov	r0, r6
 800450a:	f000 fa1b 	bl	8004944 <_free_r>
 800450e:	2300      	movs	r3, #0
 8004510:	6363      	str	r3, [r4, #52]	; 0x34
 8004512:	89a3      	ldrh	r3, [r4, #12]
 8004514:	f023 0324 	bic.w	r3, r3, #36	; 0x24
 8004518:	81a3      	strh	r3, [r4, #12]
 800451a:	2300      	movs	r3, #0
 800451c:	6063      	str	r3, [r4, #4]
 800451e:	6923      	ldr	r3, [r4, #16]
 8004520:	6023      	str	r3, [r4, #0]
 8004522:	89a3      	ldrh	r3, [r4, #12]
 8004524:	f043 0308 	orr.w	r3, r3, #8
 8004528:	81a3      	strh	r3, [r4, #12]
 800452a:	6923      	ldr	r3, [r4, #16]
 800452c:	b94b      	cbnz	r3, 8004542 <__swsetup_r+0x9a>
 800452e:	89a3      	ldrh	r3, [r4, #12]
 8004530:	f403 7320 	and.w	r3, r3, #640	; 0x280
 8004534:	f5b3 7f00 	cmp.w	r3, #512	; 0x200
 8004538:	d003      	beq.n	8004542 <__swsetup_r+0x9a>
 800453a:	4621      	mov	r1, r4
 800453c:	4630      	mov	r0, r6
 800453e:	f000 f9c1 	bl	80048c4 <__smakebuf_r>
 8004542:	89a2      	ldrh	r2, [r4, #12]
 8004544:	f012 0301 	ands.w	r3, r2, #1
 8004548:	d00c      	beq.n	8004564 <__swsetup_r+0xbc>
 800454a:	2300      	movs	r3, #0
 800454c:	60a3      	str	r3, [r4, #8]
 800454e:	6963      	ldr	r3, [r4, #20]
 8004550:	425b      	negs	r3, r3
 8004552:	61a3      	str	r3, [r4, #24]
 8004554:	6923      	ldr	r3, [r4, #16]
 8004556:	b953      	cbnz	r3, 800456e <__swsetup_r+0xc6>
 8004558:	f9b4 300c 	ldrsh.w	r3, [r4, #12]
 800455c:	f013 0080 	ands.w	r0, r3, #128	; 0x80
 8004560:	d1ba      	bne.n	80044d8 <__swsetup_r+0x30>
 8004562:	bd70      	pop	{r4, r5, r6, pc}
 8004564:	0792      	lsls	r2, r2, #30
 8004566:	bf58      	it	pl
 8004568:	6963      	ldrpl	r3, [r4, #20]
 800456a:	60a3      	str	r3, [r4, #8]
 800456c:	e7f2      	b.n	8004554 <__swsetup_r+0xac>
 800456e:	2000      	movs	r0, #0
 8004570:	e7f7      	b.n	8004562 <__swsetup_r+0xba>
 8004572:	bf00      	nop
 8004574:	20000024 	.word	0x20000024
 8004578:	08005338 	.word	0x08005338
 800457c:	08005358 	.word	0x08005358
 8004580:	08005318 	.word	0x08005318

08004584 <__sflush_r>:
 8004584:	898a      	ldrh	r2, [r1, #12]
 8004586:	e92d 41f0 	stmdb	sp!, {r4, r5, r6, r7, r8, lr}
 800458a:	4605      	mov	r5, r0
 800458c:	0710      	lsls	r0, r2, #28
 800458e:	460c      	mov	r4, r1
 8004590:	d45a      	bmi.n	8004648 <__sflush_r+0xc4>
 8004592:	684b      	ldr	r3, [r1, #4]
 8004594:	2b00      	cmp	r3, #0
 8004596:	dc05      	bgt.n	80045a4 <__sflush_r+0x20>
 8004598:	6c0b      	ldr	r3, [r1, #64]	; 0x40
 800459a:	2b00      	cmp	r3, #0
 800459c:	dc02      	bgt.n	80045a4 <__sflush_r+0x20>
 800459e:	2000      	movs	r0, #0
 80045a0:	e8bd 81f0 	ldmia.w	sp!, {r4, r5, r6, r7, r8, pc}
 80045a4:	6ae6      	ldr	r6, [r4, #44]	; 0x2c
 80045a6:	2e00      	cmp	r6, #0
 80045a8:	d0f9      	beq.n	800459e <__sflush_r+0x1a>
 80045aa:	2300      	movs	r3, #0
 80045ac:	f412 5280 	ands.w	r2, r2, #4096	; 0x1000
 80045b0:	682f      	ldr	r7, [r5, #0]
 80045b2:	602b      	str	r3, [r5, #0]
 80045b4:	d033      	beq.n	800461e <__sflush_r+0x9a>
 80045b6:	6d60      	ldr	r0, [r4, #84]	; 0x54
 80045b8:	89a3      	ldrh	r3, [r4, #12]
 80045ba:	075a      	lsls	r2, r3, #29
 80045bc:	d505      	bpl.n	80045ca <__sflush_r+0x46>
 80045be:	6863      	ldr	r3, [r4, #4]
 80045c0:	1ac0      	subs	r0, r0, r3
 80045c2:	6b63      	ldr	r3, [r4, #52]	; 0x34
 80045c4:	b10b      	cbz	r3, 80045ca <__sflush_r+0x46>
 80045c6:	6c23      	ldr	r3, [r4, #64]	; 0x40
 80045c8:	1ac0      	subs	r0, r0, r3
 80045ca:	2300      	movs	r3, #0
 80045cc:	4602      	mov	r2, r0
 80045ce:	6ae6      	ldr	r6, [r4, #44]	; 0x2c
 80045d0:	6a21      	ldr	r1, [r4, #32]
 80045d2:	4628      	mov	r0, r5
 80045d4:	47b0      	blx	r6
 80045d6:	1c43      	adds	r3, r0, #1
 80045d8:	89a3      	ldrh	r3, [r4, #12]
 80045da:	d106      	bne.n	80045ea <__sflush_r+0x66>
 80045dc:	6829      	ldr	r1, [r5, #0]
 80045de:	291d      	cmp	r1, #29
 80045e0:	d84b      	bhi.n	800467a <__sflush_r+0xf6>
 80045e2:	4a2b      	ldr	r2, [pc, #172]	; (8004690 <__sflush_r+0x10c>)
 80045e4:	40ca      	lsrs	r2, r1
 80045e6:	07d6      	lsls	r6, r2, #31
 80045e8:	d547      	bpl.n	800467a <__sflush_r+0xf6>
 80045ea:	2200      	movs	r2, #0
 80045ec:	6062      	str	r2, [r4, #4]
 80045ee:	04d9      	lsls	r1, r3, #19
 80045f0:	6922      	ldr	r2, [r4, #16]
 80045f2:	6022      	str	r2, [r4, #0]
 80045f4:	d504      	bpl.n	8004600 <__sflush_r+0x7c>
 80045f6:	1c42      	adds	r2, r0, #1
 80045f8:	d101      	bne.n	80045fe <__sflush_r+0x7a>
 80045fa:	682b      	ldr	r3, [r5, #0]
 80045fc:	b903      	cbnz	r3, 8004600 <__sflush_r+0x7c>
 80045fe:	6560      	str	r0, [r4, #84]	; 0x54
 8004600:	6b61      	ldr	r1, [r4, #52]	; 0x34
 8004602:	602f      	str	r7, [r5, #0]
 8004604:	2900      	cmp	r1, #0
 8004606:	d0ca      	beq.n	800459e <__sflush_r+0x1a>
 8004608:	f104 0344 	add.w	r3, r4, #68	; 0x44
 800460c:	4299      	cmp	r1, r3
 800460e:	d002      	beq.n	8004616 <__sflush_r+0x92>
 8004610:	4628      	mov	r0, r5
 8004612:	f000 f997 	bl	8004944 <_free_r>
 8004616:	2000      	movs	r0, #0
 8004618:	6360      	str	r0, [r4, #52]	; 0x34
 800461a:	e8bd 81f0 	ldmia.w	sp!, {r4, r5, r6, r7, r8, pc}
 800461e:	6a21      	ldr	r1, [r4, #32]
 8004620:	2301      	movs	r3, #1
 8004622:	4628      	mov	r0, r5
 8004624:	47b0      	blx	r6
 8004626:	1c41      	adds	r1, r0, #1
 8004628:	d1c6      	bne.n	80045b8 <__sflush_r+0x34>
 800462a:	682b      	ldr	r3, [r5, #0]
 800462c:	2b00      	cmp	r3, #0
 800462e:	d0c3      	beq.n	80045b8 <__sflush_r+0x34>
 8004630:	2b1d      	cmp	r3, #29
 8004632:	d001      	beq.n	8004638 <__sflush_r+0xb4>
 8004634:	2b16      	cmp	r3, #22
 8004636:	d101      	bne.n	800463c <__sflush_r+0xb8>
 8004638:	602f      	str	r7, [r5, #0]
 800463a:	e7b0      	b.n	800459e <__sflush_r+0x1a>
 800463c:	89a3      	ldrh	r3, [r4, #12]
 800463e:	f043 0340 	orr.w	r3, r3, #64	; 0x40
 8004642:	81a3      	strh	r3, [r4, #12]
 8004644:	e8bd 81f0 	ldmia.w	sp!, {r4, r5, r6, r7, r8, pc}
 8004648:	690f      	ldr	r7, [r1, #16]
 800464a:	2f00      	cmp	r7, #0
 800464c:	d0a7      	beq.n	800459e <__sflush_r+0x1a>
 800464e:	0793      	lsls	r3, r2, #30
 8004650:	680e      	ldr	r6, [r1, #0]
 8004652:	bf08      	it	eq
 8004654:	694b      	ldreq	r3, [r1, #20]
 8004656:	600f      	str	r7, [r1, #0]
 8004658:	bf18      	it	ne
 800465a:	2300      	movne	r3, #0
 800465c:	eba6 0807 	sub.w	r8, r6, r7
 8004660:	608b      	str	r3, [r1, #8]
 8004662:	f1b8 0f00 	cmp.w	r8, #0
 8004666:	dd9a      	ble.n	800459e <__sflush_r+0x1a>
 8004668:	4643      	mov	r3, r8
 800466a:	463a      	mov	r2, r7
 800466c:	6a21      	ldr	r1, [r4, #32]
 800466e:	6aa6      	ldr	r6, [r4, #40]	; 0x28
 8004670:	4628      	mov	r0, r5
 8004672:	47b0      	blx	r6
 8004674:	2800      	cmp	r0, #0
 8004676:	dc07      	bgt.n	8004688 <__sflush_r+0x104>
 8004678:	89a3      	ldrh	r3, [r4, #12]
 800467a:	f043 0340 	orr.w	r3, r3, #64	; 0x40
 800467e:	81a3      	strh	r3, [r4, #12]
 8004680:	f04f 30ff 	mov.w	r0, #4294967295
 8004684:	e8bd 81f0 	ldmia.w	sp!, {r4, r5, r6, r7, r8, pc}
 8004688:	4407      	add	r7, r0
 800468a:	eba8 0800 	sub.w	r8, r8, r0
 800468e:	e7e8      	b.n	8004662 <__sflush_r+0xde>
 8004690:	20400001 	.word	0x20400001

08004694 <_fflush_r>:
 8004694:	b538      	push	{r3, r4, r5, lr}
 8004696:	690b      	ldr	r3, [r1, #16]
 8004698:	4605      	mov	r5, r0
 800469a:	460c      	mov	r4, r1
 800469c:	b1db      	cbz	r3, 80046d6 <_fflush_r+0x42>
 800469e:	b118      	cbz	r0, 80046a8 <_fflush_r+0x14>
 80046a0:	6983      	ldr	r3, [r0, #24]
 80046a2:	b90b      	cbnz	r3, 80046a8 <_fflush_r+0x14>
 80046a4:	f000 f860 	bl	8004768 <__sinit>
 80046a8:	4b0c      	ldr	r3, [pc, #48]	; (80046dc <_fflush_r+0x48>)
 80046aa:	429c      	cmp	r4, r3
 80046ac:	d109      	bne.n	80046c2 <_fflush_r+0x2e>
 80046ae:	686c      	ldr	r4, [r5, #4]
 80046b0:	f9b4 300c 	ldrsh.w	r3, [r4, #12]
 80046b4:	b17b      	cbz	r3, 80046d6 <_fflush_r+0x42>
 80046b6:	4621      	mov	r1, r4
 80046b8:	4628      	mov	r0, r5
 80046ba:	e8bd 4038 	ldmia.w	sp!, {r3, r4, r5, lr}
 80046be:	f7ff bf61 	b.w	8004584 <__sflush_r>
 80046c2:	4b07      	ldr	r3, [pc, #28]	; (80046e0 <_fflush_r+0x4c>)
 80046c4:	429c      	cmp	r4, r3
 80046c6:	d101      	bne.n	80046cc <_fflush_r+0x38>
 80046c8:	68ac      	ldr	r4, [r5, #8]
 80046ca:	e7f1      	b.n	80046b0 <_fflush_r+0x1c>
 80046cc:	4b05      	ldr	r3, [pc, #20]	; (80046e4 <_fflush_r+0x50>)
 80046ce:	429c      	cmp	r4, r3
 80046d0:	bf08      	it	eq
 80046d2:	68ec      	ldreq	r4, [r5, #12]
 80046d4:	e7ec      	b.n	80046b0 <_fflush_r+0x1c>
 80046d6:	2000      	movs	r0, #0
 80046d8:	bd38      	pop	{r3, r4, r5, pc}
 80046da:	bf00      	nop
 80046dc:	08005338 	.word	0x08005338
 80046e0:	08005358 	.word	0x08005358
 80046e4:	08005318 	.word	0x08005318

080046e8 <_cleanup_r>:
 80046e8:	4901      	ldr	r1, [pc, #4]	; (80046f0 <_cleanup_r+0x8>)
 80046ea:	f000 b8a9 	b.w	8004840 <_fwalk_reent>
 80046ee:	bf00      	nop
 80046f0:	08004695 	.word	0x08004695

080046f4 <std.isra.0>:
 80046f4:	2300      	movs	r3, #0
 80046f6:	b510      	push	{r4, lr}
 80046f8:	4604      	mov	r4, r0
 80046fa:	6003      	str	r3, [r0, #0]
 80046fc:	6043      	str	r3, [r0, #4]
 80046fe:	6083      	str	r3, [r0, #8]
 8004700:	8181      	strh	r1, [r0, #12]
 8004702:	6643      	str	r3, [r0, #100]	; 0x64
 8004704:	81c2      	strh	r2, [r0, #14]
 8004706:	6103      	str	r3, [r0, #16]
 8004708:	6143      	str	r3, [r0, #20]
 800470a:	6183      	str	r3, [r0, #24]
 800470c:	4619      	mov	r1, r3
 800470e:	2208      	movs	r2, #8
 8004710:	305c      	adds	r0, #92	; 0x5c
 8004712:	f7ff fdf3 	bl	80042fc <memset>
 8004716:	4b05      	ldr	r3, [pc, #20]	; (800472c <std.isra.0+0x38>)
 8004718:	6263      	str	r3, [r4, #36]	; 0x24
 800471a:	4b05      	ldr	r3, [pc, #20]	; (8004730 <std.isra.0+0x3c>)
 800471c:	62a3      	str	r3, [r4, #40]	; 0x28
 800471e:	4b05      	ldr	r3, [pc, #20]	; (8004734 <std.isra.0+0x40>)
 8004720:	62e3      	str	r3, [r4, #44]	; 0x2c
 8004722:	4b05      	ldr	r3, [pc, #20]	; (8004738 <std.isra.0+0x44>)
 8004724:	6224      	str	r4, [r4, #32]
 8004726:	6323      	str	r3, [r4, #48]	; 0x30
 8004728:	bd10      	pop	{r4, pc}
 800472a:	bf00      	nop
 800472c:	08005069 	.word	0x08005069
 8004730:	0800508b 	.word	0x0800508b
 8004734:	080050c3 	.word	0x080050c3
 8004738:	080050e7 	.word	0x080050e7

0800473c <__sfmoreglue>:
 800473c:	b570      	push	{r4, r5, r6, lr}
 800473e:	1e4a      	subs	r2, r1, #1
 8004740:	2568      	movs	r5, #104	; 0x68
 8004742:	4355      	muls	r5, r2
 8004744:	460e      	mov	r6, r1
 8004746:	f105 0174 	add.w	r1, r5, #116	; 0x74
 800474a:	f000 f949 	bl	80049e0 <_malloc_r>
 800474e:	4604      	mov	r4, r0
 8004750:	b140      	cbz	r0, 8004764 <__sfmoreglue+0x28>
 8004752:	2100      	movs	r1, #0
 8004754:	e880 0042 	stmia.w	r0, {r1, r6}
 8004758:	300c      	adds	r0, #12
 800475a:	60a0      	str	r0, [r4, #8]
 800475c:	f105 0268 	add.w	r2, r5, #104	; 0x68
 8004760:	f7ff fdcc 	bl	80042fc <memset>
 8004764:	4620      	mov	r0, r4
 8004766:	bd70      	pop	{r4, r5, r6, pc}

08004768 <__sinit>:
 8004768:	6983      	ldr	r3, [r0, #24]
 800476a:	b510      	push	{r4, lr}
 800476c:	4604      	mov	r4, r0
 800476e:	bb33      	cbnz	r3, 80047be <__sinit+0x56>
 8004770:	6483      	str	r3, [r0, #72]	; 0x48
 8004772:	64c3      	str	r3, [r0, #76]	; 0x4c
 8004774:	6503      	str	r3, [r0, #80]	; 0x50
 8004776:	4b12      	ldr	r3, [pc, #72]	; (80047c0 <__sinit+0x58>)
 8004778:	4a12      	ldr	r2, [pc, #72]	; (80047c4 <__sinit+0x5c>)
 800477a:	681b      	ldr	r3, [r3, #0]
 800477c:	6282      	str	r2, [r0, #40]	; 0x28
 800477e:	4298      	cmp	r0, r3
 8004780:	bf04      	itt	eq
 8004782:	2301      	moveq	r3, #1
 8004784:	6183      	streq	r3, [r0, #24]
 8004786:	f000 f81f 	bl	80047c8 <__sfp>
 800478a:	6060      	str	r0, [r4, #4]
 800478c:	4620      	mov	r0, r4
 800478e:	f000 f81b 	bl	80047c8 <__sfp>
 8004792:	60a0      	str	r0, [r4, #8]
 8004794:	4620      	mov	r0, r4
 8004796:	f000 f817 	bl	80047c8 <__sfp>
 800479a:	2200      	movs	r2, #0
 800479c:	60e0      	str	r0, [r4, #12]
 800479e:	2104      	movs	r1, #4
 80047a0:	6860      	ldr	r0, [r4, #4]
 80047a2:	f7ff ffa7 	bl	80046f4 <std.isra.0>
 80047a6:	2201      	movs	r2, #1
 80047a8:	2109      	movs	r1, #9
 80047aa:	68a0      	ldr	r0, [r4, #8]
 80047ac:	f7ff ffa2 	bl	80046f4 <std.isra.0>
 80047b0:	2202      	movs	r2, #2
 80047b2:	2112      	movs	r1, #18
 80047b4:	68e0      	ldr	r0, [r4, #12]
 80047b6:	f7ff ff9d 	bl	80046f4 <std.isra.0>
 80047ba:	2301      	movs	r3, #1
 80047bc:	61a3      	str	r3, [r4, #24]
 80047be:	bd10      	pop	{r4, pc}
 80047c0:	08005378 	.word	0x08005378
 80047c4:	080046e9 	.word	0x080046e9

080047c8 <__sfp>:
 80047c8:	b5f8      	push	{r3, r4, r5, r6, r7, lr}
 80047ca:	4b1c      	ldr	r3, [pc, #112]	; (800483c <__sfp+0x74>)
 80047cc:	681e      	ldr	r6, [r3, #0]
 80047ce:	69b3      	ldr	r3, [r6, #24]
 80047d0:	4607      	mov	r7, r0
 80047d2:	b913      	cbnz	r3, 80047da <__sfp+0x12>
 80047d4:	4630      	mov	r0, r6
 80047d6:	f7ff ffc7 	bl	8004768 <__sinit>
 80047da:	3648      	adds	r6, #72	; 0x48
 80047dc:	68b4      	ldr	r4, [r6, #8]
 80047de:	6873      	ldr	r3, [r6, #4]
 80047e0:	3b01      	subs	r3, #1
 80047e2:	d503      	bpl.n	80047ec <__sfp+0x24>
 80047e4:	6833      	ldr	r3, [r6, #0]
 80047e6:	b133      	cbz	r3, 80047f6 <__sfp+0x2e>
 80047e8:	6836      	ldr	r6, [r6, #0]
 80047ea:	e7f7      	b.n	80047dc <__sfp+0x14>
 80047ec:	f9b4 500c 	ldrsh.w	r5, [r4, #12]
 80047f0:	b16d      	cbz	r5, 800480e <__sfp+0x46>
 80047f2:	3468      	adds	r4, #104	; 0x68
 80047f4:	e7f4      	b.n	80047e0 <__sfp+0x18>
 80047f6:	2104      	movs	r1, #4
 80047f8:	4638      	mov	r0, r7
 80047fa:	f7ff ff9f 	bl	800473c <__sfmoreglue>
 80047fe:	6030      	str	r0, [r6, #0]
 8004800:	2800      	cmp	r0, #0
 8004802:	d1f1      	bne.n	80047e8 <__sfp+0x20>
 8004804:	230c      	movs	r3, #12
 8004806:	603b      	str	r3, [r7, #0]
 8004808:	4604      	mov	r4, r0
 800480a:	4620      	mov	r0, r4
 800480c:	bdf8      	pop	{r3, r4, r5, r6, r7, pc}
 800480e:	f64f 73ff 	movw	r3, #65535	; 0xffff
 8004812:	81e3      	strh	r3, [r4, #14]
 8004814:	2301      	movs	r3, #1
 8004816:	81a3      	strh	r3, [r4, #12]
 8004818:	6665      	str	r5, [r4, #100]	; 0x64
 800481a:	6025      	str	r5, [r4, #0]
 800481c:	60a5      	str	r5, [r4, #8]
 800481e:	6065      	str	r5, [r4, #4]
 8004820:	6125      	str	r5, [r4, #16]
 8004822:	6165      	str	r5, [r4, #20]
 8004824:	61a5      	str	r5, [r4, #24]
 8004826:	2208      	movs	r2, #8
 8004828:	4629      	mov	r1, r5
 800482a:	f104 005c 	add.w	r0, r4, #92	; 0x5c
 800482e:	f7ff fd65 	bl	80042fc <memset>
 8004832:	6365      	str	r5, [r4, #52]	; 0x34
 8004834:	63a5      	str	r5, [r4, #56]	; 0x38
 8004836:	64a5      	str	r5, [r4, #72]	; 0x48
 8004838:	64e5      	str	r5, [r4, #76]	; 0x4c
 800483a:	e7e6      	b.n	800480a <__sfp+0x42>
 800483c:	08005378 	.word	0x08005378

08004840 <_fwalk_reent>:
 8004840:	e92d 43f8 	stmdb	sp!, {r3, r4, r5, r6, r7, r8, r9, lr}
 8004844:	4680      	mov	r8, r0
 8004846:	4689      	mov	r9, r1
 8004848:	f100 0448 	add.w	r4, r0, #72	; 0x48
 800484c:	2600      	movs	r6, #0
 800484e:	b914      	cbnz	r4, 8004856 <_fwalk_reent+0x16>
 8004850:	4630      	mov	r0, r6
 8004852:	e8bd 83f8 	ldmia.w	sp!, {r3, r4, r5, r6, r7, r8, r9, pc}
 8004856:	68a5      	ldr	r5, [r4, #8]
 8004858:	6867      	ldr	r7, [r4, #4]
 800485a:	3f01      	subs	r7, #1
 800485c:	d501      	bpl.n	8004862 <_fwalk_reent+0x22>
 800485e:	6824      	ldr	r4, [r4, #0]
 8004860:	e7f5      	b.n	800484e <_fwalk_reent+0xe>
 8004862:	89ab      	ldrh	r3, [r5, #12]
 8004864:	2b01      	cmp	r3, #1
 8004866:	d907      	bls.n	8004878 <_fwalk_reent+0x38>
 8004868:	f9b5 300e 	ldrsh.w	r3, [r5, #14]
 800486c:	3301      	adds	r3, #1
 800486e:	d003      	beq.n	8004878 <_fwalk_reent+0x38>
 8004870:	4629      	mov	r1, r5
 8004872:	4640      	mov	r0, r8
 8004874:	47c8      	blx	r9
 8004876:	4306      	orrs	r6, r0
 8004878:	3568      	adds	r5, #104	; 0x68
 800487a:	e7ee      	b.n	800485a <_fwalk_reent+0x1a>

0800487c <__swhatbuf_r>:
 800487c:	b570      	push	{r4, r5, r6, lr}
 800487e:	460e      	mov	r6, r1
 8004880:	f9b1 100e 	ldrsh.w	r1, [r1, #14]
 8004884:	2900      	cmp	r1, #0
 8004886:	b090      	sub	sp, #64	; 0x40
 8004888:	4614      	mov	r4, r2
 800488a:	461d      	mov	r5, r3
 800488c:	da07      	bge.n	800489e <__swhatbuf_r+0x22>
 800488e:	2300      	movs	r3, #0
 8004890:	602b      	str	r3, [r5, #0]
 8004892:	89b3      	ldrh	r3, [r6, #12]
 8004894:	061a      	lsls	r2, r3, #24
 8004896:	d410      	bmi.n	80048ba <__swhatbuf_r+0x3e>
 8004898:	f44f 6380 	mov.w	r3, #1024	; 0x400
 800489c:	e00e      	b.n	80048bc <__swhatbuf_r+0x40>
 800489e:	aa01      	add	r2, sp, #4
 80048a0:	f000 fc48 	bl	8005134 <_fstat_r>
 80048a4:	2800      	cmp	r0, #0
 80048a6:	dbf2      	blt.n	800488e <__swhatbuf_r+0x12>
 80048a8:	9a02      	ldr	r2, [sp, #8]
 80048aa:	f402 4270 	and.w	r2, r2, #61440	; 0xf000
 80048ae:	f5a2 5300 	sub.w	r3, r2, #8192	; 0x2000
 80048b2:	425a      	negs	r2, r3
 80048b4:	415a      	adcs	r2, r3
 80048b6:	602a      	str	r2, [r5, #0]
 80048b8:	e7ee      	b.n	8004898 <__swhatbuf_r+0x1c>
 80048ba:	2340      	movs	r3, #64	; 0x40
 80048bc:	2000      	movs	r0, #0
 80048be:	6023      	str	r3, [r4, #0]
 80048c0:	b010      	add	sp, #64	; 0x40
 80048c2:	bd70      	pop	{r4, r5, r6, pc}

080048c4 <__smakebuf_r>:
 80048c4:	898b      	ldrh	r3, [r1, #12]
 80048c6:	b573      	push	{r0, r1, r4, r5, r6, lr}
 80048c8:	079d      	lsls	r5, r3, #30
 80048ca:	4606      	mov	r6, r0
 80048cc:	460c      	mov	r4, r1
 80048ce:	d507      	bpl.n	80048e0 <__smakebuf_r+0x1c>
 80048d0:	f104 0347 	add.w	r3, r4, #71	; 0x47
 80048d4:	6023      	str	r3, [r4, #0]
 80048d6:	6123      	str	r3, [r4, #16]
 80048d8:	2301      	movs	r3, #1
 80048da:	6163      	str	r3, [r4, #20]
 80048dc:	b002      	add	sp, #8
 80048de:	bd70      	pop	{r4, r5, r6, pc}
 80048e0:	ab01      	add	r3, sp, #4
 80048e2:	466a      	mov	r2, sp
 80048e4:	f7ff ffca 	bl	800487c <__swhatbuf_r>
 80048e8:	9900      	ldr	r1, [sp, #0]
 80048ea:	4605      	mov	r5, r0
 80048ec:	4630      	mov	r0, r6
 80048ee:	f000 f877 	bl	80049e0 <_malloc_r>
 80048f2:	b948      	cbnz	r0, 8004908 <__smakebuf_r+0x44>
 80048f4:	f9b4 300c 	ldrsh.w	r3, [r4, #12]
 80048f8:	059a      	lsls	r2, r3, #22
 80048fa:	d4ef      	bmi.n	80048dc <__smakebuf_r+0x18>
 80048fc:	f023 0303 	bic.w	r3, r3, #3
 8004900:	f043 0302 	orr.w	r3, r3, #2
 8004904:	81a3      	strh	r3, [r4, #12]
 8004906:	e7e3      	b.n	80048d0 <__smakebuf_r+0xc>
 8004908:	4b0d      	ldr	r3, [pc, #52]	; (8004940 <__smakebuf_r+0x7c>)
 800490a:	62b3      	str	r3, [r6, #40]	; 0x28
 800490c:	89a3      	ldrh	r3, [r4, #12]
 800490e:	6020      	str	r0, [r4, #0]
 8004910:	f043 0380 	orr.w	r3, r3, #128	; 0x80
 8004914:	81a3      	strh	r3, [r4, #12]
 8004916:	9b00      	ldr	r3, [sp, #0]
 8004918:	6163      	str	r3, [r4, #20]
 800491a:	9b01      	ldr	r3, [sp, #4]
 800491c:	6120      	str	r0, [r4, #16]
 800491e:	b15b      	cbz	r3, 8004938 <__smakebuf_r+0x74>
 8004920:	f9b4 100e 	ldrsh.w	r1, [r4, #14]
 8004924:	4630      	mov	r0, r6
 8004926:	f000 fc17 	bl	8005158 <_isatty_r>
 800492a:	b128      	cbz	r0, 8004938 <__smakebuf_r+0x74>
 800492c:	89a3      	ldrh	r3, [r4, #12]
 800492e:	f023 0303 	bic.w	r3, r3, #3
 8004932:	f043 0301 	orr.w	r3, r3, #1
 8004936:	81a3      	strh	r3, [r4, #12]
 8004938:	89a3      	ldrh	r3, [r4, #12]
 800493a:	431d      	orrs	r5, r3
 800493c:	81a5      	strh	r5, [r4, #12]
 800493e:	e7cd      	b.n	80048dc <__smakebuf_r+0x18>
 8004940:	080046e9 	.word	0x080046e9

08004944 <_free_r>:
 8004944:	b538      	push	{r3, r4, r5, lr}
 8004946:	4605      	mov	r5, r0
 8004948:	2900      	cmp	r1, #0
 800494a:	d045      	beq.n	80049d8 <_free_r+0x94>
 800494c:	f851 3c04 	ldr.w	r3, [r1, #-4]
 8004950:	1f0c      	subs	r4, r1, #4
 8004952:	2b00      	cmp	r3, #0
 8004954:	bfb8      	it	lt
 8004956:	18e4      	addlt	r4, r4, r3
 8004958:	f000 fc20 	bl	800519c <__malloc_lock>
 800495c:	4a1f      	ldr	r2, [pc, #124]	; (80049dc <_free_r+0x98>)
 800495e:	6813      	ldr	r3, [r2, #0]
 8004960:	4610      	mov	r0, r2
 8004962:	b933      	cbnz	r3, 8004972 <_free_r+0x2e>
 8004964:	6063      	str	r3, [r4, #4]
 8004966:	6014      	str	r4, [r2, #0]
 8004968:	4628      	mov	r0, r5
 800496a:	e8bd 4038 	ldmia.w	sp!, {r3, r4, r5, lr}
 800496e:	f000 bc16 	b.w	800519e <__malloc_unlock>
 8004972:	42a3      	cmp	r3, r4
 8004974:	d90c      	bls.n	8004990 <_free_r+0x4c>
 8004976:	6821      	ldr	r1, [r4, #0]
 8004978:	1862      	adds	r2, r4, r1
 800497a:	4293      	cmp	r3, r2
 800497c:	bf04      	itt	eq
 800497e:	681a      	ldreq	r2, [r3, #0]
 8004980:	685b      	ldreq	r3, [r3, #4]
 8004982:	6063      	str	r3, [r4, #4]
 8004984:	bf04      	itt	eq
 8004986:	1852      	addeq	r2, r2, r1
 8004988:	6022      	streq	r2, [r4, #0]
 800498a:	6004      	str	r4, [r0, #0]
 800498c:	e7ec      	b.n	8004968 <_free_r+0x24>
 800498e:	4613      	mov	r3, r2
 8004990:	685a      	ldr	r2, [r3, #4]
 8004992:	b10a      	cbz	r2, 8004998 <_free_r+0x54>
 8004994:	42a2      	cmp	r2, r4
 8004996:	d9fa      	bls.n	800498e <_free_r+0x4a>
 8004998:	6819      	ldr	r1, [r3, #0]
 800499a:	1858      	adds	r0, r3, r1
 800499c:	42a0      	cmp	r0, r4
 800499e:	d10b      	bne.n	80049b8 <_free_r+0x74>
 80049a0:	6820      	ldr	r0, [r4, #0]
 80049a2:	4401      	add	r1, r0
 80049a4:	1858      	adds	r0, r3, r1
 80049a6:	4282      	cmp	r2, r0
 80049a8:	6019      	str	r1, [r3, #0]
 80049aa:	d1dd      	bne.n	8004968 <_free_r+0x24>
 80049ac:	6810      	ldr	r0, [r2, #0]
 80049ae:	6852      	ldr	r2, [r2, #4]
 80049b0:	605a      	str	r2, [r3, #4]
 80049b2:	4401      	add	r1, r0
 80049b4:	6019      	str	r1, [r3, #0]
 80049b6:	e7d7      	b.n	8004968 <_free_r+0x24>
 80049b8:	d902      	bls.n	80049c0 <_free_r+0x7c>
 80049ba:	230c      	movs	r3, #12
 80049bc:	602b      	str	r3, [r5, #0]
 80049be:	e7d3      	b.n	8004968 <_free_r+0x24>
 80049c0:	6820      	ldr	r0, [r4, #0]
 80049c2:	1821      	adds	r1, r4, r0
 80049c4:	428a      	cmp	r2, r1
 80049c6:	bf04      	itt	eq
 80049c8:	6811      	ldreq	r1, [r2, #0]
 80049ca:	6852      	ldreq	r2, [r2, #4]
 80049cc:	6062      	str	r2, [r4, #4]
 80049ce:	bf04      	itt	eq
 80049d0:	1809      	addeq	r1, r1, r0
 80049d2:	6021      	streq	r1, [r4, #0]
 80049d4:	605c      	str	r4, [r3, #4]
 80049d6:	e7c7      	b.n	8004968 <_free_r+0x24>
 80049d8:	bd38      	pop	{r3, r4, r5, pc}
 80049da:	bf00      	nop
 80049dc:	200000a8 	.word	0x200000a8

080049e0 <_malloc_r>:
 80049e0:	b570      	push	{r4, r5, r6, lr}
 80049e2:	1ccd      	adds	r5, r1, #3
 80049e4:	f025 0503 	bic.w	r5, r5, #3
 80049e8:	3508      	adds	r5, #8
 80049ea:	2d0c      	cmp	r5, #12
 80049ec:	bf38      	it	cc
 80049ee:	250c      	movcc	r5, #12
 80049f0:	2d00      	cmp	r5, #0
 80049f2:	4606      	mov	r6, r0
 80049f4:	db01      	blt.n	80049fa <_malloc_r+0x1a>
 80049f6:	42a9      	cmp	r1, r5
 80049f8:	d903      	bls.n	8004a02 <_malloc_r+0x22>
 80049fa:	230c      	movs	r3, #12
 80049fc:	6033      	str	r3, [r6, #0]
 80049fe:	2000      	movs	r0, #0
 8004a00:	bd70      	pop	{r4, r5, r6, pc}
 8004a02:	f000 fbcb 	bl	800519c <__malloc_lock>
 8004a06:	4a23      	ldr	r2, [pc, #140]	; (8004a94 <_malloc_r+0xb4>)
 8004a08:	6814      	ldr	r4, [r2, #0]
 8004a0a:	4621      	mov	r1, r4
 8004a0c:	b991      	cbnz	r1, 8004a34 <_malloc_r+0x54>
 8004a0e:	4c22      	ldr	r4, [pc, #136]	; (8004a98 <_malloc_r+0xb8>)
 8004a10:	6823      	ldr	r3, [r4, #0]
 8004a12:	b91b      	cbnz	r3, 8004a1c <_malloc_r+0x3c>
 8004a14:	4630      	mov	r0, r6
 8004a16:	f000 fb17 	bl	8005048 <_sbrk_r>
 8004a1a:	6020      	str	r0, [r4, #0]
 8004a1c:	4629      	mov	r1, r5
 8004a1e:	4630      	mov	r0, r6
 8004a20:	f000 fb12 	bl	8005048 <_sbrk_r>
 8004a24:	1c43      	adds	r3, r0, #1
 8004a26:	d126      	bne.n	8004a76 <_malloc_r+0x96>
 8004a28:	230c      	movs	r3, #12
 8004a2a:	6033      	str	r3, [r6, #0]
 8004a2c:	4630      	mov	r0, r6
 8004a2e:	f000 fbb6 	bl	800519e <__malloc_unlock>
 8004a32:	e7e4      	b.n	80049fe <_malloc_r+0x1e>
 8004a34:	680b      	ldr	r3, [r1, #0]
 8004a36:	1b5b      	subs	r3, r3, r5
 8004a38:	d41a      	bmi.n	8004a70 <_malloc_r+0x90>
 8004a3a:	2b0b      	cmp	r3, #11
 8004a3c:	d90f      	bls.n	8004a5e <_malloc_r+0x7e>
 8004a3e:	600b      	str	r3, [r1, #0]
 8004a40:	50cd      	str	r5, [r1, r3]
 8004a42:	18cc      	adds	r4, r1, r3
 8004a44:	4630      	mov	r0, r6
 8004a46:	f000 fbaa 	bl	800519e <__malloc_unlock>
 8004a4a:	f104 000b 	add.w	r0, r4, #11
 8004a4e:	1d23      	adds	r3, r4, #4
 8004a50:	f020 0007 	bic.w	r0, r0, #7
 8004a54:	1ac3      	subs	r3, r0, r3
 8004a56:	d01b      	beq.n	8004a90 <_malloc_r+0xb0>
 8004a58:	425a      	negs	r2, r3
 8004a5a:	50e2      	str	r2, [r4, r3]
 8004a5c:	bd70      	pop	{r4, r5, r6, pc}
 8004a5e:	428c      	cmp	r4, r1
 8004a60:	bf0d      	iteet	eq
 8004a62:	6863      	ldreq	r3, [r4, #4]
 8004a64:	684b      	ldrne	r3, [r1, #4]
 8004a66:	6063      	strne	r3, [r4, #4]
 8004a68:	6013      	streq	r3, [r2, #0]
 8004a6a:	bf18      	it	ne
 8004a6c:	460c      	movne	r4, r1
 8004a6e:	e7e9      	b.n	8004a44 <_malloc_r+0x64>
 8004a70:	460c      	mov	r4, r1
 8004a72:	6849      	ldr	r1, [r1, #4]
 8004a74:	e7ca      	b.n	8004a0c <_malloc_r+0x2c>
 8004a76:	1cc4      	adds	r4, r0, #3
 8004a78:	f024 0403 	bic.w	r4, r4, #3
 8004a7c:	42a0      	cmp	r0, r4
 8004a7e:	d005      	beq.n	8004a8c <_malloc_r+0xac>
 8004a80:	1a21      	subs	r1, r4, r0
 8004a82:	4630      	mov	r0, r6
 8004a84:	f000 fae0 	bl	8005048 <_sbrk_r>
 8004a88:	3001      	adds	r0, #1
 8004a8a:	d0cd      	beq.n	8004a28 <_malloc_r+0x48>
 8004a8c:	6025      	str	r5, [r4, #0]
 8004a8e:	e7d9      	b.n	8004a44 <_malloc_r+0x64>
 8004a90:	bd70      	pop	{r4, r5, r6, pc}
 8004a92:	bf00      	nop
 8004a94:	200000a8 	.word	0x200000a8
 8004a98:	200000ac 	.word	0x200000ac

08004a9c <__sfputc_r>:
 8004a9c:	6893      	ldr	r3, [r2, #8]
 8004a9e:	3b01      	subs	r3, #1
 8004aa0:	2b00      	cmp	r3, #0
 8004aa2:	b410      	push	{r4}
 8004aa4:	6093      	str	r3, [r2, #8]
 8004aa6:	da09      	bge.n	8004abc <__sfputc_r+0x20>
 8004aa8:	6994      	ldr	r4, [r2, #24]
 8004aaa:	42a3      	cmp	r3, r4
 8004aac:	db02      	blt.n	8004ab4 <__sfputc_r+0x18>
 8004aae:	b2cb      	uxtb	r3, r1
 8004ab0:	2b0a      	cmp	r3, #10
 8004ab2:	d103      	bne.n	8004abc <__sfputc_r+0x20>
 8004ab4:	f85d 4b04 	ldr.w	r4, [sp], #4
 8004ab8:	f7ff bca4 	b.w	8004404 <__swbuf_r>
 8004abc:	6813      	ldr	r3, [r2, #0]
 8004abe:	1c58      	adds	r0, r3, #1
 8004ac0:	6010      	str	r0, [r2, #0]
 8004ac2:	7019      	strb	r1, [r3, #0]
 8004ac4:	b2c8      	uxtb	r0, r1
 8004ac6:	f85d 4b04 	ldr.w	r4, [sp], #4
 8004aca:	4770      	bx	lr

08004acc <__sfputs_r>:
 8004acc:	b5f8      	push	{r3, r4, r5, r6, r7, lr}
 8004ace:	4606      	mov	r6, r0
 8004ad0:	460f      	mov	r7, r1
 8004ad2:	4614      	mov	r4, r2
 8004ad4:	18d5      	adds	r5, r2, r3
 8004ad6:	42ac      	cmp	r4, r5
 8004ad8:	d101      	bne.n	8004ade <__sfputs_r+0x12>
 8004ada:	2000      	movs	r0, #0
 8004adc:	e007      	b.n	8004aee <__sfputs_r+0x22>
 8004ade:	463a      	mov	r2, r7
 8004ae0:	f814 1b01 	ldrb.w	r1, [r4], #1
 8004ae4:	4630      	mov	r0, r6
 8004ae6:	f7ff ffd9 	bl	8004a9c <__sfputc_r>
 8004aea:	1c43      	adds	r3, r0, #1
 8004aec:	d1f3      	bne.n	8004ad6 <__sfputs_r+0xa>
 8004aee:	bdf8      	pop	{r3, r4, r5, r6, r7, pc}

08004af0 <_vfiprintf_r>:
 8004af0:	e92d 4ff0 	stmdb	sp!, {r4, r5, r6, r7, r8, r9, sl, fp, lr}
 8004af4:	b09d      	sub	sp, #116	; 0x74
 8004af6:	460c      	mov	r4, r1
 8004af8:	4617      	mov	r7, r2
 8004afa:	9303      	str	r3, [sp, #12]
 8004afc:	4606      	mov	r6, r0
 8004afe:	b118      	cbz	r0, 8004b08 <_vfiprintf_r+0x18>
 8004b00:	6983      	ldr	r3, [r0, #24]
 8004b02:	b90b      	cbnz	r3, 8004b08 <_vfiprintf_r+0x18>
 8004b04:	f7ff fe30 	bl	8004768 <__sinit>
 8004b08:	4b7c      	ldr	r3, [pc, #496]	; (8004cfc <_vfiprintf_r+0x20c>)
 8004b0a:	429c      	cmp	r4, r3
 8004b0c:	d157      	bne.n	8004bbe <_vfiprintf_r+0xce>
 8004b0e:	6874      	ldr	r4, [r6, #4]
 8004b10:	89a3      	ldrh	r3, [r4, #12]
 8004b12:	0718      	lsls	r0, r3, #28
 8004b14:	d55d      	bpl.n	8004bd2 <_vfiprintf_r+0xe2>
 8004b16:	6923      	ldr	r3, [r4, #16]
 8004b18:	2b00      	cmp	r3, #0
 8004b1a:	d05a      	beq.n	8004bd2 <_vfiprintf_r+0xe2>
 8004b1c:	2300      	movs	r3, #0
 8004b1e:	9309      	str	r3, [sp, #36]	; 0x24
 8004b20:	2320      	movs	r3, #32
 8004b22:	f88d 3029 	strb.w	r3, [sp, #41]	; 0x29
 8004b26:	2330      	movs	r3, #48	; 0x30
 8004b28:	f88d 302a 	strb.w	r3, [sp, #42]	; 0x2a
 8004b2c:	f04f 0b01 	mov.w	fp, #1
 8004b30:	46b8      	mov	r8, r7
 8004b32:	4645      	mov	r5, r8
 8004b34:	f815 3b01 	ldrb.w	r3, [r5], #1
 8004b38:	2b00      	cmp	r3, #0
 8004b3a:	d155      	bne.n	8004be8 <_vfiprintf_r+0xf8>
 8004b3c:	ebb8 0a07 	subs.w	sl, r8, r7
 8004b40:	d00b      	beq.n	8004b5a <_vfiprintf_r+0x6a>
 8004b42:	4653      	mov	r3, sl
 8004b44:	463a      	mov	r2, r7
 8004b46:	4621      	mov	r1, r4
 8004b48:	4630      	mov	r0, r6
 8004b4a:	f7ff ffbf 	bl	8004acc <__sfputs_r>
 8004b4e:	3001      	adds	r0, #1
 8004b50:	f000 80c4 	beq.w	8004cdc <_vfiprintf_r+0x1ec>
 8004b54:	9b09      	ldr	r3, [sp, #36]	; 0x24
 8004b56:	4453      	add	r3, sl
 8004b58:	9309      	str	r3, [sp, #36]	; 0x24
 8004b5a:	f898 3000 	ldrb.w	r3, [r8]
 8004b5e:	2b00      	cmp	r3, #0
 8004b60:	f000 80bc 	beq.w	8004cdc <_vfiprintf_r+0x1ec>
 8004b64:	2300      	movs	r3, #0
 8004b66:	f04f 32ff 	mov.w	r2, #4294967295
 8004b6a:	9304      	str	r3, [sp, #16]
 8004b6c:	9307      	str	r3, [sp, #28]
 8004b6e:	9205      	str	r2, [sp, #20]
 8004b70:	9306      	str	r3, [sp, #24]
 8004b72:	f88d 3053 	strb.w	r3, [sp, #83]	; 0x53
 8004b76:	931a      	str	r3, [sp, #104]	; 0x68
 8004b78:	2205      	movs	r2, #5
 8004b7a:	7829      	ldrb	r1, [r5, #0]
 8004b7c:	4860      	ldr	r0, [pc, #384]	; (8004d00 <_vfiprintf_r+0x210>)
 8004b7e:	f7fb fb27 	bl	80001d0 <memchr>
 8004b82:	f105 0801 	add.w	r8, r5, #1
 8004b86:	9b04      	ldr	r3, [sp, #16]
 8004b88:	2800      	cmp	r0, #0
 8004b8a:	d131      	bne.n	8004bf0 <_vfiprintf_r+0x100>
 8004b8c:	06d9      	lsls	r1, r3, #27
 8004b8e:	bf44      	itt	mi
 8004b90:	2220      	movmi	r2, #32
 8004b92:	f88d 2053 	strbmi.w	r2, [sp, #83]	; 0x53
 8004b96:	071a      	lsls	r2, r3, #28
 8004b98:	bf44      	itt	mi
 8004b9a:	222b      	movmi	r2, #43	; 0x2b
 8004b9c:	f88d 2053 	strbmi.w	r2, [sp, #83]	; 0x53
 8004ba0:	782a      	ldrb	r2, [r5, #0]
 8004ba2:	2a2a      	cmp	r2, #42	; 0x2a
 8004ba4:	d02c      	beq.n	8004c00 <_vfiprintf_r+0x110>
 8004ba6:	9a07      	ldr	r2, [sp, #28]
 8004ba8:	2100      	movs	r1, #0
 8004baa:	200a      	movs	r0, #10
 8004bac:	46a8      	mov	r8, r5
 8004bae:	3501      	adds	r5, #1
 8004bb0:	f898 3000 	ldrb.w	r3, [r8]
 8004bb4:	3b30      	subs	r3, #48	; 0x30
 8004bb6:	2b09      	cmp	r3, #9
 8004bb8:	d96d      	bls.n	8004c96 <_vfiprintf_r+0x1a6>
 8004bba:	b371      	cbz	r1, 8004c1a <_vfiprintf_r+0x12a>
 8004bbc:	e026      	b.n	8004c0c <_vfiprintf_r+0x11c>
 8004bbe:	4b51      	ldr	r3, [pc, #324]	; (8004d04 <_vfiprintf_r+0x214>)
 8004bc0:	429c      	cmp	r4, r3
 8004bc2:	d101      	bne.n	8004bc8 <_vfiprintf_r+0xd8>
 8004bc4:	68b4      	ldr	r4, [r6, #8]
 8004bc6:	e7a3      	b.n	8004b10 <_vfiprintf_r+0x20>
 8004bc8:	4b4f      	ldr	r3, [pc, #316]	; (8004d08 <_vfiprintf_r+0x218>)
 8004bca:	429c      	cmp	r4, r3
 8004bcc:	bf08      	it	eq
 8004bce:	68f4      	ldreq	r4, [r6, #12]
 8004bd0:	e79e      	b.n	8004b10 <_vfiprintf_r+0x20>
 8004bd2:	4621      	mov	r1, r4
 8004bd4:	4630      	mov	r0, r6
 8004bd6:	f7ff fc67 	bl	80044a8 <__swsetup_r>
 8004bda:	2800      	cmp	r0, #0
 8004bdc:	d09e      	beq.n	8004b1c <_vfiprintf_r+0x2c>
 8004bde:	f04f 30ff 	mov.w	r0, #4294967295
 8004be2:	b01d      	add	sp, #116	; 0x74
 8004be4:	e8bd 8ff0 	ldmia.w	sp!, {r4, r5, r6, r7, r8, r9, sl, fp, pc}
 8004be8:	2b25      	cmp	r3, #37	; 0x25
 8004bea:	d0a7      	beq.n	8004b3c <_vfiprintf_r+0x4c>
 8004bec:	46a8      	mov	r8, r5
 8004bee:	e7a0      	b.n	8004b32 <_vfiprintf_r+0x42>
 8004bf0:	4a43      	ldr	r2, [pc, #268]	; (8004d00 <_vfiprintf_r+0x210>)
 8004bf2:	1a80      	subs	r0, r0, r2
 8004bf4:	fa0b f000 	lsl.w	r0, fp, r0
 8004bf8:	4318      	orrs	r0, r3
 8004bfa:	9004      	str	r0, [sp, #16]
 8004bfc:	4645      	mov	r5, r8
 8004bfe:	e7bb      	b.n	8004b78 <_vfiprintf_r+0x88>
 8004c00:	9a03      	ldr	r2, [sp, #12]
 8004c02:	1d11      	adds	r1, r2, #4
 8004c04:	6812      	ldr	r2, [r2, #0]
 8004c06:	9103      	str	r1, [sp, #12]
 8004c08:	2a00      	cmp	r2, #0
 8004c0a:	db01      	blt.n	8004c10 <_vfiprintf_r+0x120>
 8004c0c:	9207      	str	r2, [sp, #28]
 8004c0e:	e004      	b.n	8004c1a <_vfiprintf_r+0x12a>
 8004c10:	4252      	negs	r2, r2
 8004c12:	f043 0302 	orr.w	r3, r3, #2
 8004c16:	9207      	str	r2, [sp, #28]
 8004c18:	9304      	str	r3, [sp, #16]
 8004c1a:	f898 3000 	ldrb.w	r3, [r8]
 8004c1e:	2b2e      	cmp	r3, #46	; 0x2e
 8004c20:	d110      	bne.n	8004c44 <_vfiprintf_r+0x154>
 8004c22:	f898 3001 	ldrb.w	r3, [r8, #1]
 8004c26:	2b2a      	cmp	r3, #42	; 0x2a
 8004c28:	f108 0101 	add.w	r1, r8, #1
 8004c2c:	d137      	bne.n	8004c9e <_vfiprintf_r+0x1ae>
 8004c2e:	9b03      	ldr	r3, [sp, #12]
 8004c30:	1d1a      	adds	r2, r3, #4
 8004c32:	681b      	ldr	r3, [r3, #0]
 8004c34:	9203      	str	r2, [sp, #12]
 8004c36:	2b00      	cmp	r3, #0
 8004c38:	bfb8      	it	lt
 8004c3a:	f04f 33ff 	movlt.w	r3, #4294967295
 8004c3e:	f108 0802 	add.w	r8, r8, #2
 8004c42:	9305      	str	r3, [sp, #20]
 8004c44:	4d31      	ldr	r5, [pc, #196]	; (8004d0c <_vfiprintf_r+0x21c>)
 8004c46:	f898 1000 	ldrb.w	r1, [r8]
 8004c4a:	2203      	movs	r2, #3
 8004c4c:	4628      	mov	r0, r5
 8004c4e:	f7fb fabf 	bl	80001d0 <memchr>
 8004c52:	b140      	cbz	r0, 8004c66 <_vfiprintf_r+0x176>
 8004c54:	2340      	movs	r3, #64	; 0x40
 8004c56:	1b40      	subs	r0, r0, r5
 8004c58:	fa03 f000 	lsl.w	r0, r3, r0
 8004c5c:	9b04      	ldr	r3, [sp, #16]
 8004c5e:	4303      	orrs	r3, r0
 8004c60:	9304      	str	r3, [sp, #16]
 8004c62:	f108 0801 	add.w	r8, r8, #1
 8004c66:	f898 1000 	ldrb.w	r1, [r8]
 8004c6a:	4829      	ldr	r0, [pc, #164]	; (8004d10 <_vfiprintf_r+0x220>)
 8004c6c:	f88d 1028 	strb.w	r1, [sp, #40]	; 0x28
 8004c70:	2206      	movs	r2, #6
 8004c72:	f108 0701 	add.w	r7, r8, #1
 8004c76:	f7fb faab 	bl	80001d0 <memchr>
 8004c7a:	2800      	cmp	r0, #0
 8004c7c:	d034      	beq.n	8004ce8 <_vfiprintf_r+0x1f8>
 8004c7e:	4b25      	ldr	r3, [pc, #148]	; (8004d14 <_vfiprintf_r+0x224>)
 8004c80:	bb03      	cbnz	r3, 8004cc4 <_vfiprintf_r+0x1d4>
 8004c82:	9b03      	ldr	r3, [sp, #12]
 8004c84:	3307      	adds	r3, #7
 8004c86:	f023 0307 	bic.w	r3, r3, #7
 8004c8a:	3308      	adds	r3, #8
 8004c8c:	9303      	str	r3, [sp, #12]
 8004c8e:	9b09      	ldr	r3, [sp, #36]	; 0x24
 8004c90:	444b      	add	r3, r9
 8004c92:	9309      	str	r3, [sp, #36]	; 0x24
 8004c94:	e74c      	b.n	8004b30 <_vfiprintf_r+0x40>
 8004c96:	fb00 3202 	mla	r2, r0, r2, r3
 8004c9a:	2101      	movs	r1, #1
 8004c9c:	e786      	b.n	8004bac <_vfiprintf_r+0xbc>
 8004c9e:	2300      	movs	r3, #0
 8004ca0:	9305      	str	r3, [sp, #20]
 8004ca2:	4618      	mov	r0, r3
 8004ca4:	250a      	movs	r5, #10
 8004ca6:	4688      	mov	r8, r1
 8004ca8:	3101      	adds	r1, #1
 8004caa:	f898 2000 	ldrb.w	r2, [r8]
 8004cae:	3a30      	subs	r2, #48	; 0x30
 8004cb0:	2a09      	cmp	r2, #9
 8004cb2:	d903      	bls.n	8004cbc <_vfiprintf_r+0x1cc>
 8004cb4:	2b00      	cmp	r3, #0
 8004cb6:	d0c5      	beq.n	8004c44 <_vfiprintf_r+0x154>
 8004cb8:	9005      	str	r0, [sp, #20]
 8004cba:	e7c3      	b.n	8004c44 <_vfiprintf_r+0x154>
 8004cbc:	fb05 2000 	mla	r0, r5, r0, r2
 8004cc0:	2301      	movs	r3, #1
 8004cc2:	e7f0      	b.n	8004ca6 <_vfiprintf_r+0x1b6>
 8004cc4:	ab03      	add	r3, sp, #12
 8004cc6:	9300      	str	r3, [sp, #0]
 8004cc8:	4622      	mov	r2, r4
 8004cca:	4b13      	ldr	r3, [pc, #76]	; (8004d18 <_vfiprintf_r+0x228>)
 8004ccc:	a904      	add	r1, sp, #16
 8004cce:	4630      	mov	r0, r6
 8004cd0:	f3af 8000 	nop.w
 8004cd4:	f1b0 3fff 	cmp.w	r0, #4294967295
 8004cd8:	4681      	mov	r9, r0
 8004cda:	d1d8      	bne.n	8004c8e <_vfiprintf_r+0x19e>
 8004cdc:	89a3      	ldrh	r3, [r4, #12]
 8004cde:	065b      	lsls	r3, r3, #25
 8004ce0:	f53f af7d 	bmi.w	8004bde <_vfiprintf_r+0xee>
 8004ce4:	9809      	ldr	r0, [sp, #36]	; 0x24
 8004ce6:	e77c      	b.n	8004be2 <_vfiprintf_r+0xf2>
 8004ce8:	ab03      	add	r3, sp, #12
 8004cea:	9300      	str	r3, [sp, #0]
 8004cec:	4622      	mov	r2, r4
 8004cee:	4b0a      	ldr	r3, [pc, #40]	; (8004d18 <_vfiprintf_r+0x228>)
 8004cf0:	a904      	add	r1, sp, #16
 8004cf2:	4630      	mov	r0, r6
 8004cf4:	f000 f888 	bl	8004e08 <_printf_i>
 8004cf8:	e7ec      	b.n	8004cd4 <_vfiprintf_r+0x1e4>
 8004cfa:	bf00      	nop
 8004cfc:	08005338 	.word	0x08005338
 8004d00:	0800537c 	.word	0x0800537c
 8004d04:	08005358 	.word	0x08005358
 8004d08:	08005318 	.word	0x08005318
 8004d0c:	08005382 	.word	0x08005382
 8004d10:	08005386 	.word	0x08005386
 8004d14:	00000000 	.word	0x00000000
 8004d18:	08004acd 	.word	0x08004acd

08004d1c <_printf_common>:
 8004d1c:	e92d 47f0 	stmdb	sp!, {r4, r5, r6, r7, r8, r9, sl, lr}
 8004d20:	4691      	mov	r9, r2
 8004d22:	461f      	mov	r7, r3
 8004d24:	688a      	ldr	r2, [r1, #8]
 8004d26:	690b      	ldr	r3, [r1, #16]
 8004d28:	f8dd 8020 	ldr.w	r8, [sp, #32]
 8004d2c:	4293      	cmp	r3, r2
 8004d2e:	bfb8      	it	lt
 8004d30:	4613      	movlt	r3, r2
 8004d32:	f8c9 3000 	str.w	r3, [r9]
 8004d36:	f891 2043 	ldrb.w	r2, [r1, #67]	; 0x43
 8004d3a:	4606      	mov	r6, r0
 8004d3c:	460c      	mov	r4, r1
 8004d3e:	b112      	cbz	r2, 8004d46 <_printf_common+0x2a>
 8004d40:	3301      	adds	r3, #1
 8004d42:	f8c9 3000 	str.w	r3, [r9]
 8004d46:	6823      	ldr	r3, [r4, #0]
 8004d48:	0699      	lsls	r1, r3, #26
 8004d4a:	bf42      	ittt	mi
 8004d4c:	f8d9 3000 	ldrmi.w	r3, [r9]
 8004d50:	3302      	addmi	r3, #2
 8004d52:	f8c9 3000 	strmi.w	r3, [r9]
 8004d56:	6825      	ldr	r5, [r4, #0]
 8004d58:	f015 0506 	ands.w	r5, r5, #6
 8004d5c:	d107      	bne.n	8004d6e <_printf_common+0x52>
 8004d5e:	f104 0a19 	add.w	sl, r4, #25
 8004d62:	68e3      	ldr	r3, [r4, #12]
 8004d64:	f8d9 2000 	ldr.w	r2, [r9]
 8004d68:	1a9b      	subs	r3, r3, r2
 8004d6a:	429d      	cmp	r5, r3
 8004d6c:	db29      	blt.n	8004dc2 <_printf_common+0xa6>
 8004d6e:	f894 3043 	ldrb.w	r3, [r4, #67]	; 0x43
 8004d72:	6822      	ldr	r2, [r4, #0]
 8004d74:	3300      	adds	r3, #0
 8004d76:	bf18      	it	ne
 8004d78:	2301      	movne	r3, #1
 8004d7a:	0692      	lsls	r2, r2, #26
 8004d7c:	d42e      	bmi.n	8004ddc <_printf_common+0xc0>
 8004d7e:	f104 0243 	add.w	r2, r4, #67	; 0x43
 8004d82:	4639      	mov	r1, r7
 8004d84:	4630      	mov	r0, r6
 8004d86:	47c0      	blx	r8
 8004d88:	3001      	adds	r0, #1
 8004d8a:	d021      	beq.n	8004dd0 <_printf_common+0xb4>
 8004d8c:	6823      	ldr	r3, [r4, #0]
 8004d8e:	68e5      	ldr	r5, [r4, #12]
 8004d90:	f8d9 2000 	ldr.w	r2, [r9]
 8004d94:	f003 0306 	and.w	r3, r3, #6
 8004d98:	2b04      	cmp	r3, #4
 8004d9a:	bf08      	it	eq
 8004d9c:	1aad      	subeq	r5, r5, r2
 8004d9e:	68a3      	ldr	r3, [r4, #8]
 8004da0:	6922      	ldr	r2, [r4, #16]
 8004da2:	bf0c      	ite	eq
 8004da4:	ea25 75e5 	biceq.w	r5, r5, r5, asr #31
 8004da8:	2500      	movne	r5, #0
 8004daa:	4293      	cmp	r3, r2
 8004dac:	bfc4      	itt	gt
 8004dae:	1a9b      	subgt	r3, r3, r2
 8004db0:	18ed      	addgt	r5, r5, r3
 8004db2:	f04f 0900 	mov.w	r9, #0
 8004db6:	341a      	adds	r4, #26
 8004db8:	454d      	cmp	r5, r9
 8004dba:	d11b      	bne.n	8004df4 <_printf_common+0xd8>
 8004dbc:	2000      	movs	r0, #0
 8004dbe:	e8bd 87f0 	ldmia.w	sp!, {r4, r5, r6, r7, r8, r9, sl, pc}
 8004dc2:	2301      	movs	r3, #1
 8004dc4:	4652      	mov	r2, sl
 8004dc6:	4639      	mov	r1, r7
 8004dc8:	4630      	mov	r0, r6
 8004dca:	47c0      	blx	r8
 8004dcc:	3001      	adds	r0, #1
 8004dce:	d103      	bne.n	8004dd8 <_printf_common+0xbc>
 8004dd0:	f04f 30ff 	mov.w	r0, #4294967295
 8004dd4:	e8bd 87f0 	ldmia.w	sp!, {r4, r5, r6, r7, r8, r9, sl, pc}
 8004dd8:	3501      	adds	r5, #1
 8004dda:	e7c2      	b.n	8004d62 <_printf_common+0x46>
 8004ddc:	18e1      	adds	r1, r4, r3
 8004dde:	1c5a      	adds	r2, r3, #1
 8004de0:	2030      	movs	r0, #48	; 0x30
 8004de2:	f881 0043 	strb.w	r0, [r1, #67]	; 0x43
 8004de6:	4422      	add	r2, r4
 8004de8:	f894 1045 	ldrb.w	r1, [r4, #69]	; 0x45
 8004dec:	f882 1043 	strb.w	r1, [r2, #67]	; 0x43
 8004df0:	3302      	adds	r3, #2
 8004df2:	e7c4      	b.n	8004d7e <_printf_common+0x62>
 8004df4:	2301      	movs	r3, #1
 8004df6:	4622      	mov	r2, r4
 8004df8:	4639      	mov	r1, r7
 8004dfa:	4630      	mov	r0, r6
 8004dfc:	47c0      	blx	r8
 8004dfe:	3001      	adds	r0, #1
 8004e00:	d0e6      	beq.n	8004dd0 <_printf_common+0xb4>
 8004e02:	f109 0901 	add.w	r9, r9, #1
 8004e06:	e7d7      	b.n	8004db8 <_printf_common+0x9c>

08004e08 <_printf_i>:
 8004e08:	e92d 43f0 	stmdb	sp!, {r4, r5, r6, r7, r8, r9, lr}
 8004e0c:	4617      	mov	r7, r2
 8004e0e:	7e0a      	ldrb	r2, [r1, #24]
 8004e10:	b085      	sub	sp, #20
 8004e12:	2a6e      	cmp	r2, #110	; 0x6e
 8004e14:	4698      	mov	r8, r3
 8004e16:	4606      	mov	r6, r0
 8004e18:	460c      	mov	r4, r1
 8004e1a:	9b0c      	ldr	r3, [sp, #48]	; 0x30
 8004e1c:	f101 0e43 	add.w	lr, r1, #67	; 0x43
 8004e20:	f000 80bc 	beq.w	8004f9c <_printf_i+0x194>
 8004e24:	d81a      	bhi.n	8004e5c <_printf_i+0x54>
 8004e26:	2a63      	cmp	r2, #99	; 0x63
 8004e28:	d02e      	beq.n	8004e88 <_printf_i+0x80>
 8004e2a:	d80a      	bhi.n	8004e42 <_printf_i+0x3a>
 8004e2c:	2a00      	cmp	r2, #0
 8004e2e:	f000 80c8 	beq.w	8004fc2 <_printf_i+0x1ba>
 8004e32:	2a58      	cmp	r2, #88	; 0x58
 8004e34:	f000 808a 	beq.w	8004f4c <_printf_i+0x144>
 8004e38:	f104 0542 	add.w	r5, r4, #66	; 0x42
 8004e3c:	f884 2042 	strb.w	r2, [r4, #66]	; 0x42
 8004e40:	e02a      	b.n	8004e98 <_printf_i+0x90>
 8004e42:	2a64      	cmp	r2, #100	; 0x64
 8004e44:	d001      	beq.n	8004e4a <_printf_i+0x42>
 8004e46:	2a69      	cmp	r2, #105	; 0x69
 8004e48:	d1f6      	bne.n	8004e38 <_printf_i+0x30>
 8004e4a:	6821      	ldr	r1, [r4, #0]
 8004e4c:	681a      	ldr	r2, [r3, #0]
 8004e4e:	f011 0f80 	tst.w	r1, #128	; 0x80
 8004e52:	d023      	beq.n	8004e9c <_printf_i+0x94>
 8004e54:	1d11      	adds	r1, r2, #4
 8004e56:	6019      	str	r1, [r3, #0]
 8004e58:	6813      	ldr	r3, [r2, #0]
 8004e5a:	e027      	b.n	8004eac <_printf_i+0xa4>
 8004e5c:	2a73      	cmp	r2, #115	; 0x73
 8004e5e:	f000 80b4 	beq.w	8004fca <_printf_i+0x1c2>
 8004e62:	d808      	bhi.n	8004e76 <_printf_i+0x6e>
 8004e64:	2a6f      	cmp	r2, #111	; 0x6f
 8004e66:	d02a      	beq.n	8004ebe <_printf_i+0xb6>
 8004e68:	2a70      	cmp	r2, #112	; 0x70
 8004e6a:	d1e5      	bne.n	8004e38 <_printf_i+0x30>
 8004e6c:	680a      	ldr	r2, [r1, #0]
 8004e6e:	f042 0220 	orr.w	r2, r2, #32
 8004e72:	600a      	str	r2, [r1, #0]
 8004e74:	e003      	b.n	8004e7e <_printf_i+0x76>
 8004e76:	2a75      	cmp	r2, #117	; 0x75
 8004e78:	d021      	beq.n	8004ebe <_printf_i+0xb6>
 8004e7a:	2a78      	cmp	r2, #120	; 0x78
 8004e7c:	d1dc      	bne.n	8004e38 <_printf_i+0x30>
 8004e7e:	2278      	movs	r2, #120	; 0x78
 8004e80:	f884 2045 	strb.w	r2, [r4, #69]	; 0x45
 8004e84:	496e      	ldr	r1, [pc, #440]	; (8005040 <_printf_i+0x238>)
 8004e86:	e064      	b.n	8004f52 <_printf_i+0x14a>
 8004e88:	681a      	ldr	r2, [r3, #0]
 8004e8a:	f101 0542 	add.w	r5, r1, #66	; 0x42
 8004e8e:	1d11      	adds	r1, r2, #4
 8004e90:	6019      	str	r1, [r3, #0]
 8004e92:	6813      	ldr	r3, [r2, #0]
 8004e94:	f884 3042 	strb.w	r3, [r4, #66]	; 0x42
 8004e98:	2301      	movs	r3, #1
 8004e9a:	e0a3      	b.n	8004fe4 <_printf_i+0x1dc>
 8004e9c:	f011 0f40 	tst.w	r1, #64	; 0x40
 8004ea0:	f102 0104 	add.w	r1, r2, #4
 8004ea4:	6019      	str	r1, [r3, #0]
 8004ea6:	d0d7      	beq.n	8004e58 <_printf_i+0x50>
 8004ea8:	f9b2 3000 	ldrsh.w	r3, [r2]
 8004eac:	2b00      	cmp	r3, #0
 8004eae:	da03      	bge.n	8004eb8 <_printf_i+0xb0>
 8004eb0:	222d      	movs	r2, #45	; 0x2d
 8004eb2:	425b      	negs	r3, r3
 8004eb4:	f884 2043 	strb.w	r2, [r4, #67]	; 0x43
 8004eb8:	4962      	ldr	r1, [pc, #392]	; (8005044 <_printf_i+0x23c>)
 8004eba:	220a      	movs	r2, #10
 8004ebc:	e017      	b.n	8004eee <_printf_i+0xe6>
 8004ebe:	6820      	ldr	r0, [r4, #0]
 8004ec0:	6819      	ldr	r1, [r3, #0]
 8004ec2:	f010 0f80 	tst.w	r0, #128	; 0x80
 8004ec6:	d003      	beq.n	8004ed0 <_printf_i+0xc8>
 8004ec8:	1d08      	adds	r0, r1, #4
 8004eca:	6018      	str	r0, [r3, #0]
 8004ecc:	680b      	ldr	r3, [r1, #0]
 8004ece:	e006      	b.n	8004ede <_printf_i+0xd6>
 8004ed0:	f010 0f40 	tst.w	r0, #64	; 0x40
 8004ed4:	f101 0004 	add.w	r0, r1, #4
 8004ed8:	6018      	str	r0, [r3, #0]
 8004eda:	d0f7      	beq.n	8004ecc <_printf_i+0xc4>
 8004edc:	880b      	ldrh	r3, [r1, #0]
 8004ede:	4959      	ldr	r1, [pc, #356]	; (8005044 <_printf_i+0x23c>)
 8004ee0:	2a6f      	cmp	r2, #111	; 0x6f
 8004ee2:	bf14      	ite	ne
 8004ee4:	220a      	movne	r2, #10
 8004ee6:	2208      	moveq	r2, #8
 8004ee8:	2000      	movs	r0, #0
 8004eea:	f884 0043 	strb.w	r0, [r4, #67]	; 0x43
 8004eee:	6865      	ldr	r5, [r4, #4]
 8004ef0:	60a5      	str	r5, [r4, #8]
 8004ef2:	2d00      	cmp	r5, #0
 8004ef4:	f2c0 809c 	blt.w	8005030 <_printf_i+0x228>
 8004ef8:	6820      	ldr	r0, [r4, #0]
 8004efa:	f020 0004 	bic.w	r0, r0, #4
 8004efe:	6020      	str	r0, [r4, #0]
 8004f00:	2b00      	cmp	r3, #0
 8004f02:	d13f      	bne.n	8004f84 <_printf_i+0x17c>
 8004f04:	2d00      	cmp	r5, #0
 8004f06:	f040 8095 	bne.w	8005034 <_printf_i+0x22c>
 8004f0a:	4675      	mov	r5, lr
 8004f0c:	2a08      	cmp	r2, #8
 8004f0e:	d10b      	bne.n	8004f28 <_printf_i+0x120>
 8004f10:	6823      	ldr	r3, [r4, #0]
 8004f12:	07da      	lsls	r2, r3, #31
 8004f14:	d508      	bpl.n	8004f28 <_printf_i+0x120>
 8004f16:	6923      	ldr	r3, [r4, #16]
 8004f18:	6862      	ldr	r2, [r4, #4]
 8004f1a:	429a      	cmp	r2, r3
 8004f1c:	bfde      	ittt	le
 8004f1e:	2330      	movle	r3, #48	; 0x30
 8004f20:	f805 3c01 	strble.w	r3, [r5, #-1]
 8004f24:	f105 35ff 	addle.w	r5, r5, #4294967295
 8004f28:	ebae 0305 	sub.w	r3, lr, r5
 8004f2c:	6123      	str	r3, [r4, #16]
 8004f2e:	f8cd 8000 	str.w	r8, [sp]
 8004f32:	463b      	mov	r3, r7
 8004f34:	aa03      	add	r2, sp, #12
 8004f36:	4621      	mov	r1, r4
 8004f38:	4630      	mov	r0, r6
 8004f3a:	f7ff feef 	bl	8004d1c <_printf_common>
 8004f3e:	3001      	adds	r0, #1
 8004f40:	d155      	bne.n	8004fee <_printf_i+0x1e6>
 8004f42:	f04f 30ff 	mov.w	r0, #4294967295
 8004f46:	b005      	add	sp, #20
 8004f48:	e8bd 83f0 	ldmia.w	sp!, {r4, r5, r6, r7, r8, r9, pc}
 8004f4c:	f881 2045 	strb.w	r2, [r1, #69]	; 0x45
 8004f50:	493c      	ldr	r1, [pc, #240]	; (8005044 <_printf_i+0x23c>)
 8004f52:	6822      	ldr	r2, [r4, #0]
 8004f54:	6818      	ldr	r0, [r3, #0]
 8004f56:	f012 0f80 	tst.w	r2, #128	; 0x80
 8004f5a:	f100 0504 	add.w	r5, r0, #4
 8004f5e:	601d      	str	r5, [r3, #0]
 8004f60:	d001      	beq.n	8004f66 <_printf_i+0x15e>
 8004f62:	6803      	ldr	r3, [r0, #0]
 8004f64:	e002      	b.n	8004f6c <_printf_i+0x164>
 8004f66:	0655      	lsls	r5, r2, #25
 8004f68:	d5fb      	bpl.n	8004f62 <_printf_i+0x15a>
 8004f6a:	8803      	ldrh	r3, [r0, #0]
 8004f6c:	07d0      	lsls	r0, r2, #31
 8004f6e:	bf44      	itt	mi
 8004f70:	f042 0220 	orrmi.w	r2, r2, #32
 8004f74:	6022      	strmi	r2, [r4, #0]
 8004f76:	b91b      	cbnz	r3, 8004f80 <_printf_i+0x178>
 8004f78:	6822      	ldr	r2, [r4, #0]
 8004f7a:	f022 0220 	bic.w	r2, r2, #32
 8004f7e:	6022      	str	r2, [r4, #0]
 8004f80:	2210      	movs	r2, #16
 8004f82:	e7b1      	b.n	8004ee8 <_printf_i+0xe0>
 8004f84:	4675      	mov	r5, lr
 8004f86:	fbb3 f0f2 	udiv	r0, r3, r2
 8004f8a:	fb02 3310 	mls	r3, r2, r0, r3
 8004f8e:	5ccb      	ldrb	r3, [r1, r3]
 8004f90:	f805 3d01 	strb.w	r3, [r5, #-1]!
 8004f94:	4603      	mov	r3, r0
 8004f96:	2800      	cmp	r0, #0
 8004f98:	d1f5      	bne.n	8004f86 <_printf_i+0x17e>
 8004f9a:	e7b7      	b.n	8004f0c <_printf_i+0x104>
 8004f9c:	6808      	ldr	r0, [r1, #0]
 8004f9e:	681a      	ldr	r2, [r3, #0]
 8004fa0:	6949      	ldr	r1, [r1, #20]
 8004fa2:	f010 0f80 	tst.w	r0, #128	; 0x80
 8004fa6:	d004      	beq.n	8004fb2 <_printf_i+0x1aa>
 8004fa8:	1d10      	adds	r0, r2, #4
 8004faa:	6018      	str	r0, [r3, #0]
 8004fac:	6813      	ldr	r3, [r2, #0]
 8004fae:	6019      	str	r1, [r3, #0]
 8004fb0:	e007      	b.n	8004fc2 <_printf_i+0x1ba>
 8004fb2:	f010 0f40 	tst.w	r0, #64	; 0x40
 8004fb6:	f102 0004 	add.w	r0, r2, #4
 8004fba:	6018      	str	r0, [r3, #0]
 8004fbc:	6813      	ldr	r3, [r2, #0]
 8004fbe:	d0f6      	beq.n	8004fae <_printf_i+0x1a6>
 8004fc0:	8019      	strh	r1, [r3, #0]
 8004fc2:	2300      	movs	r3, #0
 8004fc4:	6123      	str	r3, [r4, #16]
 8004fc6:	4675      	mov	r5, lr
 8004fc8:	e7b1      	b.n	8004f2e <_printf_i+0x126>
 8004fca:	681a      	ldr	r2, [r3, #0]
 8004fcc:	1d11      	adds	r1, r2, #4
 8004fce:	6019      	str	r1, [r3, #0]
 8004fd0:	6815      	ldr	r5, [r2, #0]
 8004fd2:	6862      	ldr	r2, [r4, #4]
 8004fd4:	2100      	movs	r1, #0
 8004fd6:	4628      	mov	r0, r5
 8004fd8:	f7fb f8fa 	bl	80001d0 <memchr>
 8004fdc:	b108      	cbz	r0, 8004fe2 <_printf_i+0x1da>
 8004fde:	1b40      	subs	r0, r0, r5
 8004fe0:	6060      	str	r0, [r4, #4]
 8004fe2:	6863      	ldr	r3, [r4, #4]
 8004fe4:	6123      	str	r3, [r4, #16]
 8004fe6:	2300      	movs	r3, #0
 8004fe8:	f884 3043 	strb.w	r3, [r4, #67]	; 0x43
 8004fec:	e79f      	b.n	8004f2e <_printf_i+0x126>
 8004fee:	6923      	ldr	r3, [r4, #16]
 8004ff0:	462a      	mov	r2, r5
 8004ff2:	4639      	mov	r1, r7
 8004ff4:	4630      	mov	r0, r6
 8004ff6:	47c0      	blx	r8
 8004ff8:	3001      	adds	r0, #1
 8004ffa:	d0a2      	beq.n	8004f42 <_printf_i+0x13a>
 8004ffc:	6823      	ldr	r3, [r4, #0]
 8004ffe:	079b      	lsls	r3, r3, #30
 8005000:	d507      	bpl.n	8005012 <_printf_i+0x20a>
 8005002:	2500      	movs	r5, #0
 8005004:	f104 0919 	add.w	r9, r4, #25
 8005008:	68e3      	ldr	r3, [r4, #12]
 800500a:	9a03      	ldr	r2, [sp, #12]
 800500c:	1a9b      	subs	r3, r3, r2
 800500e:	429d      	cmp	r5, r3
 8005010:	db05      	blt.n	800501e <_printf_i+0x216>
 8005012:	68e0      	ldr	r0, [r4, #12]
 8005014:	9b03      	ldr	r3, [sp, #12]
 8005016:	4298      	cmp	r0, r3
 8005018:	bfb8      	it	lt
 800501a:	4618      	movlt	r0, r3
 800501c:	e793      	b.n	8004f46 <_printf_i+0x13e>
 800501e:	2301      	movs	r3, #1
 8005020:	464a      	mov	r2, r9
 8005022:	4639      	mov	r1, r7
 8005024:	4630      	mov	r0, r6
 8005026:	47c0      	blx	r8
 8005028:	3001      	adds	r0, #1
 800502a:	d08a      	beq.n	8004f42 <_printf_i+0x13a>
 800502c:	3501      	adds	r5, #1
 800502e:	e7eb      	b.n	8005008 <_printf_i+0x200>
 8005030:	2b00      	cmp	r3, #0
 8005032:	d1a7      	bne.n	8004f84 <_printf_i+0x17c>
 8005034:	780b      	ldrb	r3, [r1, #0]
 8005036:	f884 3042 	strb.w	r3, [r4, #66]	; 0x42
 800503a:	f104 0542 	add.w	r5, r4, #66	; 0x42
 800503e:	e765      	b.n	8004f0c <_printf_i+0x104>
 8005040:	0800539e 	.word	0x0800539e
 8005044:	0800538d 	.word	0x0800538d

08005048 <_sbrk_r>:
 8005048:	b538      	push	{r3, r4, r5, lr}
 800504a:	4c06      	ldr	r4, [pc, #24]	; (8005064 <_sbrk_r+0x1c>)
 800504c:	2300      	movs	r3, #0
 800504e:	4605      	mov	r5, r0
 8005050:	4608      	mov	r0, r1
 8005052:	6023      	str	r3, [r4, #0]
 8005054:	f000 f8de 	bl	8005214 <_sbrk>
 8005058:	1c43      	adds	r3, r0, #1
 800505a:	d102      	bne.n	8005062 <_sbrk_r+0x1a>
 800505c:	6823      	ldr	r3, [r4, #0]
 800505e:	b103      	cbz	r3, 8005062 <_sbrk_r+0x1a>
 8005060:	602b      	str	r3, [r5, #0]
 8005062:	bd38      	pop	{r3, r4, r5, pc}
 8005064:	2000028c 	.word	0x2000028c

08005068 <__sread>:
 8005068:	b510      	push	{r4, lr}
 800506a:	460c      	mov	r4, r1
 800506c:	f9b1 100e 	ldrsh.w	r1, [r1, #14]
 8005070:	f000 f896 	bl	80051a0 <_read_r>
 8005074:	2800      	cmp	r0, #0
 8005076:	bfab      	itete	ge
 8005078:	6d63      	ldrge	r3, [r4, #84]	; 0x54
 800507a:	89a3      	ldrhlt	r3, [r4, #12]
 800507c:	181b      	addge	r3, r3, r0
 800507e:	f423 5380 	biclt.w	r3, r3, #4096	; 0x1000
 8005082:	bfac      	ite	ge
 8005084:	6563      	strge	r3, [r4, #84]	; 0x54
 8005086:	81a3      	strhlt	r3, [r4, #12]
 8005088:	bd10      	pop	{r4, pc}

0800508a <__swrite>:
 800508a:	e92d 41f0 	stmdb	sp!, {r4, r5, r6, r7, r8, lr}
 800508e:	461f      	mov	r7, r3
 8005090:	898b      	ldrh	r3, [r1, #12]
 8005092:	05db      	lsls	r3, r3, #23
 8005094:	4605      	mov	r5, r0
 8005096:	460c      	mov	r4, r1
 8005098:	4616      	mov	r6, r2
 800509a:	d505      	bpl.n	80050a8 <__swrite+0x1e>
 800509c:	2302      	movs	r3, #2
 800509e:	2200      	movs	r2, #0
 80050a0:	f9b1 100e 	ldrsh.w	r1, [r1, #14]
 80050a4:	f000 f868 	bl	8005178 <_lseek_r>
 80050a8:	89a3      	ldrh	r3, [r4, #12]
 80050aa:	f9b4 100e 	ldrsh.w	r1, [r4, #14]
 80050ae:	f423 5380 	bic.w	r3, r3, #4096	; 0x1000
 80050b2:	81a3      	strh	r3, [r4, #12]
 80050b4:	4632      	mov	r2, r6
 80050b6:	463b      	mov	r3, r7
 80050b8:	4628      	mov	r0, r5
 80050ba:	e8bd 41f0 	ldmia.w	sp!, {r4, r5, r6, r7, r8, lr}
 80050be:	f000 b817 	b.w	80050f0 <_write_r>

080050c2 <__sseek>:
 80050c2:	b510      	push	{r4, lr}
 80050c4:	460c      	mov	r4, r1
 80050c6:	f9b1 100e 	ldrsh.w	r1, [r1, #14]
 80050ca:	f000 f855 	bl	8005178 <_lseek_r>
 80050ce:	1c43      	adds	r3, r0, #1
 80050d0:	89a3      	ldrh	r3, [r4, #12]
 80050d2:	bf15      	itete	ne
 80050d4:	6560      	strne	r0, [r4, #84]	; 0x54
 80050d6:	f423 5380 	biceq.w	r3, r3, #4096	; 0x1000
 80050da:	f443 5380 	orrne.w	r3, r3, #4096	; 0x1000
 80050de:	81a3      	strheq	r3, [r4, #12]
 80050e0:	bf18      	it	ne
 80050e2:	81a3      	strhne	r3, [r4, #12]
 80050e4:	bd10      	pop	{r4, pc}

080050e6 <__sclose>:
 80050e6:	f9b1 100e 	ldrsh.w	r1, [r1, #14]
 80050ea:	f000 b813 	b.w	8005114 <_close_r>
	...

080050f0 <_write_r>:
 80050f0:	b538      	push	{r3, r4, r5, lr}
 80050f2:	4c07      	ldr	r4, [pc, #28]	; (8005110 <_write_r+0x20>)
 80050f4:	4605      	mov	r5, r0
 80050f6:	4608      	mov	r0, r1
 80050f8:	4611      	mov	r1, r2
 80050fa:	2200      	movs	r2, #0
 80050fc:	6022      	str	r2, [r4, #0]
 80050fe:	461a      	mov	r2, r3
 8005100:	f7fe fc7c 	bl	80039fc <_write>
 8005104:	1c43      	adds	r3, r0, #1
 8005106:	d102      	bne.n	800510e <_write_r+0x1e>
 8005108:	6823      	ldr	r3, [r4, #0]
 800510a:	b103      	cbz	r3, 800510e <_write_r+0x1e>
 800510c:	602b      	str	r3, [r5, #0]
 800510e:	bd38      	pop	{r3, r4, r5, pc}
 8005110:	2000028c 	.word	0x2000028c

08005114 <_close_r>:
 8005114:	b538      	push	{r3, r4, r5, lr}
 8005116:	4c06      	ldr	r4, [pc, #24]	; (8005130 <_close_r+0x1c>)
 8005118:	2300      	movs	r3, #0
 800511a:	4605      	mov	r5, r0
 800511c:	4608      	mov	r0, r1
 800511e:	6023      	str	r3, [r4, #0]
 8005120:	f000 f850 	bl	80051c4 <_close>
 8005124:	1c43      	adds	r3, r0, #1
 8005126:	d102      	bne.n	800512e <_close_r+0x1a>
 8005128:	6823      	ldr	r3, [r4, #0]
 800512a:	b103      	cbz	r3, 800512e <_close_r+0x1a>
 800512c:	602b      	str	r3, [r5, #0]
 800512e:	bd38      	pop	{r3, r4, r5, pc}
 8005130:	2000028c 	.word	0x2000028c

08005134 <_fstat_r>:
 8005134:	b538      	push	{r3, r4, r5, lr}
 8005136:	4c07      	ldr	r4, [pc, #28]	; (8005154 <_fstat_r+0x20>)
 8005138:	2300      	movs	r3, #0
 800513a:	4605      	mov	r5, r0
 800513c:	4608      	mov	r0, r1
 800513e:	4611      	mov	r1, r2
 8005140:	6023      	str	r3, [r4, #0]
 8005142:	f000 f847 	bl	80051d4 <_fstat>
 8005146:	1c43      	adds	r3, r0, #1
 8005148:	d102      	bne.n	8005150 <_fstat_r+0x1c>
 800514a:	6823      	ldr	r3, [r4, #0]
 800514c:	b103      	cbz	r3, 8005150 <_fstat_r+0x1c>
 800514e:	602b      	str	r3, [r5, #0]
 8005150:	bd38      	pop	{r3, r4, r5, pc}
 8005152:	bf00      	nop
 8005154:	2000028c 	.word	0x2000028c

08005158 <_isatty_r>:
 8005158:	b538      	push	{r3, r4, r5, lr}
 800515a:	4c06      	ldr	r4, [pc, #24]	; (8005174 <_isatty_r+0x1c>)
 800515c:	2300      	movs	r3, #0
 800515e:	4605      	mov	r5, r0
 8005160:	4608      	mov	r0, r1
 8005162:	6023      	str	r3, [r4, #0]
 8005164:	f000 f83e 	bl	80051e4 <_isatty>
 8005168:	1c43      	adds	r3, r0, #1
 800516a:	d102      	bne.n	8005172 <_isatty_r+0x1a>
 800516c:	6823      	ldr	r3, [r4, #0]
 800516e:	b103      	cbz	r3, 8005172 <_isatty_r+0x1a>
 8005170:	602b      	str	r3, [r5, #0]
 8005172:	bd38      	pop	{r3, r4, r5, pc}
 8005174:	2000028c 	.word	0x2000028c

08005178 <_lseek_r>:
 8005178:	b538      	push	{r3, r4, r5, lr}
 800517a:	4c07      	ldr	r4, [pc, #28]	; (8005198 <_lseek_r+0x20>)
 800517c:	4605      	mov	r5, r0
 800517e:	4608      	mov	r0, r1
 8005180:	4611      	mov	r1, r2
 8005182:	2200      	movs	r2, #0
 8005184:	6022      	str	r2, [r4, #0]
 8005186:	461a      	mov	r2, r3
 8005188:	f000 f834 	bl	80051f4 <_lseek>
 800518c:	1c43      	adds	r3, r0, #1
 800518e:	d102      	bne.n	8005196 <_lseek_r+0x1e>
 8005190:	6823      	ldr	r3, [r4, #0]
 8005192:	b103      	cbz	r3, 8005196 <_lseek_r+0x1e>
 8005194:	602b      	str	r3, [r5, #0]
 8005196:	bd38      	pop	{r3, r4, r5, pc}
 8005198:	2000028c 	.word	0x2000028c

0800519c <__malloc_lock>:
 800519c:	4770      	bx	lr

0800519e <__malloc_unlock>:
 800519e:	4770      	bx	lr

080051a0 <_read_r>:
 80051a0:	b538      	push	{r3, r4, r5, lr}
 80051a2:	4c07      	ldr	r4, [pc, #28]	; (80051c0 <_read_r+0x20>)
 80051a4:	4605      	mov	r5, r0
 80051a6:	4608      	mov	r0, r1
 80051a8:	4611      	mov	r1, r2
 80051aa:	2200      	movs	r2, #0
 80051ac:	6022      	str	r2, [r4, #0]
 80051ae:	461a      	mov	r2, r3
 80051b0:	f000 f828 	bl	8005204 <_read>
 80051b4:	1c43      	adds	r3, r0, #1
 80051b6:	d102      	bne.n	80051be <_read_r+0x1e>
 80051b8:	6823      	ldr	r3, [r4, #0]
 80051ba:	b103      	cbz	r3, 80051be <_read_r+0x1e>
 80051bc:	602b      	str	r3, [r5, #0]
 80051be:	bd38      	pop	{r3, r4, r5, pc}
 80051c0:	2000028c 	.word	0x2000028c

080051c4 <_close>:
 80051c4:	4b02      	ldr	r3, [pc, #8]	; (80051d0 <_close+0xc>)
 80051c6:	2258      	movs	r2, #88	; 0x58
 80051c8:	601a      	str	r2, [r3, #0]
 80051ca:	f04f 30ff 	mov.w	r0, #4294967295
 80051ce:	4770      	bx	lr
 80051d0:	2000028c 	.word	0x2000028c

080051d4 <_fstat>:
 80051d4:	4b02      	ldr	r3, [pc, #8]	; (80051e0 <_fstat+0xc>)
 80051d6:	2258      	movs	r2, #88	; 0x58
 80051d8:	601a      	str	r2, [r3, #0]
 80051da:	f04f 30ff 	mov.w	r0, #4294967295
 80051de:	4770      	bx	lr
 80051e0:	2000028c 	.word	0x2000028c

080051e4 <_isatty>:
 80051e4:	4b02      	ldr	r3, [pc, #8]	; (80051f0 <_isatty+0xc>)
 80051e6:	2258      	movs	r2, #88	; 0x58
 80051e8:	601a      	str	r2, [r3, #0]
 80051ea:	2000      	movs	r0, #0
 80051ec:	4770      	bx	lr
 80051ee:	bf00      	nop
 80051f0:	2000028c 	.word	0x2000028c

080051f4 <_lseek>:
 80051f4:	4b02      	ldr	r3, [pc, #8]	; (8005200 <_lseek+0xc>)
 80051f6:	2258      	movs	r2, #88	; 0x58
 80051f8:	601a      	str	r2, [r3, #0]
 80051fa:	f04f 30ff 	mov.w	r0, #4294967295
 80051fe:	4770      	bx	lr
 8005200:	2000028c 	.word	0x2000028c

08005204 <_read>:
 8005204:	4b02      	ldr	r3, [pc, #8]	; (8005210 <_read+0xc>)
 8005206:	2258      	movs	r2, #88	; 0x58
 8005208:	601a      	str	r2, [r3, #0]
 800520a:	f04f 30ff 	mov.w	r0, #4294967295
 800520e:	4770      	bx	lr
 8005210:	2000028c 	.word	0x2000028c

08005214 <_sbrk>:
 8005214:	4b04      	ldr	r3, [pc, #16]	; (8005228 <_sbrk+0x14>)
 8005216:	6819      	ldr	r1, [r3, #0]
 8005218:	4602      	mov	r2, r0
 800521a:	b909      	cbnz	r1, 8005220 <_sbrk+0xc>
 800521c:	4903      	ldr	r1, [pc, #12]	; (800522c <_sbrk+0x18>)
 800521e:	6019      	str	r1, [r3, #0]
 8005220:	6818      	ldr	r0, [r3, #0]
 8005222:	4402      	add	r2, r0
 8005224:	601a      	str	r2, [r3, #0]
 8005226:	4770      	bx	lr
 8005228:	200000b0 	.word	0x200000b0
 800522c:	20000290 	.word	0x20000290

08005230 <_init>:
 8005230:	b5f8      	push	{r3, r4, r5, r6, r7, lr}
 8005232:	bf00      	nop
 8005234:	bcf8      	pop	{r3, r4, r5, r6, r7}
 8005236:	bc08      	pop	{r3}
 8005238:	469e      	mov	lr, r3
 800523a:	4770      	bx	lr

0800523c <_fini>:
 800523c:	b5f8      	push	{r3, r4, r5, r6, r7, lr}
 800523e:	bf00      	nop
 8005240:	bcf8      	pop	{r3, r4, r5, r6, r7}
 8005242:	bc08      	pop	{r3}
 8005244:	469e      	mov	lr, r3
 8005246:	4770      	bx	lr
